SF:/home/lemon/src/rust-automata/packages/vass-reach-lib/src/automaton/algorithms.rs
FN:82,_RNCNvYINtNtNtCs2hUxDLYgi0n_14vass_reach_lib9automaton3dfa3DFAuNtNtNtB9_3cfg6update16CFGCounterUpdateEINtNtB9_10algorithms23EdgeAutomatonAlgorithmsNtB9_13DeterministicE11to_graphviz0Bb_
FN:109,_RNCNvYINtNtNtCs2hUxDLYgi0n_14vass_reach_lib9automaton3dfa3DFAuNtNtNtB9_3cfg6update16CFGCounterUpdateEINtNtB9_10algorithms23EdgeAutomatonAlgorithmsNtB9_13DeterministicE11to_graphvizs0_0Bb_
FN:129,_RNCNvYINtNtNtCs2hUxDLYgi0n_14vass_reach_lib9automaton3dfa3DFAuNtNtNtB9_3cfg6update16CFGCounterUpdateEINtNtB9_10algorithms23EdgeAutomatonAlgorithmsNtB9_13DeterministicE11to_graphvizs1_0Bb_
FN:89,_RNCNvYINtNtNtCs2hUxDLYgi0n_14vass_reach_lib9automaton3dfa3DFAuNtNtNtB9_3cfg6update16CFGCounterUpdateEINtNtB9_10algorithms23EdgeAutomatonAlgorithmsNtB9_13DeterministicE11to_graphvizs_0Bb_
FN:67,_RNvYINtNtNtCs2hUxDLYgi0n_14vass_reach_lib9automaton3dfa3DFAuNtNtNtB7_3cfg6update16CFGCounterUpdateEINtNtB7_10algorithms23EdgeAutomatonAlgorithmsNtB7_13DeterministicE11to_graphvizB9_
FN:16,_RNvYpINtNtNtCs2hUxDLYgi0n_14vass_reach_lib9automaton10algorithms19AutomatonAlgorithmspE20find_scc_surroundingBa_
FN:16,_RNvYINtNtNtCs2hUxDLYgi0n_14vass_reach_lib9automaton3dfa3DFAuNtNtNtB7_3cfg6update16CFGCounterUpdateEINtNtB7_10algorithms19AutomatonAlgorithmsNtB7_13DeterministicE20find_scc_surroundingCsjA5qX5JEwPT_16graph_algorithms
FN:82,_RNCNvYpINtNtNtCs8RRi2RJs6bh_14vass_reach_lib9automaton10algorithms23EdgeAutomatonAlgorithmspE11to_graphviz0Bc_
FN:109,_RNCNvYpINtNtNtCs8RRi2RJs6bh_14vass_reach_lib9automaton10algorithms23EdgeAutomatonAlgorithmspE11to_graphvizs0_0Bc_
FN:129,_RNCNvYpINtNtNtCs8RRi2RJs6bh_14vass_reach_lib9automaton10algorithms23EdgeAutomatonAlgorithmspE11to_graphvizs1_0Bc_
FN:89,_RNCNvYpINtNtNtCs8RRi2RJs6bh_14vass_reach_lib9automaton10algorithms23EdgeAutomatonAlgorithmspE11to_graphvizs_0Bc_
FN:16,_RNvYpINtNtNtCs8RRi2RJs6bh_14vass_reach_lib9automaton10algorithms19AutomatonAlgorithmspE20find_scc_surroundingBa_
FN:67,_RNvYpINtNtNtCs8RRi2RJs6bh_14vass_reach_lib9automaton10algorithms23EdgeAutomatonAlgorithmspE11to_graphvizBa_
FNDA:0,_RNCNvYINtNtNtCs2hUxDLYgi0n_14vass_reach_lib9automaton3dfa3DFAuNtNtNtB9_3cfg6update16CFGCounterUpdateEINtNtB9_10algorithms23EdgeAutomatonAlgorithmsNtB9_13DeterministicE11to_graphviz0Bb_
FNDA:0,_RNCNvYINtNtNtCs2hUxDLYgi0n_14vass_reach_lib9automaton3dfa3DFAuNtNtNtB9_3cfg6update16CFGCounterUpdateEINtNtB9_10algorithms23EdgeAutomatonAlgorithmsNtB9_13DeterministicE11to_graphvizs0_0Bb_
FNDA:0,_RNCNvYINtNtNtCs2hUxDLYgi0n_14vass_reach_lib9automaton3dfa3DFAuNtNtNtB9_3cfg6update16CFGCounterUpdateEINtNtB9_10algorithms23EdgeAutomatonAlgorithmsNtB9_13DeterministicE11to_graphvizs1_0Bb_
FNDA:0,_RNCNvYINtNtNtCs2hUxDLYgi0n_14vass_reach_lib9automaton3dfa3DFAuNtNtNtB9_3cfg6update16CFGCounterUpdateEINtNtB9_10algorithms23EdgeAutomatonAlgorithmsNtB9_13DeterministicE11to_graphvizs_0Bb_
FNDA:0,_RNvYINtNtNtCs2hUxDLYgi0n_14vass_reach_lib9automaton3dfa3DFAuNtNtNtB7_3cfg6update16CFGCounterUpdateEINtNtB7_10algorithms23EdgeAutomatonAlgorithmsNtB7_13DeterministicE11to_graphvizB9_
FNDA:0,_RNvYpINtNtNtCs2hUxDLYgi0n_14vass_reach_lib9automaton10algorithms19AutomatonAlgorithmspE20find_scc_surroundingBa_
FNDA:1,_RNvYINtNtNtCs2hUxDLYgi0n_14vass_reach_lib9automaton3dfa3DFAuNtNtNtB7_3cfg6update16CFGCounterUpdateEINtNtB7_10algorithms19AutomatonAlgorithmsNtB7_13DeterministicE20find_scc_surroundingCsjA5qX5JEwPT_16graph_algorithms
FNDA:0,_RNCNvYpINtNtNtCs8RRi2RJs6bh_14vass_reach_lib9automaton10algorithms23EdgeAutomatonAlgorithmspE11to_graphviz0Bc_
FNDA:0,_RNCNvYpINtNtNtCs8RRi2RJs6bh_14vass_reach_lib9automaton10algorithms23EdgeAutomatonAlgorithmspE11to_graphvizs0_0Bc_
FNDA:0,_RNCNvYpINtNtNtCs8RRi2RJs6bh_14vass_reach_lib9automaton10algorithms23EdgeAutomatonAlgorithmspE11to_graphvizs1_0Bc_
FNDA:0,_RNCNvYpINtNtNtCs8RRi2RJs6bh_14vass_reach_lib9automaton10algorithms23EdgeAutomatonAlgorithmspE11to_graphvizs_0Bc_
FNDA:0,_RNvYpINtNtNtCs8RRi2RJs6bh_14vass_reach_lib9automaton10algorithms19AutomatonAlgorithmspE20find_scc_surroundingBa_
FNDA:0,_RNvYpINtNtNtCs8RRi2RJs6bh_14vass_reach_lib9automaton10algorithms23EdgeAutomatonAlgorithmspE11to_graphvizBa_
FNF:6
FNH:1
DA:16,1
DA:17,1
DA:18,1
DA:19,1
DA:20,1
DA:22,1
DA:23,1
DA:24,1
DA:26,12
DA:27,11
DA:28,6
DA:29,6
DA:31,11
DA:32,19
DA:33,19
DA:34,5
DA:35,5
DA:36,5
DA:37,5
DA:38,14
DA:39,13
DA:40,13
DA:41,13
DA:42,7
DA:45,11
DA:46,6
DA:47,6
DA:48,6
DA:49,6
DA:50,5
DA:53,1
DA:54,1
DA:67,0
DA:68,0
DA:69,0
DA:70,0
DA:71,0
DA:72,0
DA:73,0
DA:74,0
DA:75,0
DA:76,0
DA:77,0
DA:78,0
DA:80,0
DA:81,0
DA:82,0
DA:83,0
DA:85,0
DA:87,0
DA:88,0
DA:89,0
DA:90,0
DA:92,0
DA:94,0
DA:95,0
DA:97,0
DA:98,0
DA:100,0
DA:101,0
DA:102,0
DA:103,0
DA:104,0
DA:106,0
DA:108,0
DA:109,0
DA:113,0
DA:114,0
DA:116,0
DA:117,0
DA:118,0
DA:119,0
DA:120,0
DA:122,0
DA:123,0
DA:125,0
DA:127,0
DA:128,0
DA:129,0
DA:133,0
DA:135,0
DA:136,0
BRF:0
BRH:0
LF:86
LH:32
end_of_record
SF:/home/lemon/src/rust-automata/packages/vass-reach-lib/src/automaton/cfg/modulo.rs
FN:132,_RNCNvXs0_NtNtNtCs2hUxDLYgi0n_14vass_reach_lib9automaton3cfg6moduloNtB7_9ModuloCFGINtBb_9AutomatonNtBb_13DeterministicE10node_count0Bd_
FN:154,_RNCNvXs1_NtNtNtCs2hUxDLYgi0n_14vass_reach_lib9automaton3cfg6moduloNtB7_9ModuloCFGINtBb_16TransitionSystemNtBb_13DeterministicE10successors0Bd_
FN:164,_RNCNvXs1_NtNtNtCs2hUxDLYgi0n_14vass_reach_lib9automaton3cfg6moduloNtB7_9ModuloCFGINtBb_16TransitionSystemNtBb_13DeterministicE12predecessors0Bd_
FN:92,_RNvMNtNtNtCs2hUxDLYgi0n_14vass_reach_lib9automaton3cfg6moduloNtB2_9ModuloCFG16counter_to_index
FN:107,_RNvMNtNtNtCs2hUxDLYgi0n_14vass_reach_lib9automaton3cfg6moduloNtB2_9ModuloCFG16index_to_counter
FN:84,_RNvMNtNtNtCs2hUxDLYgi0n_14vass_reach_lib9automaton3cfg6moduloNtB2_9ModuloCFG2mu
FN:27,_RNvMNtNtNtCs2hUxDLYgi0n_14vass_reach_lib9automaton3cfg6moduloNtB2_9ModuloCFG3new
FN:88,_RNvMNtNtNtCs2hUxDLYgi0n_14vass_reach_lib9automaton3cfg6moduloNtB2_9ModuloCFG6get_mu
FN:68,_RNvMNtNtNtCs2hUxDLYgi0n_14vass_reach_lib9automaton3cfg6moduloNtB2_9ModuloCFG7initial
FN:131,_RNvXs0_NtNtNtCs2hUxDLYgi0n_14vass_reach_lib9automaton3cfg6moduloNtB5_9ModuloCFGINtB9_9AutomatonNtB9_13DeterministicE10node_count
FN:139,_RNvXs0_NtNtNtCs2hUxDLYgi0n_14vass_reach_lib9automaton3cfg6moduloNtB5_9ModuloCFGINtB9_9AutomatonNtB9_13DeterministicE18get_node_unchecked
FN:135,_RNvXs0_NtNtNtCs2hUxDLYgi0n_14vass_reach_lib9automaton3cfg6moduloNtB5_9ModuloCFGINtB9_9AutomatonNtB9_13DeterministicE8get_node
FN:151,_RNvXs1_NtNtNtCs2hUxDLYgi0n_14vass_reach_lib9automaton3cfg6moduloNtB5_9ModuloCFGINtB9_16TransitionSystemNtB9_13DeterministicE10successors
FN:161,_RNvXs1_NtNtNtCs2hUxDLYgi0n_14vass_reach_lib9automaton3cfg6moduloNtB5_9ModuloCFGINtB9_16TransitionSystemNtB9_13DeterministicE12predecessors
FN:145,_RNvXs1_NtNtNtCs2hUxDLYgi0n_14vass_reach_lib9automaton3cfg6moduloNtB5_9ModuloCFGINtB9_16TransitionSystemNtB9_13DeterministicE9successor
FN:173,_RNvXs2_NtNtNtCs2hUxDLYgi0n_14vass_reach_lib9automaton3cfg6moduloNtB5_9ModuloCFGINtB9_20InitializedAutomatonNtB9_13DeterministicE11get_initial
FN:177,_RNvXs2_NtNtNtCs2hUxDLYgi0n_14vass_reach_lib9automaton3cfg6moduloNtB5_9ModuloCFGINtB9_20InitializedAutomatonNtB9_13DeterministicE12is_accepting
FN:183,_RNvXs3_NtNtNtCs2hUxDLYgi0n_14vass_reach_lib9automaton3cfg6moduloNtB5_9ModuloCFGINtB9_25SingleFinalStateAutomatonNtB9_13DeterministicE9get_final
FN:187,_RNvXs3_NtNtNtCs2hUxDLYgi0n_14vass_reach_lib9automaton3cfg6moduloNtB5_9ModuloCFGINtB9_25SingleFinalStateAutomatonNtB9_13DeterministicE9set_final
FN:121,_RNvXs_NtNtNtCs2hUxDLYgi0n_14vass_reach_lib9automaton3cfg6moduloNtB4_9ModuloCFGNtB8_8Alphabet8alphabet
FN:195,_RINvXs4_NtNtNtCs2hUxDLYgi0n_14vass_reach_lib9automaton3cfg6moduloNtB6_9ModuloCFGNtBa_8Language7acceptspEBc_
FN:195,_RINvXs4_NtNtNtCs8RRi2RJs6bh_14vass_reach_lib9automaton3cfg6moduloNtB6_9ModuloCFGNtBa_8Language7acceptspEBc_
FN:132,_RNCNvXs0_NtNtNtCs8RRi2RJs6bh_14vass_reach_lib9automaton3cfg6moduloNtB7_9ModuloCFGINtBb_9AutomatonNtBb_13DeterministicE10node_count0Bd_
FN:154,_RNCNvXs1_NtNtNtCs8RRi2RJs6bh_14vass_reach_lib9automaton3cfg6moduloNtB7_9ModuloCFGINtBb_16TransitionSystemNtBb_13DeterministicE10successors0Bd_
FN:164,_RNCNvXs1_NtNtNtCs8RRi2RJs6bh_14vass_reach_lib9automaton3cfg6moduloNtB7_9ModuloCFGINtBb_16TransitionSystemNtBb_13DeterministicE12predecessors0Bd_
FN:84,_RNvMNtNtNtCs8RRi2RJs6bh_14vass_reach_lib9automaton3cfg6moduloNtB2_9ModuloCFG2mu
FN:88,_RNvMNtNtNtCs8RRi2RJs6bh_14vass_reach_lib9automaton3cfg6moduloNtB2_9ModuloCFG6get_mu
FN:68,_RNvMNtNtNtCs8RRi2RJs6bh_14vass_reach_lib9automaton3cfg6moduloNtB2_9ModuloCFG7initial
FN:131,_RNvXs0_NtNtNtCs8RRi2RJs6bh_14vass_reach_lib9automaton3cfg6moduloNtB5_9ModuloCFGINtB9_9AutomatonNtB9_13DeterministicE10node_count
FN:139,_RNvXs0_NtNtNtCs8RRi2RJs6bh_14vass_reach_lib9automaton3cfg6moduloNtB5_9ModuloCFGINtB9_9AutomatonNtB9_13DeterministicE18get_node_unchecked
FN:135,_RNvXs0_NtNtNtCs8RRi2RJs6bh_14vass_reach_lib9automaton3cfg6moduloNtB5_9ModuloCFGINtB9_9AutomatonNtB9_13DeterministicE8get_node
FN:151,_RNvXs1_NtNtNtCs8RRi2RJs6bh_14vass_reach_lib9automaton3cfg6moduloNtB5_9ModuloCFGINtB9_16TransitionSystemNtB9_13DeterministicE10successors
FN:161,_RNvXs1_NtNtNtCs8RRi2RJs6bh_14vass_reach_lib9automaton3cfg6moduloNtB5_9ModuloCFGINtB9_16TransitionSystemNtB9_13DeterministicE12predecessors
FN:173,_RNvXs2_NtNtNtCs8RRi2RJs6bh_14vass_reach_lib9automaton3cfg6moduloNtB5_9ModuloCFGINtB9_20InitializedAutomatonNtB9_13DeterministicE11get_initial
FN:177,_RNvXs2_NtNtNtCs8RRi2RJs6bh_14vass_reach_lib9automaton3cfg6moduloNtB5_9ModuloCFGINtB9_20InitializedAutomatonNtB9_13DeterministicE12is_accepting
FN:183,_RNvXs3_NtNtNtCs8RRi2RJs6bh_14vass_reach_lib9automaton3cfg6moduloNtB5_9ModuloCFGINtB9_25SingleFinalStateAutomatonNtB9_13DeterministicE9get_final
FN:187,_RNvXs3_NtNtNtCs8RRi2RJs6bh_14vass_reach_lib9automaton3cfg6moduloNtB5_9ModuloCFGINtB9_25SingleFinalStateAutomatonNtB9_13DeterministicE9set_final
FN:121,_RNvXs_NtNtNtCs8RRi2RJs6bh_14vass_reach_lib9automaton3cfg6moduloNtB4_9ModuloCFGNtB8_8Alphabet8alphabet
FN:236,_RNvNtNtNtNtCs8RRi2RJs6bh_14vass_reach_lib9automaton3cfg6modulo5testss_14test_successor
FN:218,_RNvNtNtNtNtCs8RRi2RJs6bh_14vass_reach_lib9automaton3cfg6modulo5testss_29test_counter_index_conversion
FN:227,_RNvNtNtNtNtCs8RRi2RJs6bh_14vass_reach_lib9automaton3cfg6modulo5testss_29test_index_counter_conversion
FN:92,_RNvMNtNtNtCs8RRi2RJs6bh_14vass_reach_lib9automaton3cfg6moduloNtB2_9ModuloCFG16counter_to_index
FN:107,_RNvMNtNtNtCs8RRi2RJs6bh_14vass_reach_lib9automaton3cfg6moduloNtB2_9ModuloCFG16index_to_counter
FN:27,_RNvMNtNtNtCs8RRi2RJs6bh_14vass_reach_lib9automaton3cfg6moduloNtB2_9ModuloCFG3new
FN:145,_RNvXs1_NtNtNtCs8RRi2RJs6bh_14vass_reach_lib9automaton3cfg6moduloNtB5_9ModuloCFGINtB9_16TransitionSystemNtB9_13DeterministicE9successor
FNDA:0,_RNCNvXs0_NtNtNtCs2hUxDLYgi0n_14vass_reach_lib9automaton3cfg6moduloNtB7_9ModuloCFGINtBb_9AutomatonNtBb_13DeterministicE10node_count0Bd_
FNDA:0,_RNCNvXs1_NtNtNtCs2hUxDLYgi0n_14vass_reach_lib9automaton3cfg6moduloNtB7_9ModuloCFGINtBb_16TransitionSystemNtBb_13DeterministicE10successors0Bd_
FNDA:0,_RNCNvXs1_NtNtNtCs2hUxDLYgi0n_14vass_reach_lib9automaton3cfg6moduloNtB7_9ModuloCFGINtBb_16TransitionSystemNtBb_13DeterministicE12predecessors0Bd_
FNDA:0,_RNvMNtNtNtCs2hUxDLYgi0n_14vass_reach_lib9automaton3cfg6moduloNtB2_9ModuloCFG16counter_to_index
FNDA:0,_RNvMNtNtNtCs2hUxDLYgi0n_14vass_reach_lib9automaton3cfg6moduloNtB2_9ModuloCFG16index_to_counter
FNDA:0,_RNvMNtNtNtCs2hUxDLYgi0n_14vass_reach_lib9automaton3cfg6moduloNtB2_9ModuloCFG2mu
FNDA:0,_RNvMNtNtNtCs2hUxDLYgi0n_14vass_reach_lib9automaton3cfg6moduloNtB2_9ModuloCFG3new
FNDA:0,_RNvMNtNtNtCs2hUxDLYgi0n_14vass_reach_lib9automaton3cfg6moduloNtB2_9ModuloCFG6get_mu
FNDA:0,_RNvMNtNtNtCs2hUxDLYgi0n_14vass_reach_lib9automaton3cfg6moduloNtB2_9ModuloCFG7initial
FNDA:0,_RNvXs0_NtNtNtCs2hUxDLYgi0n_14vass_reach_lib9automaton3cfg6moduloNtB5_9ModuloCFGINtB9_9AutomatonNtB9_13DeterministicE10node_count
FNDA:0,_RNvXs0_NtNtNtCs2hUxDLYgi0n_14vass_reach_lib9automaton3cfg6moduloNtB5_9ModuloCFGINtB9_9AutomatonNtB9_13DeterministicE18get_node_unchecked
FNDA:0,_RNvXs0_NtNtNtCs2hUxDLYgi0n_14vass_reach_lib9automaton3cfg6moduloNtB5_9ModuloCFGINtB9_9AutomatonNtB9_13DeterministicE8get_node
FNDA:0,_RNvXs1_NtNtNtCs2hUxDLYgi0n_14vass_reach_lib9automaton3cfg6moduloNtB5_9ModuloCFGINtB9_16TransitionSystemNtB9_13DeterministicE10successors
FNDA:0,_RNvXs1_NtNtNtCs2hUxDLYgi0n_14vass_reach_lib9automaton3cfg6moduloNtB5_9ModuloCFGINtB9_16TransitionSystemNtB9_13DeterministicE12predecessors
FNDA:0,_RNvXs1_NtNtNtCs2hUxDLYgi0n_14vass_reach_lib9automaton3cfg6moduloNtB5_9ModuloCFGINtB9_16TransitionSystemNtB9_13DeterministicE9successor
FNDA:0,_RNvXs2_NtNtNtCs2hUxDLYgi0n_14vass_reach_lib9automaton3cfg6moduloNtB5_9ModuloCFGINtB9_20InitializedAutomatonNtB9_13DeterministicE11get_initial
FNDA:0,_RNvXs2_NtNtNtCs2hUxDLYgi0n_14vass_reach_lib9automaton3cfg6moduloNtB5_9ModuloCFGINtB9_20InitializedAutomatonNtB9_13DeterministicE12is_accepting
FNDA:0,_RNvXs3_NtNtNtCs2hUxDLYgi0n_14vass_reach_lib9automaton3cfg6moduloNtB5_9ModuloCFGINtB9_25SingleFinalStateAutomatonNtB9_13DeterministicE9get_final
FNDA:0,_RNvXs3_NtNtNtCs2hUxDLYgi0n_14vass_reach_lib9automaton3cfg6moduloNtB5_9ModuloCFGINtB9_25SingleFinalStateAutomatonNtB9_13DeterministicE9set_final
FNDA:0,_RNvXs_NtNtNtCs2hUxDLYgi0n_14vass_reach_lib9automaton3cfg6moduloNtB4_9ModuloCFGNtB8_8Alphabet8alphabet
FNDA:0,_RINvXs4_NtNtNtCs2hUxDLYgi0n_14vass_reach_lib9automaton3cfg6moduloNtB6_9ModuloCFGNtBa_8Language7acceptspEBc_
FNDA:0,_RINvXs4_NtNtNtCs8RRi2RJs6bh_14vass_reach_lib9automaton3cfg6moduloNtB6_9ModuloCFGNtBa_8Language7acceptspEBc_
FNDA:0,_RNCNvXs0_NtNtNtCs8RRi2RJs6bh_14vass_reach_lib9automaton3cfg6moduloNtB7_9ModuloCFGINtBb_9AutomatonNtBb_13DeterministicE10node_count0Bd_
FNDA:0,_RNCNvXs1_NtNtNtCs8RRi2RJs6bh_14vass_reach_lib9automaton3cfg6moduloNtB7_9ModuloCFGINtBb_16TransitionSystemNtBb_13DeterministicE10successors0Bd_
FNDA:0,_RNCNvXs1_NtNtNtCs8RRi2RJs6bh_14vass_reach_lib9automaton3cfg6moduloNtB7_9ModuloCFGINtBb_16TransitionSystemNtBb_13DeterministicE12predecessors0Bd_
FNDA:0,_RNvMNtNtNtCs8RRi2RJs6bh_14vass_reach_lib9automaton3cfg6moduloNtB2_9ModuloCFG2mu
FNDA:0,_RNvMNtNtNtCs8RRi2RJs6bh_14vass_reach_lib9automaton3cfg6moduloNtB2_9ModuloCFG6get_mu
FNDA:0,_RNvMNtNtNtCs8RRi2RJs6bh_14vass_reach_lib9automaton3cfg6moduloNtB2_9ModuloCFG7initial
FNDA:0,_RNvXs0_NtNtNtCs8RRi2RJs6bh_14vass_reach_lib9automaton3cfg6moduloNtB5_9ModuloCFGINtB9_9AutomatonNtB9_13DeterministicE10node_count
FNDA:0,_RNvXs0_NtNtNtCs8RRi2RJs6bh_14vass_reach_lib9automaton3cfg6moduloNtB5_9ModuloCFGINtB9_9AutomatonNtB9_13DeterministicE18get_node_unchecked
FNDA:0,_RNvXs0_NtNtNtCs8RRi2RJs6bh_14vass_reach_lib9automaton3cfg6moduloNtB5_9ModuloCFGINtB9_9AutomatonNtB9_13DeterministicE8get_node
FNDA:0,_RNvXs1_NtNtNtCs8RRi2RJs6bh_14vass_reach_lib9automaton3cfg6moduloNtB5_9ModuloCFGINtB9_16TransitionSystemNtB9_13DeterministicE10successors
FNDA:0,_RNvXs1_NtNtNtCs8RRi2RJs6bh_14vass_reach_lib9automaton3cfg6moduloNtB5_9ModuloCFGINtB9_16TransitionSystemNtB9_13DeterministicE12predecessors
FNDA:0,_RNvXs2_NtNtNtCs8RRi2RJs6bh_14vass_reach_lib9automaton3cfg6moduloNtB5_9ModuloCFGINtB9_20InitializedAutomatonNtB9_13DeterministicE11get_initial
FNDA:0,_RNvXs2_NtNtNtCs8RRi2RJs6bh_14vass_reach_lib9automaton3cfg6moduloNtB5_9ModuloCFGINtB9_20InitializedAutomatonNtB9_13DeterministicE12is_accepting
FNDA:0,_RNvXs3_NtNtNtCs8RRi2RJs6bh_14vass_reach_lib9automaton3cfg6moduloNtB5_9ModuloCFGINtB9_25SingleFinalStateAutomatonNtB9_13DeterministicE9get_final
FNDA:0,_RNvXs3_NtNtNtCs8RRi2RJs6bh_14vass_reach_lib9automaton3cfg6moduloNtB5_9ModuloCFGINtB9_25SingleFinalStateAutomatonNtB9_13DeterministicE9set_final
FNDA:0,_RNvXs_NtNtNtCs8RRi2RJs6bh_14vass_reach_lib9automaton3cfg6moduloNtB4_9ModuloCFGNtB8_8Alphabet8alphabet
FNDA:1,_RNvNtNtNtNtCs8RRi2RJs6bh_14vass_reach_lib9automaton3cfg6modulo5testss_14test_successor
FNDA:1,_RNvNtNtNtNtCs8RRi2RJs6bh_14vass_reach_lib9automaton3cfg6modulo5testss_29test_counter_index_conversion
FNDA:1,_RNvNtNtNtNtCs8RRi2RJs6bh_14vass_reach_lib9automaton3cfg6modulo5testss_29test_index_counter_conversion
FNDA:10,_RNvMNtNtNtCs8RRi2RJs6bh_14vass_reach_lib9automaton3cfg6moduloNtB2_9ModuloCFG16counter_to_index
FNDA:4,_RNvMNtNtNtCs8RRi2RJs6bh_14vass_reach_lib9automaton3cfg6moduloNtB2_9ModuloCFG16index_to_counter
FNDA:3,_RNvMNtNtNtCs8RRi2RJs6bh_14vass_reach_lib9automaton3cfg6moduloNtB2_9ModuloCFG3new
FNDA:1,_RNvXs1_NtNtNtCs8RRi2RJs6bh_14vass_reach_lib9automaton3cfg6moduloNtB5_9ModuloCFGINtB9_16TransitionSystemNtB9_13DeterministicE9successor
FNF:24
FNH:7
DA:27,3
DA:28,3
DA:29,3
DA:30,3
DA:31,3
DA:32,7
DA:33,7
DA:36,3
DA:37,3
DA:38,3
DA:42,3
DA:43,3
DA:48,3
DA:49,3
DA:51,3
DA:52,3
DA:53,3
DA:54,3
DA:55,3
DA:56,3
DA:57,3
DA:58,3
DA:59,3
DA:62,3
DA:63,3
DA:65,3
DA:66,3
DA:68,0
DA:69,0
DA:70,0
DA:71,0
DA:72,0
DA:73,0
DA:77,0
DA:78,0
DA:79,0
DA:80,0
DA:82,0
DA:84,0
DA:85,0
DA:86,0
DA:88,0
DA:89,0
DA:90,0
DA:92,10
DA:93,10
DA:95,10
DA:96,23
DA:97,23
DA:99,23
DA:100,23
DA:102,23
DA:104,10
DA:105,10
DA:107,4
DA:108,4
DA:109,4
DA:110,9
DA:111,9
DA:112,9
DA:113,9
DA:114,4
DA:115,4
DA:121,0
DA:122,0
DA:123,0
DA:131,0
DA:132,0
DA:133,0
DA:135,0
DA:136,0
DA:137,0
DA:139,0
DA:140,0
DA:141,0
DA:145,1
DA:146,1
DA:147,1
DA:148,1
DA:149,1
DA:151,0
DA:152,0
DA:154,0
DA:155,0
DA:156,0
DA:157,0
DA:158,0
DA:159,0
DA:161,0
DA:162,0
DA:164,0
DA:165,0
DA:166,0
DA:167,0
DA:168,0
DA:169,0
DA:173,0
DA:174,0
DA:175,0
DA:177,0
DA:178,0
DA:179,0
DA:183,0
DA:184,0
DA:185,0
DA:187,0
DA:188,0
DA:189,0
DA:190,0
DA:191,0
DA:195,0
DA:196,0
DA:197,0
DA:199,0
DA:200,0
DA:201,0
DA:202,0
DA:203,0
DA:206,0
DA:207,0
DA:218,1
DA:219,1
DA:220,1
DA:221,1
DA:222,1
DA:223,1
DA:224,1
DA:227,1
DA:228,1
DA:229,1
DA:230,1
DA:231,1
DA:232,1
DA:233,1
DA:236,1
DA:237,1
DA:238,1
DA:239,1
DA:240,1
DA:241,1
DA:242,1
DA:243,1
BRF:0
BRH:0
LF:145
LH:73
end_of_record
SF:/home/lemon/src/rust-automata/packages/vass-reach-lib/src/automaton/cfg/update.rs
FN:202,_RNvXs3_NtNtNtCs2hUxDLYgi0n_14vass_reach_lib9automaton3cfg6updateNtNtNtB9_4vass7counter20VASSCounterValuationNtB5_19CFGCounterUpdatable16apply_cfg_update
FN:210,_RNvXs3_NtNtNtCs2hUxDLYgi0n_14vass_reach_lib9automaton3cfg6updateNtNtNtB9_4vass7counter20VASSCounterValuationNtB5_19CFGCounterUpdatable20apply_cfg_update_mod
FN:220,_RNvXs3_NtNtNtCs2hUxDLYgi0n_14vass_reach_lib9automaton3cfg6updateNtNtNtB9_4vass7counter20VASSCounterValuationNtB5_19CFGCounterUpdatable20can_apply_cfg_update
FN:206,_RNvXs3_NtNtNtCs2hUxDLYgi0n_14vass_reach_lib9automaton3cfg6updateNtNtNtB9_4vass7counter20VASSCounterValuationNtB5_19CFGCounterUpdatable22apply_cfg_update_times
FN:215,_RNvXs3_NtNtNtCs2hUxDLYgi0n_14vass_reach_lib9automaton3cfg6updateNtNtNtB9_4vass7counter20VASSCounterValuationNtB5_19CFGCounterUpdatable26apply_cfg_update_mod_slice
FN:79,_RNCNvMNtNtNtCs2hUxDLYgi0n_14vass_reach_lib9automaton3cfg6updateNtB4_16CFGCounterUpdate8alphabet0Ba_
FN:80,_RNCNvMNtNtNtCs2hUxDLYgi0n_14vass_reach_lib9automaton3cfg6updateNtB4_16CFGCounterUpdate8alphabets_0Ba_
FN:166,_RNCNvMs2_NtNtNtCs2hUxDLYgi0n_14vass_reach_lib9automaton3cfg6updateNtB7_16CFGCounterUpdate15from_str_to_vec0Bd_
FN:60,_RNvMNtNtNtCs2hUxDLYgi0n_14vass_reach_lib9automaton3cfg6updateNtB2_16CFGCounterUpdate11to_negative
FN:53,_RNvMNtNtNtCs2hUxDLYgi0n_14vass_reach_lib9automaton3cfg6updateNtB2_16CFGCounterUpdate11to_positive
FN:90,_RNvMNtNtNtCs2hUxDLYgi0n_14vass_reach_lib9automaton3cfg6updateNtB2_16CFGCounterUpdate2op
FN:32,_RNvMNtNtNtCs2hUxDLYgi0n_14vass_reach_lib9automaton3cfg6updateNtB2_16CFGCounterUpdate3new
FN:95,_RNvMNtNtNtCs2hUxDLYgi0n_14vass_reach_lib9automaton3cfg6updateNtB2_16CFGCounterUpdate6op_i64
FN:85,_RNvMNtNtNtCs2hUxDLYgi0n_14vass_reach_lib9automaton3cfg6updateNtB2_16CFGCounterUpdate7counter
FN:67,_RNvMNtNtNtCs2hUxDLYgi0n_14vass_reach_lib9automaton3cfg6updateNtB2_16CFGCounterUpdate7reverse
FN:77,_RNvMNtNtNtCs2hUxDLYgi0n_14vass_reach_lib9automaton3cfg6updateNtB2_16CFGCounterUpdate8alphabet
FN:46,_RNvMNtNtNtCs2hUxDLYgi0n_14vass_reach_lib9automaton3cfg6updateNtB2_16CFGCounterUpdate8negative
FN:39,_RNvMNtNtNtCs2hUxDLYgi0n_14vass_reach_lib9automaton3cfg6updateNtB2_16CFGCounterUpdate8positive
FN:165,_RNvMs2_NtNtNtCs2hUxDLYgi0n_14vass_reach_lib9automaton3cfg6updateNtB5_16CFGCounterUpdate15from_str_to_vec
FN:112,_RNvXs0_NtNtNtCs2hUxDLYgi0n_14vass_reach_lib9automaton3cfg6updateNtB5_16CFGCounterUpdateNtNtCs7xuAoyMVi4A_4core3fmt5Debug3fmt
FN:120,_RNvXs1_NtNtNtCs2hUxDLYgi0n_14vass_reach_lib9automaton3cfg6updateNtB5_16CFGCounterUpdateNtNtNtCs7xuAoyMVi4A_4core3str6traits7FromStr8from_str
FN:101,_RNvXs_NtNtNtCs2hUxDLYgi0n_14vass_reach_lib9automaton3cfg6updateNtB4_16CFGCounterUpdateNtNtCs7xuAoyMVi4A_4core3fmt7Display3fmt
FN:60,_RNvMNtNtNtCs8RRi2RJs6bh_14vass_reach_lib9automaton3cfg6updateNtB2_16CFGCounterUpdate11to_negative
FN:53,_RNvMNtNtNtCs8RRi2RJs6bh_14vass_reach_lib9automaton3cfg6updateNtB2_16CFGCounterUpdate11to_positive
FN:95,_RNvMNtNtNtCs8RRi2RJs6bh_14vass_reach_lib9automaton3cfg6updateNtB2_16CFGCounterUpdate6op_i64
FN:67,_RNvMNtNtNtCs8RRi2RJs6bh_14vass_reach_lib9automaton3cfg6updateNtB2_16CFGCounterUpdate7reverse
FN:46,_RNvMNtNtNtCs8RRi2RJs6bh_14vass_reach_lib9automaton3cfg6updateNtB2_16CFGCounterUpdate8negative
FN:39,_RNvMNtNtNtCs8RRi2RJs6bh_14vass_reach_lib9automaton3cfg6updateNtB2_16CFGCounterUpdate8positive
FN:202,_RNvXs3_NtNtNtCs8RRi2RJs6bh_14vass_reach_lib9automaton3cfg6updateNtNtNtB9_4vass7counter20VASSCounterValuationNtB5_19CFGCounterUpdatable16apply_cfg_update
FN:210,_RNvXs3_NtNtNtCs8RRi2RJs6bh_14vass_reach_lib9automaton3cfg6updateNtNtNtB9_4vass7counter20VASSCounterValuationNtB5_19CFGCounterUpdatable20apply_cfg_update_mod
FN:220,_RNvXs3_NtNtNtCs8RRi2RJs6bh_14vass_reach_lib9automaton3cfg6updateNtNtNtB9_4vass7counter20VASSCounterValuationNtB5_19CFGCounterUpdatable20can_apply_cfg_update
FN:206,_RNvXs3_NtNtNtCs8RRi2RJs6bh_14vass_reach_lib9automaton3cfg6updateNtNtNtB9_4vass7counter20VASSCounterValuationNtB5_19CFGCounterUpdatable22apply_cfg_update_times
FN:79,_RNCNvMNtNtNtCs8RRi2RJs6bh_14vass_reach_lib9automaton3cfg6updateNtB4_16CFGCounterUpdate8alphabet0Ba_
FN:80,_RNCNvMNtNtNtCs8RRi2RJs6bh_14vass_reach_lib9automaton3cfg6updateNtB4_16CFGCounterUpdate8alphabets_0Ba_
FN:166,_RNCNvMs2_NtNtNtCs8RRi2RJs6bh_14vass_reach_lib9automaton3cfg6updateNtB7_16CFGCounterUpdate15from_str_to_vec0Bd_
FN:185,_RNCNvNtNtNtCs8RRi2RJs6bh_14vass_reach_lib9automaton3cfg6updates_30test_cfg_counter_update_parser0B9_
FN:215,_RNvXs3_NtNtNtCs8RRi2RJs6bh_14vass_reach_lib9automaton3cfg6updateNtNtNtB9_4vass7counter20VASSCounterValuationNtB5_19CFGCounterUpdatable26apply_cfg_update_mod_slice
FN:90,_RNvMNtNtNtCs8RRi2RJs6bh_14vass_reach_lib9automaton3cfg6updateNtB2_16CFGCounterUpdate2op
FN:32,_RNvMNtNtNtCs8RRi2RJs6bh_14vass_reach_lib9automaton3cfg6updateNtB2_16CFGCounterUpdate3new
FN:85,_RNvMNtNtNtCs8RRi2RJs6bh_14vass_reach_lib9automaton3cfg6updateNtB2_16CFGCounterUpdate7counter
FN:77,_RNvMNtNtNtCs8RRi2RJs6bh_14vass_reach_lib9automaton3cfg6updateNtB2_16CFGCounterUpdate8alphabet
FN:165,_RNvMs2_NtNtNtCs8RRi2RJs6bh_14vass_reach_lib9automaton3cfg6updateNtB5_16CFGCounterUpdate15from_str_to_vec
FN:171,_RNvNtNtNtCs8RRi2RJs6bh_14vass_reach_lib9automaton3cfg6updates_30test_cfg_counter_update_parser
FN:112,_RNvXs0_NtNtNtCs8RRi2RJs6bh_14vass_reach_lib9automaton3cfg6updateNtB5_16CFGCounterUpdateNtNtCs7xuAoyMVi4A_4core3fmt5Debug3fmt
FN:120,_RNvXs1_NtNtNtCs8RRi2RJs6bh_14vass_reach_lib9automaton3cfg6updateNtB5_16CFGCounterUpdateNtNtNtCs7xuAoyMVi4A_4core3str6traits7FromStr8from_str
FN:101,_RNvXs_NtNtNtCs8RRi2RJs6bh_14vass_reach_lib9automaton3cfg6updateNtB4_16CFGCounterUpdateNtNtCs7xuAoyMVi4A_4core3fmt7Display3fmt
FNDA:84,_RNvXs3_NtNtNtCs2hUxDLYgi0n_14vass_reach_lib9automaton3cfg6updateNtNtNtB9_4vass7counter20VASSCounterValuationNtB5_19CFGCounterUpdatable16apply_cfg_update
FNDA:23594,_RNvXs3_NtNtNtCs2hUxDLYgi0n_14vass_reach_lib9automaton3cfg6updateNtNtNtB9_4vass7counter20VASSCounterValuationNtB5_19CFGCounterUpdatable20apply_cfg_update_mod
FNDA:0,_RNvXs3_NtNtNtCs2hUxDLYgi0n_14vass_reach_lib9automaton3cfg6updateNtNtNtB9_4vass7counter20VASSCounterValuationNtB5_19CFGCounterUpdatable20can_apply_cfg_update
FNDA:0,_RNvXs3_NtNtNtCs2hUxDLYgi0n_14vass_reach_lib9automaton3cfg6updateNtNtNtB9_4vass7counter20VASSCounterValuationNtB5_19CFGCounterUpdatable22apply_cfg_update_times
FNDA:0,_RNvXs3_NtNtNtCs2hUxDLYgi0n_14vass_reach_lib9automaton3cfg6updateNtNtNtB9_4vass7counter20VASSCounterValuationNtB5_19CFGCounterUpdatable26apply_cfg_update_mod_slice
FNDA:1353,_RNCNvMNtNtNtCs2hUxDLYgi0n_14vass_reach_lib9automaton3cfg6updateNtB4_16CFGCounterUpdate8alphabet0Ba_
FNDA:1353,_RNCNvMNtNtNtCs2hUxDLYgi0n_14vass_reach_lib9automaton3cfg6updateNtB4_16CFGCounterUpdate8alphabets_0Ba_
FNDA:24,_RNCNvMs2_NtNtNtCs2hUxDLYgi0n_14vass_reach_lib9automaton3cfg6updateNtB7_16CFGCounterUpdate15from_str_to_vec0Bd_
FNDA:0,_RNvMNtNtNtCs2hUxDLYgi0n_14vass_reach_lib9automaton3cfg6updateNtB2_16CFGCounterUpdate11to_negative
FNDA:0,_RNvMNtNtNtCs2hUxDLYgi0n_14vass_reach_lib9automaton3cfg6updateNtB2_16CFGCounterUpdate11to_positive
FNDA:23777,_RNvMNtNtNtCs2hUxDLYgi0n_14vass_reach_lib9automaton3cfg6updateNtB2_16CFGCounterUpdate2op
FNDA:3119,_RNvMNtNtNtCs2hUxDLYgi0n_14vass_reach_lib9automaton3cfg6updateNtB2_16CFGCounterUpdate3new
FNDA:188,_RNvMNtNtNtCs2hUxDLYgi0n_14vass_reach_lib9automaton3cfg6updateNtB2_16CFGCounterUpdate6op_i64
FNDA:23965,_RNvMNtNtNtCs2hUxDLYgi0n_14vass_reach_lib9automaton3cfg6updateNtB2_16CFGCounterUpdate7counter
FNDA:1731,_RNvMNtNtNtCs2hUxDLYgi0n_14vass_reach_lib9automaton3cfg6updateNtB2_16CFGCounterUpdate7reverse
FNDA:400,_RNvMNtNtNtCs2hUxDLYgi0n_14vass_reach_lib9automaton3cfg6updateNtB2_16CFGCounterUpdate8alphabet
FNDA:83,_RNvMNtNtNtCs2hUxDLYgi0n_14vass_reach_lib9automaton3cfg6updateNtB2_16CFGCounterUpdate8negative
FNDA:83,_RNvMNtNtNtCs2hUxDLYgi0n_14vass_reach_lib9automaton3cfg6updateNtB2_16CFGCounterUpdate8positive
FNDA:1,_RNvMs2_NtNtNtCs2hUxDLYgi0n_14vass_reach_lib9automaton3cfg6updateNtB5_16CFGCounterUpdate15from_str_to_vec
FNDA:0,_RNvXs0_NtNtNtCs2hUxDLYgi0n_14vass_reach_lib9automaton3cfg6updateNtB5_16CFGCounterUpdateNtNtCs7xuAoyMVi4A_4core3fmt5Debug3fmt
FNDA:24,_RNvXs1_NtNtNtCs2hUxDLYgi0n_14vass_reach_lib9automaton3cfg6updateNtB5_16CFGCounterUpdateNtNtNtCs7xuAoyMVi4A_4core3str6traits7FromStr8from_str
FNDA:0,_RNvXs_NtNtNtCs2hUxDLYgi0n_14vass_reach_lib9automaton3cfg6updateNtB4_16CFGCounterUpdateNtNtCs7xuAoyMVi4A_4core3fmt7Display3fmt
FNDA:0,_RNvMNtNtNtCs8RRi2RJs6bh_14vass_reach_lib9automaton3cfg6updateNtB2_16CFGCounterUpdate11to_negative
FNDA:0,_RNvMNtNtNtCs8RRi2RJs6bh_14vass_reach_lib9automaton3cfg6updateNtB2_16CFGCounterUpdate11to_positive
FNDA:0,_RNvMNtNtNtCs8RRi2RJs6bh_14vass_reach_lib9automaton3cfg6updateNtB2_16CFGCounterUpdate6op_i64
FNDA:0,_RNvMNtNtNtCs8RRi2RJs6bh_14vass_reach_lib9automaton3cfg6updateNtB2_16CFGCounterUpdate7reverse
FNDA:0,_RNvMNtNtNtCs8RRi2RJs6bh_14vass_reach_lib9automaton3cfg6updateNtB2_16CFGCounterUpdate8negative
FNDA:0,_RNvMNtNtNtCs8RRi2RJs6bh_14vass_reach_lib9automaton3cfg6updateNtB2_16CFGCounterUpdate8positive
FNDA:0,_RNvXs3_NtNtNtCs8RRi2RJs6bh_14vass_reach_lib9automaton3cfg6updateNtNtNtB9_4vass7counter20VASSCounterValuationNtB5_19CFGCounterUpdatable16apply_cfg_update
FNDA:0,_RNvXs3_NtNtNtCs8RRi2RJs6bh_14vass_reach_lib9automaton3cfg6updateNtNtNtB9_4vass7counter20VASSCounterValuationNtB5_19CFGCounterUpdatable20apply_cfg_update_mod
FNDA:0,_RNvXs3_NtNtNtCs8RRi2RJs6bh_14vass_reach_lib9automaton3cfg6updateNtNtNtB9_4vass7counter20VASSCounterValuationNtB5_19CFGCounterUpdatable20can_apply_cfg_update
FNDA:0,_RNvXs3_NtNtNtCs8RRi2RJs6bh_14vass_reach_lib9automaton3cfg6updateNtNtNtB9_4vass7counter20VASSCounterValuationNtB5_19CFGCounterUpdatable22apply_cfg_update_times
FNDA:7,_RNCNvMNtNtNtCs8RRi2RJs6bh_14vass_reach_lib9automaton3cfg6updateNtB4_16CFGCounterUpdate8alphabet0Ba_
FNDA:7,_RNCNvMNtNtNtCs8RRi2RJs6bh_14vass_reach_lib9automaton3cfg6updateNtB4_16CFGCounterUpdate8alphabets_0Ba_
FNDA:4,_RNCNvMs2_NtNtNtCs8RRi2RJs6bh_14vass_reach_lib9automaton3cfg6updateNtB7_16CFGCounterUpdate15from_str_to_vec0Bd_
FNDA:4,_RNCNvNtNtNtCs8RRi2RJs6bh_14vass_reach_lib9automaton3cfg6updates_30test_cfg_counter_update_parser0B9_
FNDA:1,_RNvXs3_NtNtNtCs8RRi2RJs6bh_14vass_reach_lib9automaton3cfg6updateNtNtNtB9_4vass7counter20VASSCounterValuationNtB5_19CFGCounterUpdatable26apply_cfg_update_mod_slice
FNDA:1,_RNvMNtNtNtCs8RRi2RJs6bh_14vass_reach_lib9automaton3cfg6updateNtB2_16CFGCounterUpdate2op
FNDA:27,_RNvMNtNtNtCs8RRi2RJs6bh_14vass_reach_lib9automaton3cfg6updateNtB2_16CFGCounterUpdate3new
FNDA:1,_RNvMNtNtNtCs8RRi2RJs6bh_14vass_reach_lib9automaton3cfg6updateNtB2_16CFGCounterUpdate7counter
FNDA:3,_RNvMNtNtNtCs8RRi2RJs6bh_14vass_reach_lib9automaton3cfg6updateNtB2_16CFGCounterUpdate8alphabet
FNDA:1,_RNvMs2_NtNtNtCs8RRi2RJs6bh_14vass_reach_lib9automaton3cfg6updateNtB5_16CFGCounterUpdate15from_str_to_vec
FNDA:1,_RNvNtNtNtCs8RRi2RJs6bh_14vass_reach_lib9automaton3cfg6updates_30test_cfg_counter_update_parser
FNDA:0,_RNvXs0_NtNtNtCs8RRi2RJs6bh_14vass_reach_lib9automaton3cfg6updateNtB5_16CFGCounterUpdateNtNtCs7xuAoyMVi4A_4core3fmt5Debug3fmt
FNDA:8,_RNvXs1_NtNtNtCs8RRi2RJs6bh_14vass_reach_lib9automaton3cfg6updateNtB5_16CFGCounterUpdateNtNtNtCs7xuAoyMVi4A_4core3str6traits7FromStr8from_str
FNDA:8,_RNvXs_NtNtNtCs8RRi2RJs6bh_14vass_reach_lib9automaton3cfg6updateNtB4_16CFGCounterUpdateNtNtCs7xuAoyMVi4A_4core3fmt7Display3fmt
FNF:24
FNH:19
DA:32,3146
DA:33,3146
DA:34,3146
DA:35,3146
DA:36,3146
DA:37,3146
DA:39,83
DA:40,83
DA:41,83
DA:42,83
DA:43,83
DA:44,83
DA:46,83
DA:47,83
DA:48,83
DA:49,83
DA:50,83
DA:51,83
DA:53,0
DA:54,0
DA:55,0
DA:56,0
DA:57,0
DA:58,0
DA:60,0
DA:61,0
DA:62,0
DA:63,0
DA:64,0
DA:65,0
DA:67,1731
DA:68,1731
DA:69,1731
DA:70,1731
DA:71,1731
DA:72,1731
DA:77,403
DA:78,403
DA:79,1360
DA:80,1360
DA:81,403
DA:82,403
DA:85,23966
DA:86,23966
DA:87,23966
DA:90,23778
DA:91,23778
DA:92,23778
DA:95,188
DA:96,188
DA:97,188
DA:101,8
DA:102,8
DA:103,8
DA:105,8
DA:108,8
DA:112,0
DA:113,0
DA:114,0
DA:120,32
DA:121,32
DA:122,32
DA:123,32
DA:124,0
DA:126,32
DA:127,21
DA:128,11
DA:129,11
DA:131,0
DA:136,32
DA:137,32
DA:138,0
DA:140,32
DA:141,0
DA:142,32
DA:144,32
DA:145,32
DA:146,40
DA:147,40
DA:148,40
DA:149,40
DA:150,0
DA:157,40
DA:160,32
DA:161,32
DA:165,2
DA:166,28
DA:167,2
DA:171,1
DA:174,1
DA:175,1
DA:176,1
DA:177,1
DA:178,1
DA:179,1
DA:181,4
DA:182,4
DA:185,4
DA:187,1
DA:188,1
DA:189,1
DA:191,1
DA:202,84
DA:203,84
DA:204,84
DA:206,0
DA:207,0
DA:208,0
DA:210,23594
DA:211,23594
DA:212,23594
DA:213,23594
DA:215,1
DA:216,1
DA:217,1
DA:218,1
DA:220,0
DA:221,0
DA:222,0
DA:224,0
DA:226,0
BRF:0
BRH:0
LF:125
LH:97
end_of_record
SF:/home/lemon/src/rust-automata/packages/vass-reach-lib/src/automaton/cfg/vasscfg.rs
FN:78,_RNvMs_NtNtNtCs2hUxDLYgi0n_14vass_reach_lib9automaton3cfg7vasscfgINtNtB8_3dfa3DFAuNtNtB6_6update16CFGCounterUpdateE23reverse_counter_updatesBa_
FN:157,_RNvNtNtNtCs2hUxDLYgi0n_14vass_reach_lib9automaton3cfg7vasscfg25build_modulo_counting_cfg
FN:85,_RNvNtNtNtCs2hUxDLYgi0n_14vass_reach_lib9automaton3cfg7vasscfg26build_bounded_counting_cfg
FN:142,_RNvNtNtNtCs2hUxDLYgi0n_14vass_reach_lib9automaton3cfg7vasscfg30build_rev_bounded_counting_cfg
FN:25,_RNvMs_NtNtNtCs2hUxDLYgi0n_14vass_reach_lib9automaton3cfg7vasscfgINtNtB8_3dfa3DFApNtNtB6_6update16CFGCounterUpdateE12modulo_reachBa_
FN:173,_RNCNvNtNtNtCs2hUxDLYgi0n_14vass_reach_lib9automaton3cfg7vasscfg25build_modulo_counting_cfg0B9_
FN:111,_RNCNvNtNtNtCs2hUxDLYgi0n_14vass_reach_lib9automaton3cfg7vasscfg26build_bounded_counting_cfg0B9_
FN:25,_RNvMs_NtNtNtCs2hUxDLYgi0n_14vass_reach_lib9automaton3cfg7vasscfgINtNtB8_3dfa3DFAuNtNtB6_6update16CFGCounterUpdateE12modulo_reachCsR0JFDIskFR_16implicit_product
FN:25,_RNvMs_NtNtNtCs2hUxDLYgi0n_14vass_reach_lib9automaton3cfg7vasscfgINtNtB8_3dfa3DFAuNtNtB6_6update16CFGCounterUpdateE12modulo_reachCsdx2WVSQjOLl_3ltc
FN:173,_RNCNvNtNtNtCs8RRi2RJs6bh_14vass_reach_lib9automaton3cfg7vasscfg25build_modulo_counting_cfg0B9_
FN:111,_RNCNvNtNtNtCs8RRi2RJs6bh_14vass_reach_lib9automaton3cfg7vasscfg26build_bounded_counting_cfg0B9_
FN:25,_RNvMs_NtNtNtCs8RRi2RJs6bh_14vass_reach_lib9automaton3cfg7vasscfgINtNtB8_3dfa3DFApNtNtB6_6update16CFGCounterUpdateE12modulo_reachBa_
FN:78,_RNvMs_NtNtNtCs8RRi2RJs6bh_14vass_reach_lib9automaton3cfg7vasscfgINtNtB8_3dfa3DFApNtNtB6_6update16CFGCounterUpdateE23reverse_counter_updatesBa_
FN:157,_RNvNtNtNtCs8RRi2RJs6bh_14vass_reach_lib9automaton3cfg7vasscfg25build_modulo_counting_cfg
FN:85,_RNvNtNtNtCs8RRi2RJs6bh_14vass_reach_lib9automaton3cfg7vasscfg26build_bounded_counting_cfg
FN:142,_RNvNtNtNtCs8RRi2RJs6bh_14vass_reach_lib9automaton3cfg7vasscfg30build_rev_bounded_counting_cfg
FNDA:28,_RNvMs_NtNtNtCs2hUxDLYgi0n_14vass_reach_lib9automaton3cfg7vasscfgINtNtB8_3dfa3DFAuNtNtB6_6update16CFGCounterUpdateE23reverse_counter_updatesBa_
FNDA:27,_RNvNtNtNtCs2hUxDLYgi0n_14vass_reach_lib9automaton3cfg7vasscfg25build_modulo_counting_cfg
FNDA:56,_RNvNtNtNtCs2hUxDLYgi0n_14vass_reach_lib9automaton3cfg7vasscfg26build_bounded_counting_cfg
FNDA:28,_RNvNtNtNtCs2hUxDLYgi0n_14vass_reach_lib9automaton3cfg7vasscfg30build_rev_bounded_counting_cfg
FNDA:0,_RNvMs_NtNtNtCs2hUxDLYgi0n_14vass_reach_lib9automaton3cfg7vasscfgINtNtB8_3dfa3DFApNtNtB6_6update16CFGCounterUpdateE12modulo_reachBa_
FNDA:54,_RNCNvNtNtNtCs2hUxDLYgi0n_14vass_reach_lib9automaton3cfg7vasscfg25build_modulo_counting_cfg0B9_
FNDA:172,_RNCNvNtNtNtCs2hUxDLYgi0n_14vass_reach_lib9automaton3cfg7vasscfg26build_bounded_counting_cfg0B9_
FNDA:1,_RNvMs_NtNtNtCs2hUxDLYgi0n_14vass_reach_lib9automaton3cfg7vasscfgINtNtB8_3dfa3DFAuNtNtB6_6update16CFGCounterUpdateE12modulo_reachCsR0JFDIskFR_16implicit_product
FNDA:2,_RNvMs_NtNtNtCs2hUxDLYgi0n_14vass_reach_lib9automaton3cfg7vasscfgINtNtB8_3dfa3DFAuNtNtB6_6update16CFGCounterUpdateE12modulo_reachCsdx2WVSQjOLl_3ltc
FNDA:0,_RNCNvNtNtNtCs8RRi2RJs6bh_14vass_reach_lib9automaton3cfg7vasscfg25build_modulo_counting_cfg0B9_
FNDA:0,_RNCNvNtNtNtCs8RRi2RJs6bh_14vass_reach_lib9automaton3cfg7vasscfg26build_bounded_counting_cfg0B9_
FNDA:0,_RNvMs_NtNtNtCs8RRi2RJs6bh_14vass_reach_lib9automaton3cfg7vasscfgINtNtB8_3dfa3DFApNtNtB6_6update16CFGCounterUpdateE12modulo_reachBa_
FNDA:0,_RNvMs_NtNtNtCs8RRi2RJs6bh_14vass_reach_lib9automaton3cfg7vasscfgINtNtB8_3dfa3DFApNtNtB6_6update16CFGCounterUpdateE23reverse_counter_updatesBa_
FNDA:0,_RNvNtNtNtCs8RRi2RJs6bh_14vass_reach_lib9automaton3cfg7vasscfg25build_modulo_counting_cfg
FNDA:0,_RNvNtNtNtCs8RRi2RJs6bh_14vass_reach_lib9automaton3cfg7vasscfg26build_bounded_counting_cfg
FNDA:0,_RNvNtNtNtCs8RRi2RJs6bh_14vass_reach_lib9automaton3cfg7vasscfg30build_rev_bounded_counting_cfg
FNF:7
FNH:7
DA:25,3
DA:26,3
DA:27,3
DA:28,3
DA:29,3
DA:30,3
DA:32,3
DA:33,3
DA:34,3
DA:35,3
DA:36,3
DA:37,3
DA:39,3
DA:40,3
DA:41,3
DA:42,0
DA:43,3
DA:45,3
DA:46,3
DA:48,4014
DA:49,4013
DA:51,23594
DA:52,23594
DA:54,23594
DA:55,23594
DA:57,23594
DA:59,23594
DA:60,4066
DA:61,4066
DA:63,4066
DA:67,2
DA:68,4064
DA:69,4064
DA:70,4064
DA:71,19528
DA:75,1
DA:76,3
DA:78,28
DA:79,1730
DA:80,1730
DA:81,1730
DA:82,28
DA:85,56
DA:86,56
DA:87,56
DA:88,56
DA:89,56
DA:90,56
DA:91,56
DA:96,56
DA:97,56
DA:99,56
DA:101,56
DA:102,56
DA:105,392
DA:106,392
DA:107,392
DA:108,392
DA:110,56
DA:111,172
DA:112,56
DA:114,172
DA:115,172
DA:116,172
DA:117,172
DA:118,172
DA:119,172
DA:123,1196
DA:124,1196
DA:125,852
DA:126,852
DA:129,172
DA:130,56
DA:131,116
DA:135,56
DA:137,56
DA:139,56
DA:140,56
DA:142,28
DA:143,28
DA:144,28
DA:145,28
DA:146,28
DA:147,28
DA:148,28
DA:149,28
DA:151,28
DA:152,28
DA:154,28
DA:155,28
DA:157,27
DA:158,27
DA:159,27
DA:160,27
DA:161,27
DA:162,27
DA:163,27
DA:164,27
DA:165,27
DA:167,27
DA:168,27
DA:170,27
DA:172,27
DA:173,54
DA:175,54
DA:176,54
DA:178,54
DA:179,54
DA:180,54
DA:181,54
DA:183,54
DA:184,54
DA:188,388
DA:189,388
DA:190,280
DA:191,280
DA:195,27
DA:198,27
DA:200,27
DA:202,27
DA:203,27
BRF:0
BRH:0
LF:123
LH:121
end_of_record
SF:/home/lemon/src/rust-automata/packages/vass-reach-lib/src/automaton/dfa/minimization.rs
FN:272,_RNvXs0_NtNtNtCs2hUxDLYgi0n_14vass_reach_lib9automaton3dfa12minimizationINtB7_3DFAmcENtB5_11Minimizable8minimizeCs43NobSSaLSd_3dfa
FN:272,_RNvXs0_NtNtNtCs2hUxDLYgi0n_14vass_reach_lib9automaton3dfa12minimizationINtB7_3DFAmlENtB5_11Minimizable8minimizeCs43NobSSaLSd_3dfa
FN:47,_RNCNvMNtNtNtCs2hUxDLYgi0n_14vass_reach_lib9automaton3dfa12minimizationINtB4_20DfaMinimizationTablemcE13iter_mut_some0Cs43NobSSaLSd_3dfa
FN:29,_RNCNvMNtNtNtCs2hUxDLYgi0n_14vass_reach_lib9automaton3dfa12minimizationINtB4_20DfaMinimizationTablemcE3new0Cs43NobSSaLSd_3dfa
FN:42,_RNCNvMNtNtNtCs2hUxDLYgi0n_14vass_reach_lib9automaton3dfa12minimizationINtB4_20DfaMinimizationTablemcE9iter_some0Cs43NobSSaLSd_3dfa
FN:47,_RNCNvMNtNtNtCs2hUxDLYgi0n_14vass_reach_lib9automaton3dfa12minimizationINtB4_20DfaMinimizationTablemlE13iter_mut_some0Cs43NobSSaLSd_3dfa
FN:29,_RNCNvMNtNtNtCs2hUxDLYgi0n_14vass_reach_lib9automaton3dfa12minimizationINtB4_20DfaMinimizationTablemlE3new0Cs43NobSSaLSd_3dfa
FN:42,_RNCNvMNtNtNtCs2hUxDLYgi0n_14vass_reach_lib9automaton3dfa12minimizationINtB4_20DfaMinimizationTablemlE9iter_some0Cs43NobSSaLSd_3dfa
FN:295,_RNCNvXs0_NtNtNtCs2hUxDLYgi0n_14vass_reach_lib9automaton3dfa12minimizationINtB9_3DFAmcENtB7_11Minimizable8minimize0Cs43NobSSaLSd_3dfa
FN:296,_RNCNvXs0_NtNtNtCs2hUxDLYgi0n_14vass_reach_lib9automaton3dfa12minimizationINtB9_3DFAmcENtB7_11Minimizable8minimizes_0Cs43NobSSaLSd_3dfa
FN:295,_RNCNvXs0_NtNtNtCs2hUxDLYgi0n_14vass_reach_lib9automaton3dfa12minimizationINtB9_3DFAmlENtB7_11Minimizable8minimize0Cs43NobSSaLSd_3dfa
FN:296,_RNCNvXs0_NtNtNtCs2hUxDLYgi0n_14vass_reach_lib9automaton3dfa12minimizationINtB9_3DFAmlENtB7_11Minimizable8minimizes_0Cs43NobSSaLSd_3dfa
FN:46,_RNvMNtNtNtCs2hUxDLYgi0n_14vass_reach_lib9automaton3dfa12minimizationINtB2_20DfaMinimizationTablemcE13iter_mut_someCs43NobSSaLSd_3dfa
FN:142,_RNvMNtNtNtCs2hUxDLYgi0n_14vass_reach_lib9automaton3dfa12minimizationINtB2_20DfaMinimizationTablemcE22find_equivalent_statesCs43NobSSaLSd_3dfa
FN:25,_RNvMNtNtNtCs2hUxDLYgi0n_14vass_reach_lib9automaton3dfa12minimizationINtB2_20DfaMinimizationTablemcE3newCs43NobSSaLSd_3dfa
FN:103,_RNvMNtNtNtCs2hUxDLYgi0n_14vass_reach_lib9automaton3dfa12minimizationINtB2_20DfaMinimizationTablemcE6to_dfaCs43NobSSaLSd_3dfa
FN:56,_RNvMNtNtNtCs2hUxDLYgi0n_14vass_reach_lib9automaton3dfa12minimizationINtB2_20DfaMinimizationTablemcE8minimizeCs43NobSSaLSd_3dfa
FN:52,_RNvMNtNtNtCs2hUxDLYgi0n_14vass_reach_lib9automaton3dfa12minimizationINtB2_20DfaMinimizationTablemcE9add_entryCs43NobSSaLSd_3dfa
FN:41,_RNvMNtNtNtCs2hUxDLYgi0n_14vass_reach_lib9automaton3dfa12minimizationINtB2_20DfaMinimizationTablemcE9iter_someCs43NobSSaLSd_3dfa
FN:46,_RNvMNtNtNtCs2hUxDLYgi0n_14vass_reach_lib9automaton3dfa12minimizationINtB2_20DfaMinimizationTablemlE13iter_mut_someCs43NobSSaLSd_3dfa
FN:142,_RNvMNtNtNtCs2hUxDLYgi0n_14vass_reach_lib9automaton3dfa12minimizationINtB2_20DfaMinimizationTablemlE22find_equivalent_statesCs43NobSSaLSd_3dfa
FN:25,_RNvMNtNtNtCs2hUxDLYgi0n_14vass_reach_lib9automaton3dfa12minimizationINtB2_20DfaMinimizationTablemlE3newCs43NobSSaLSd_3dfa
FN:103,_RNvMNtNtNtCs2hUxDLYgi0n_14vass_reach_lib9automaton3dfa12minimizationINtB2_20DfaMinimizationTablemlE6to_dfaCs43NobSSaLSd_3dfa
FN:56,_RNvMNtNtNtCs2hUxDLYgi0n_14vass_reach_lib9automaton3dfa12minimizationINtB2_20DfaMinimizationTablemlE8minimizeCs43NobSSaLSd_3dfa
FN:52,_RNvMNtNtNtCs2hUxDLYgi0n_14vass_reach_lib9automaton3dfa12minimizationINtB2_20DfaMinimizationTablemlE9add_entryCs43NobSSaLSd_3dfa
FN:41,_RNvMNtNtNtCs2hUxDLYgi0n_14vass_reach_lib9automaton3dfa12minimizationINtB2_20DfaMinimizationTablemlE9iter_someCs43NobSSaLSd_3dfa
FN:262,_RNvMs_NtNtNtCs2hUxDLYgi0n_14vass_reach_lib9automaton3dfa12minimizationINtB4_25DfaMinimizationTableEntrymE14add_transitionCs43NobSSaLSd_3dfa
FN:252,_RNvMs_NtNtNtCs2hUxDLYgi0n_14vass_reach_lib9automaton3dfa12minimizationINtB4_25DfaMinimizationTableEntrymE3newCs43NobSSaLSd_3dfa
FN:47,_RNCNvMNtNtNtCs2hUxDLYgi0n_14vass_reach_lib9automaton3dfa12minimizationINtB4_20DfaMinimizationTableppE13iter_mut_some0Ba_
FN:29,_RNCNvMNtNtNtCs2hUxDLYgi0n_14vass_reach_lib9automaton3dfa12minimizationINtB4_20DfaMinimizationTableppE3new0Ba_
FN:42,_RNCNvMNtNtNtCs2hUxDLYgi0n_14vass_reach_lib9automaton3dfa12minimizationINtB4_20DfaMinimizationTableppE9iter_some0Ba_
FN:295,_RNCNvXININtNtNtCs2hUxDLYgi0n_14vass_reach_lib9automaton3dfa12minimizations0_0ppEINtB9_3DFAppENtB7_11Minimizable8minimize0Bd_
FN:296,_RNCNvXININtNtNtCs2hUxDLYgi0n_14vass_reach_lib9automaton3dfa12minimizations0_0ppEINtB9_3DFAppENtB7_11Minimizable8minimizes_0Bd_
FN:46,_RNvMNtNtNtCs2hUxDLYgi0n_14vass_reach_lib9automaton3dfa12minimizationINtB2_20DfaMinimizationTableppE13iter_mut_someB8_
FN:142,_RNvMNtNtNtCs2hUxDLYgi0n_14vass_reach_lib9automaton3dfa12minimizationINtB2_20DfaMinimizationTableppE22find_equivalent_statesB8_
FN:25,_RNvMNtNtNtCs2hUxDLYgi0n_14vass_reach_lib9automaton3dfa12minimizationINtB2_20DfaMinimizationTableppE3newB8_
FN:103,_RNvMNtNtNtCs2hUxDLYgi0n_14vass_reach_lib9automaton3dfa12minimizationINtB2_20DfaMinimizationTableppE6to_dfaB8_
FN:56,_RNvMNtNtNtCs2hUxDLYgi0n_14vass_reach_lib9automaton3dfa12minimizationINtB2_20DfaMinimizationTableppE8minimizeB8_
FN:52,_RNvMNtNtNtCs2hUxDLYgi0n_14vass_reach_lib9automaton3dfa12minimizationINtB2_20DfaMinimizationTableppE9add_entryB8_
FN:41,_RNvMNtNtNtCs2hUxDLYgi0n_14vass_reach_lib9automaton3dfa12minimizationINtB2_20DfaMinimizationTableppE9iter_someB8_
FN:262,_RNvMs_NtNtNtCs2hUxDLYgi0n_14vass_reach_lib9automaton3dfa12minimizationINtB4_25DfaMinimizationTableEntrypE14add_transitionBa_
FN:252,_RNvMs_NtNtNtCs2hUxDLYgi0n_14vass_reach_lib9automaton3dfa12minimizationINtB4_25DfaMinimizationTableEntrypE3newBa_
FN:272,_RNvXININtNtNtCs2hUxDLYgi0n_14vass_reach_lib9automaton3dfa12minimizations0_0ppEINtB7_3DFAppENtB5_11Minimizable8minimizeBb_
FN:47,_RNCNvMNtNtNtCs2hUxDLYgi0n_14vass_reach_lib9automaton3dfa12minimizationINtB4_20DfaMinimizationTableuNtNtNtB8_3cfg6update16CFGCounterUpdateE13iter_mut_some0CsgHwEJVtWcfn_14petri_net_spec
FN:29,_RNCNvMNtNtNtCs2hUxDLYgi0n_14vass_reach_lib9automaton3dfa12minimizationINtB4_20DfaMinimizationTableuNtNtNtB8_3cfg6update16CFGCounterUpdateE3new0CsgHwEJVtWcfn_14petri_net_spec
FN:42,_RNCNvMNtNtNtCs2hUxDLYgi0n_14vass_reach_lib9automaton3dfa12minimizationINtB4_20DfaMinimizationTableuNtNtNtB8_3cfg6update16CFGCounterUpdateE9iter_some0CsgHwEJVtWcfn_14petri_net_spec
FN:295,_RNCNvXs0_NtNtNtCs2hUxDLYgi0n_14vass_reach_lib9automaton3dfa12minimizationINtB9_3DFAuNtNtNtBb_3cfg6update16CFGCounterUpdateENtB7_11Minimizable8minimize0CsgHwEJVtWcfn_14petri_net_spec
FN:296,_RNCNvXs0_NtNtNtCs2hUxDLYgi0n_14vass_reach_lib9automaton3dfa12minimizationINtB9_3DFAuNtNtNtBb_3cfg6update16CFGCounterUpdateENtB7_11Minimizable8minimizes_0CsgHwEJVtWcfn_14petri_net_spec
FN:46,_RNvMNtNtNtCs2hUxDLYgi0n_14vass_reach_lib9automaton3dfa12minimizationINtB2_20DfaMinimizationTableuNtNtNtB6_3cfg6update16CFGCounterUpdateE13iter_mut_someCsgHwEJVtWcfn_14petri_net_spec
FN:142,_RNvMNtNtNtCs2hUxDLYgi0n_14vass_reach_lib9automaton3dfa12minimizationINtB2_20DfaMinimizationTableuNtNtNtB6_3cfg6update16CFGCounterUpdateE22find_equivalent_statesCsgHwEJVtWcfn_14petri_net_spec
FN:25,_RNvMNtNtNtCs2hUxDLYgi0n_14vass_reach_lib9automaton3dfa12minimizationINtB2_20DfaMinimizationTableuNtNtNtB6_3cfg6update16CFGCounterUpdateE3newCsgHwEJVtWcfn_14petri_net_spec
FN:103,_RNvMNtNtNtCs2hUxDLYgi0n_14vass_reach_lib9automaton3dfa12minimizationINtB2_20DfaMinimizationTableuNtNtNtB6_3cfg6update16CFGCounterUpdateE6to_dfaCsgHwEJVtWcfn_14petri_net_spec
FN:56,_RNvMNtNtNtCs2hUxDLYgi0n_14vass_reach_lib9automaton3dfa12minimizationINtB2_20DfaMinimizationTableuNtNtNtB6_3cfg6update16CFGCounterUpdateE8minimizeCsgHwEJVtWcfn_14petri_net_spec
FN:52,_RNvMNtNtNtCs2hUxDLYgi0n_14vass_reach_lib9automaton3dfa12minimizationINtB2_20DfaMinimizationTableuNtNtNtB6_3cfg6update16CFGCounterUpdateE9add_entryCsgHwEJVtWcfn_14petri_net_spec
FN:41,_RNvMNtNtNtCs2hUxDLYgi0n_14vass_reach_lib9automaton3dfa12minimizationINtB2_20DfaMinimizationTableuNtNtNtB6_3cfg6update16CFGCounterUpdateE9iter_someCsgHwEJVtWcfn_14petri_net_spec
FN:262,_RNvMs_NtNtNtCs2hUxDLYgi0n_14vass_reach_lib9automaton3dfa12minimizationINtB4_25DfaMinimizationTableEntryuE14add_transitionCsgHwEJVtWcfn_14petri_net_spec
FN:252,_RNvMs_NtNtNtCs2hUxDLYgi0n_14vass_reach_lib9automaton3dfa12minimizationINtB4_25DfaMinimizationTableEntryuE3newCsgHwEJVtWcfn_14petri_net_spec
FN:272,_RNvXs0_NtNtNtCs2hUxDLYgi0n_14vass_reach_lib9automaton3dfa12minimizationINtB7_3DFAuNtNtNtB9_3cfg6update16CFGCounterUpdateENtB5_11Minimizable8minimizeCsgHwEJVtWcfn_14petri_net_spec
FN:47,_RNCNvMNtNtNtCs2hUxDLYgi0n_14vass_reach_lib9automaton3dfa12minimizationINtB4_20DfaMinimizationTableuNtNtNtB8_3cfg6update16CFGCounterUpdateE13iter_mut_some0CsaYjQXJDQq9v_12vass_n_reach
FN:29,_RNCNvMNtNtNtCs2hUxDLYgi0n_14vass_reach_lib9automaton3dfa12minimizationINtB4_20DfaMinimizationTableuNtNtNtB8_3cfg6update16CFGCounterUpdateE3new0CsaYjQXJDQq9v_12vass_n_reach
FN:42,_RNCNvMNtNtNtCs2hUxDLYgi0n_14vass_reach_lib9automaton3dfa12minimizationINtB4_20DfaMinimizationTableuNtNtNtB8_3cfg6update16CFGCounterUpdateE9iter_some0CsaYjQXJDQq9v_12vass_n_reach
FN:295,_RNCNvXs0_NtNtNtCs2hUxDLYgi0n_14vass_reach_lib9automaton3dfa12minimizationINtB9_3DFAuNtNtNtBb_3cfg6update16CFGCounterUpdateENtB7_11Minimizable8minimize0CsaYjQXJDQq9v_12vass_n_reach
FN:296,_RNCNvXs0_NtNtNtCs2hUxDLYgi0n_14vass_reach_lib9automaton3dfa12minimizationINtB9_3DFAuNtNtNtBb_3cfg6update16CFGCounterUpdateENtB7_11Minimizable8minimizes_0CsaYjQXJDQq9v_12vass_n_reach
FN:46,_RNvMNtNtNtCs2hUxDLYgi0n_14vass_reach_lib9automaton3dfa12minimizationINtB2_20DfaMinimizationTableuNtNtNtB6_3cfg6update16CFGCounterUpdateE13iter_mut_someCsaYjQXJDQq9v_12vass_n_reach
FN:142,_RNvMNtNtNtCs2hUxDLYgi0n_14vass_reach_lib9automaton3dfa12minimizationINtB2_20DfaMinimizationTableuNtNtNtB6_3cfg6update16CFGCounterUpdateE22find_equivalent_statesCsaYjQXJDQq9v_12vass_n_reach
FN:25,_RNvMNtNtNtCs2hUxDLYgi0n_14vass_reach_lib9automaton3dfa12minimizationINtB2_20DfaMinimizationTableuNtNtNtB6_3cfg6update16CFGCounterUpdateE3newCsaYjQXJDQq9v_12vass_n_reach
FN:103,_RNvMNtNtNtCs2hUxDLYgi0n_14vass_reach_lib9automaton3dfa12minimizationINtB2_20DfaMinimizationTableuNtNtNtB6_3cfg6update16CFGCounterUpdateE6to_dfaCsaYjQXJDQq9v_12vass_n_reach
FN:56,_RNvMNtNtNtCs2hUxDLYgi0n_14vass_reach_lib9automaton3dfa12minimizationINtB2_20DfaMinimizationTableuNtNtNtB6_3cfg6update16CFGCounterUpdateE8minimizeCsaYjQXJDQq9v_12vass_n_reach
FN:52,_RNvMNtNtNtCs2hUxDLYgi0n_14vass_reach_lib9automaton3dfa12minimizationINtB2_20DfaMinimizationTableuNtNtNtB6_3cfg6update16CFGCounterUpdateE9add_entryCsaYjQXJDQq9v_12vass_n_reach
FN:41,_RNvMNtNtNtCs2hUxDLYgi0n_14vass_reach_lib9automaton3dfa12minimizationINtB2_20DfaMinimizationTableuNtNtNtB6_3cfg6update16CFGCounterUpdateE9iter_someCsaYjQXJDQq9v_12vass_n_reach
FN:262,_RNvMs_NtNtNtCs2hUxDLYgi0n_14vass_reach_lib9automaton3dfa12minimizationINtB4_25DfaMinimizationTableEntryuE14add_transitionCsaYjQXJDQq9v_12vass_n_reach
FN:252,_RNvMs_NtNtNtCs2hUxDLYgi0n_14vass_reach_lib9automaton3dfa12minimizationINtB4_25DfaMinimizationTableEntryuE3newCsaYjQXJDQq9v_12vass_n_reach
FN:272,_RNvXs0_NtNtNtCs2hUxDLYgi0n_14vass_reach_lib9automaton3dfa12minimizationINtB7_3DFAuNtNtNtB9_3cfg6update16CFGCounterUpdateENtB5_11Minimizable8minimizeCsaYjQXJDQq9v_12vass_n_reach
FN:47,_RNCNvMNtNtNtCs8RRi2RJs6bh_14vass_reach_lib9automaton3dfa12minimizationINtB4_20DfaMinimizationTableppE13iter_mut_some0Ba_
FN:29,_RNCNvMNtNtNtCs8RRi2RJs6bh_14vass_reach_lib9automaton3dfa12minimizationINtB4_20DfaMinimizationTableppE3new0Ba_
FN:42,_RNCNvMNtNtNtCs8RRi2RJs6bh_14vass_reach_lib9automaton3dfa12minimizationINtB4_20DfaMinimizationTableppE9iter_some0Ba_
FN:295,_RNCNvXININtNtNtCs8RRi2RJs6bh_14vass_reach_lib9automaton3dfa12minimizations0_0ppEINtB9_3DFAppENtB7_11Minimizable8minimize0Bd_
FN:296,_RNCNvXININtNtNtCs8RRi2RJs6bh_14vass_reach_lib9automaton3dfa12minimizations0_0ppEINtB9_3DFAppENtB7_11Minimizable8minimizes_0Bd_
FN:46,_RNvMNtNtNtCs8RRi2RJs6bh_14vass_reach_lib9automaton3dfa12minimizationINtB2_20DfaMinimizationTableppE13iter_mut_someB8_
FN:142,_RNvMNtNtNtCs8RRi2RJs6bh_14vass_reach_lib9automaton3dfa12minimizationINtB2_20DfaMinimizationTableppE22find_equivalent_statesB8_
FN:25,_RNvMNtNtNtCs8RRi2RJs6bh_14vass_reach_lib9automaton3dfa12minimizationINtB2_20DfaMinimizationTableppE3newB8_
FN:103,_RNvMNtNtNtCs8RRi2RJs6bh_14vass_reach_lib9automaton3dfa12minimizationINtB2_20DfaMinimizationTableppE6to_dfaB8_
FN:56,_RNvMNtNtNtCs8RRi2RJs6bh_14vass_reach_lib9automaton3dfa12minimizationINtB2_20DfaMinimizationTableppE8minimizeB8_
FN:52,_RNvMNtNtNtCs8RRi2RJs6bh_14vass_reach_lib9automaton3dfa12minimizationINtB2_20DfaMinimizationTableppE9add_entryB8_
FN:41,_RNvMNtNtNtCs8RRi2RJs6bh_14vass_reach_lib9automaton3dfa12minimizationINtB2_20DfaMinimizationTableppE9iter_someB8_
FN:262,_RNvMs_NtNtNtCs8RRi2RJs6bh_14vass_reach_lib9automaton3dfa12minimizationINtB4_25DfaMinimizationTableEntrypE14add_transitionBa_
FN:252,_RNvMs_NtNtNtCs8RRi2RJs6bh_14vass_reach_lib9automaton3dfa12minimizationINtB4_25DfaMinimizationTableEntrypE3newBa_
FN:272,_RNvXININtNtNtCs8RRi2RJs6bh_14vass_reach_lib9automaton3dfa12minimizations0_0ppEINtB7_3DFAppENtB5_11Minimizable8minimizeBb_
FN:47,_RNCNvMNtNtNtCs2hUxDLYgi0n_14vass_reach_lib9automaton3dfa12minimizationINtB4_20DfaMinimizationTableuNtNtNtB8_3cfg6update16CFGCounterUpdateE13iter_mut_some0CseoIxkIhB6T8_12vass_z_reach
FN:29,_RNCNvMNtNtNtCs2hUxDLYgi0n_14vass_reach_lib9automaton3dfa12minimizationINtB4_20DfaMinimizationTableuNtNtNtB8_3cfg6update16CFGCounterUpdateE3new0CseoIxkIhB6T8_12vass_z_reach
FN:42,_RNCNvMNtNtNtCs2hUxDLYgi0n_14vass_reach_lib9automaton3dfa12minimizationINtB4_20DfaMinimizationTableuNtNtNtB8_3cfg6update16CFGCounterUpdateE9iter_some0CseoIxkIhB6T8_12vass_z_reach
FN:295,_RNCNvXs0_NtNtNtCs2hUxDLYgi0n_14vass_reach_lib9automaton3dfa12minimizationINtB9_3DFAuNtNtNtBb_3cfg6update16CFGCounterUpdateENtB7_11Minimizable8minimize0CseoIxkIhB6T8_12vass_z_reach
FN:296,_RNCNvXs0_NtNtNtCs2hUxDLYgi0n_14vass_reach_lib9automaton3dfa12minimizationINtB9_3DFAuNtNtNtBb_3cfg6update16CFGCounterUpdateENtB7_11Minimizable8minimizes_0CseoIxkIhB6T8_12vass_z_reach
FN:46,_RNvMNtNtNtCs2hUxDLYgi0n_14vass_reach_lib9automaton3dfa12minimizationINtB2_20DfaMinimizationTableuNtNtNtB6_3cfg6update16CFGCounterUpdateE13iter_mut_someCseoIxkIhB6T8_12vass_z_reach
FN:142,_RNvMNtNtNtCs2hUxDLYgi0n_14vass_reach_lib9automaton3dfa12minimizationINtB2_20DfaMinimizationTableuNtNtNtB6_3cfg6update16CFGCounterUpdateE22find_equivalent_statesCseoIxkIhB6T8_12vass_z_reach
FN:25,_RNvMNtNtNtCs2hUxDLYgi0n_14vass_reach_lib9automaton3dfa12minimizationINtB2_20DfaMinimizationTableuNtNtNtB6_3cfg6update16CFGCounterUpdateE3newCseoIxkIhB6T8_12vass_z_reach
FN:103,_RNvMNtNtNtCs2hUxDLYgi0n_14vass_reach_lib9automaton3dfa12minimizationINtB2_20DfaMinimizationTableuNtNtNtB6_3cfg6update16CFGCounterUpdateE6to_dfaCseoIxkIhB6T8_12vass_z_reach
FN:56,_RNvMNtNtNtCs2hUxDLYgi0n_14vass_reach_lib9automaton3dfa12minimizationINtB2_20DfaMinimizationTableuNtNtNtB6_3cfg6update16CFGCounterUpdateE8minimizeCseoIxkIhB6T8_12vass_z_reach
FN:52,_RNvMNtNtNtCs2hUxDLYgi0n_14vass_reach_lib9automaton3dfa12minimizationINtB2_20DfaMinimizationTableuNtNtNtB6_3cfg6update16CFGCounterUpdateE9add_entryCseoIxkIhB6T8_12vass_z_reach
FN:41,_RNvMNtNtNtCs2hUxDLYgi0n_14vass_reach_lib9automaton3dfa12minimizationINtB2_20DfaMinimizationTableuNtNtNtB6_3cfg6update16CFGCounterUpdateE9iter_someCseoIxkIhB6T8_12vass_z_reach
FN:262,_RNvMs_NtNtNtCs2hUxDLYgi0n_14vass_reach_lib9automaton3dfa12minimizationINtB4_25DfaMinimizationTableEntryuE14add_transitionCseoIxkIhB6T8_12vass_z_reach
FN:252,_RNvMs_NtNtNtCs2hUxDLYgi0n_14vass_reach_lib9automaton3dfa12minimizationINtB4_25DfaMinimizationTableEntryuE3newCseoIxkIhB6T8_12vass_z_reach
FN:272,_RNvXs0_NtNtNtCs2hUxDLYgi0n_14vass_reach_lib9automaton3dfa12minimizationINtB7_3DFAuNtNtNtB9_3cfg6update16CFGCounterUpdateENtB5_11Minimizable8minimizeCseoIxkIhB6T8_12vass_z_reach
FNDA:4,_RNvXs0_NtNtNtCs2hUxDLYgi0n_14vass_reach_lib9automaton3dfa12minimizationINtB7_3DFAmcENtB5_11Minimizable8minimizeCs43NobSSaLSd_3dfa
FNDA:1,_RNvXs0_NtNtNtCs2hUxDLYgi0n_14vass_reach_lib9automaton3dfa12minimizationINtB7_3DFAmlENtB5_11Minimizable8minimizeCs43NobSSaLSd_3dfa
FNDA:34,_RNCNvMNtNtNtCs2hUxDLYgi0n_14vass_reach_lib9automaton3dfa12minimizationINtB4_20DfaMinimizationTablemcE13iter_mut_some0Cs43NobSSaLSd_3dfa
FNDA:19,_RNCNvMNtNtNtCs2hUxDLYgi0n_14vass_reach_lib9automaton3dfa12minimizationINtB4_20DfaMinimizationTablemcE3new0Cs43NobSSaLSd_3dfa
FNDA:387,_RNCNvMNtNtNtCs2hUxDLYgi0n_14vass_reach_lib9automaton3dfa12minimizationINtB4_20DfaMinimizationTablemcE9iter_some0Cs43NobSSaLSd_3dfa
FNDA:27,_RNCNvMNtNtNtCs2hUxDLYgi0n_14vass_reach_lib9automaton3dfa12minimizationINtB4_20DfaMinimizationTablemlE13iter_mut_some0Cs43NobSSaLSd_3dfa
FNDA:9,_RNCNvMNtNtNtCs2hUxDLYgi0n_14vass_reach_lib9automaton3dfa12minimizationINtB4_20DfaMinimizationTablemlE3new0Cs43NobSSaLSd_3dfa
FNDA:657,_RNCNvMNtNtNtCs2hUxDLYgi0n_14vass_reach_lib9automaton3dfa12minimizationINtB4_20DfaMinimizationTablemlE9iter_some0Cs43NobSSaLSd_3dfa
FNDA:64,_RNCNvXs0_NtNtNtCs2hUxDLYgi0n_14vass_reach_lib9automaton3dfa12minimizationINtB9_3DFAmcENtB7_11Minimizable8minimize0Cs43NobSSaLSd_3dfa
FNDA:36,_RNCNvXs0_NtNtNtCs2hUxDLYgi0n_14vass_reach_lib9automaton3dfa12minimizationINtB9_3DFAmcENtB7_11Minimizable8minimizes_0Cs43NobSSaLSd_3dfa
FNDA:90,_RNCNvXs0_NtNtNtCs2hUxDLYgi0n_14vass_reach_lib9automaton3dfa12minimizationINtB9_3DFAmlENtB7_11Minimizable8minimize0Cs43NobSSaLSd_3dfa
FNDA:36,_RNCNvXs0_NtNtNtCs2hUxDLYgi0n_14vass_reach_lib9automaton3dfa12minimizationINtB9_3DFAmlENtB7_11Minimizable8minimizes_0Cs43NobSSaLSd_3dfa
FNDA:7,_RNvMNtNtNtCs2hUxDLYgi0n_14vass_reach_lib9automaton3dfa12minimizationINtB2_20DfaMinimizationTablemcE13iter_mut_someCs43NobSSaLSd_3dfa
FNDA:4,_RNvMNtNtNtCs2hUxDLYgi0n_14vass_reach_lib9automaton3dfa12minimizationINtB2_20DfaMinimizationTablemcE22find_equivalent_statesCs43NobSSaLSd_3dfa
FNDA:4,_RNvMNtNtNtCs2hUxDLYgi0n_14vass_reach_lib9automaton3dfa12minimizationINtB2_20DfaMinimizationTablemcE3newCs43NobSSaLSd_3dfa
FNDA:4,_RNvMNtNtNtCs2hUxDLYgi0n_14vass_reach_lib9automaton3dfa12minimizationINtB2_20DfaMinimizationTablemcE6to_dfaCs43NobSSaLSd_3dfa
FNDA:4,_RNvMNtNtNtCs2hUxDLYgi0n_14vass_reach_lib9automaton3dfa12minimizationINtB2_20DfaMinimizationTablemcE8minimizeCs43NobSSaLSd_3dfa
FNDA:17,_RNvMNtNtNtCs2hUxDLYgi0n_14vass_reach_lib9automaton3dfa12minimizationINtB2_20DfaMinimizationTablemcE9add_entryCs43NobSSaLSd_3dfa
FNDA:86,_RNvMNtNtNtCs2hUxDLYgi0n_14vass_reach_lib9automaton3dfa12minimizationINtB2_20DfaMinimizationTablemcE9iter_someCs43NobSSaLSd_3dfa
FNDA:3,_RNvMNtNtNtCs2hUxDLYgi0n_14vass_reach_lib9automaton3dfa12minimizationINtB2_20DfaMinimizationTablemlE13iter_mut_someCs43NobSSaLSd_3dfa
FNDA:1,_RNvMNtNtNtCs2hUxDLYgi0n_14vass_reach_lib9automaton3dfa12minimizationINtB2_20DfaMinimizationTablemlE22find_equivalent_statesCs43NobSSaLSd_3dfa
FNDA:1,_RNvMNtNtNtCs2hUxDLYgi0n_14vass_reach_lib9automaton3dfa12minimizationINtB2_20DfaMinimizationTablemlE3newCs43NobSSaLSd_3dfa
FNDA:1,_RNvMNtNtNtCs2hUxDLYgi0n_14vass_reach_lib9automaton3dfa12minimizationINtB2_20DfaMinimizationTablemlE6to_dfaCs43NobSSaLSd_3dfa
FNDA:1,_RNvMNtNtNtCs2hUxDLYgi0n_14vass_reach_lib9automaton3dfa12minimizationINtB2_20DfaMinimizationTablemlE8minimizeCs43NobSSaLSd_3dfa
FNDA:9,_RNvMNtNtNtCs2hUxDLYgi0n_14vass_reach_lib9automaton3dfa12minimizationINtB2_20DfaMinimizationTablemlE9add_entryCs43NobSSaLSd_3dfa
FNDA:73,_RNvMNtNtNtCs2hUxDLYgi0n_14vass_reach_lib9automaton3dfa12minimizationINtB2_20DfaMinimizationTablemlE9iter_someCs43NobSSaLSd_3dfa
FNDA:72,_RNvMs_NtNtNtCs2hUxDLYgi0n_14vass_reach_lib9automaton3dfa12minimizationINtB4_25DfaMinimizationTableEntrymE14add_transitionCs43NobSSaLSd_3dfa
FNDA:26,_RNvMs_NtNtNtCs2hUxDLYgi0n_14vass_reach_lib9automaton3dfa12minimizationINtB4_25DfaMinimizationTableEntrymE3newCs43NobSSaLSd_3dfa
FNDA:0,_RNCNvMNtNtNtCs2hUxDLYgi0n_14vass_reach_lib9automaton3dfa12minimizationINtB4_20DfaMinimizationTableppE13iter_mut_some0Ba_
FNDA:0,_RNCNvMNtNtNtCs2hUxDLYgi0n_14vass_reach_lib9automaton3dfa12minimizationINtB4_20DfaMinimizationTableppE3new0Ba_
FNDA:0,_RNCNvMNtNtNtCs2hUxDLYgi0n_14vass_reach_lib9automaton3dfa12minimizationINtB4_20DfaMinimizationTableppE9iter_some0Ba_
FNDA:0,_RNCNvXININtNtNtCs2hUxDLYgi0n_14vass_reach_lib9automaton3dfa12minimizations0_0ppEINtB9_3DFAppENtB7_11Minimizable8minimize0Bd_
FNDA:0,_RNCNvXININtNtNtCs2hUxDLYgi0n_14vass_reach_lib9automaton3dfa12minimizations0_0ppEINtB9_3DFAppENtB7_11Minimizable8minimizes_0Bd_
FNDA:0,_RNvMNtNtNtCs2hUxDLYgi0n_14vass_reach_lib9automaton3dfa12minimizationINtB2_20DfaMinimizationTableppE13iter_mut_someB8_
FNDA:0,_RNvMNtNtNtCs2hUxDLYgi0n_14vass_reach_lib9automaton3dfa12minimizationINtB2_20DfaMinimizationTableppE22find_equivalent_statesB8_
FNDA:0,_RNvMNtNtNtCs2hUxDLYgi0n_14vass_reach_lib9automaton3dfa12minimizationINtB2_20DfaMinimizationTableppE3newB8_
FNDA:0,_RNvMNtNtNtCs2hUxDLYgi0n_14vass_reach_lib9automaton3dfa12minimizationINtB2_20DfaMinimizationTableppE6to_dfaB8_
FNDA:0,_RNvMNtNtNtCs2hUxDLYgi0n_14vass_reach_lib9automaton3dfa12minimizationINtB2_20DfaMinimizationTableppE8minimizeB8_
FNDA:0,_RNvMNtNtNtCs2hUxDLYgi0n_14vass_reach_lib9automaton3dfa12minimizationINtB2_20DfaMinimizationTableppE9add_entryB8_
FNDA:0,_RNvMNtNtNtCs2hUxDLYgi0n_14vass_reach_lib9automaton3dfa12minimizationINtB2_20DfaMinimizationTableppE9iter_someB8_
FNDA:0,_RNvMs_NtNtNtCs2hUxDLYgi0n_14vass_reach_lib9automaton3dfa12minimizationINtB4_25DfaMinimizationTableEntrypE14add_transitionBa_
FNDA:0,_RNvMs_NtNtNtCs2hUxDLYgi0n_14vass_reach_lib9automaton3dfa12minimizationINtB4_25DfaMinimizationTableEntrypE3newBa_
FNDA:0,_RNvXININtNtNtCs2hUxDLYgi0n_14vass_reach_lib9automaton3dfa12minimizations0_0ppEINtB7_3DFAppENtB5_11Minimizable8minimizeBb_
FNDA:0,_RNCNvMNtNtNtCs2hUxDLYgi0n_14vass_reach_lib9automaton3dfa12minimizationINtB4_20DfaMinimizationTableuNtNtNtB8_3cfg6update16CFGCounterUpdateE13iter_mut_some0CsgHwEJVtWcfn_14petri_net_spec
FNDA:4,_RNCNvMNtNtNtCs2hUxDLYgi0n_14vass_reach_lib9automaton3dfa12minimizationINtB4_20DfaMinimizationTableuNtNtNtB8_3cfg6update16CFGCounterUpdateE3new0CsgHwEJVtWcfn_14petri_net_spec
FNDA:92,_RNCNvMNtNtNtCs2hUxDLYgi0n_14vass_reach_lib9automaton3dfa12minimizationINtB4_20DfaMinimizationTableuNtNtNtB8_3cfg6update16CFGCounterUpdateE9iter_some0CsgHwEJVtWcfn_14petri_net_spec
FNDA:84,_RNCNvXs0_NtNtNtCs2hUxDLYgi0n_14vass_reach_lib9automaton3dfa12minimizationINtB9_3DFAuNtNtNtBb_3cfg6update16CFGCounterUpdateENtB7_11Minimizable8minimize0CsgHwEJVtWcfn_14petri_net_spec
FNDA:24,_RNCNvXs0_NtNtNtCs2hUxDLYgi0n_14vass_reach_lib9automaton3dfa12minimizationINtB9_3DFAuNtNtNtBb_3cfg6update16CFGCounterUpdateENtB7_11Minimizable8minimizes_0CsgHwEJVtWcfn_14petri_net_spec
FNDA:0,_RNvMNtNtNtCs2hUxDLYgi0n_14vass_reach_lib9automaton3dfa12minimizationINtB2_20DfaMinimizationTableuNtNtNtB6_3cfg6update16CFGCounterUpdateE13iter_mut_someCsgHwEJVtWcfn_14petri_net_spec
FNDA:1,_RNvMNtNtNtCs2hUxDLYgi0n_14vass_reach_lib9automaton3dfa12minimizationINtB2_20DfaMinimizationTableuNtNtNtB6_3cfg6update16CFGCounterUpdateE22find_equivalent_statesCsgHwEJVtWcfn_14petri_net_spec
FNDA:1,_RNvMNtNtNtCs2hUxDLYgi0n_14vass_reach_lib9automaton3dfa12minimizationINtB2_20DfaMinimizationTableuNtNtNtB6_3cfg6update16CFGCounterUpdateE3newCsgHwEJVtWcfn_14petri_net_spec
FNDA:1,_RNvMNtNtNtCs2hUxDLYgi0n_14vass_reach_lib9automaton3dfa12minimizationINtB2_20DfaMinimizationTableuNtNtNtB6_3cfg6update16CFGCounterUpdateE6to_dfaCsgHwEJVtWcfn_14petri_net_spec
FNDA:1,_RNvMNtNtNtCs2hUxDLYgi0n_14vass_reach_lib9automaton3dfa12minimizationINtB2_20DfaMinimizationTableuNtNtNtB6_3cfg6update16CFGCounterUpdateE8minimizeCsgHwEJVtWcfn_14petri_net_spec
FNDA:4,_RNvMNtNtNtCs2hUxDLYgi0n_14vass_reach_lib9automaton3dfa12minimizationINtB2_20DfaMinimizationTableuNtNtNtB6_3cfg6update16CFGCounterUpdateE9add_entryCsgHwEJVtWcfn_14petri_net_spec
FNDA:23,_RNvMNtNtNtCs2hUxDLYgi0n_14vass_reach_lib9automaton3dfa12minimizationINtB2_20DfaMinimizationTableuNtNtNtB6_3cfg6update16CFGCounterUpdateE9iter_someCsgHwEJVtWcfn_14petri_net_spec
FNDA:24,_RNvMs_NtNtNtCs2hUxDLYgi0n_14vass_reach_lib9automaton3dfa12minimizationINtB4_25DfaMinimizationTableEntryuE14add_transitionCsgHwEJVtWcfn_14petri_net_spec
FNDA:4,_RNvMs_NtNtNtCs2hUxDLYgi0n_14vass_reach_lib9automaton3dfa12minimizationINtB4_25DfaMinimizationTableEntryuE3newCsgHwEJVtWcfn_14petri_net_spec
FNDA:1,_RNvXs0_NtNtNtCs2hUxDLYgi0n_14vass_reach_lib9automaton3dfa12minimizationINtB7_3DFAuNtNtNtB9_3cfg6update16CFGCounterUpdateENtB5_11Minimizable8minimizeCsgHwEJVtWcfn_14petri_net_spec
FNDA:44,_RNCNvMNtNtNtCs2hUxDLYgi0n_14vass_reach_lib9automaton3dfa12minimizationINtB4_20DfaMinimizationTableuNtNtNtB8_3cfg6update16CFGCounterUpdateE13iter_mut_some0CsaYjQXJDQq9v_12vass_n_reach
FNDA:52,_RNCNvMNtNtNtCs2hUxDLYgi0n_14vass_reach_lib9automaton3dfa12minimizationINtB4_20DfaMinimizationTableuNtNtNtB8_3cfg6update16CFGCounterUpdateE3new0CsaYjQXJDQq9v_12vass_n_reach
FNDA:3830,_RNCNvMNtNtNtCs2hUxDLYgi0n_14vass_reach_lib9automaton3dfa12minimizationINtB4_20DfaMinimizationTableuNtNtNtB8_3cfg6update16CFGCounterUpdateE9iter_some0CsaYjQXJDQq9v_12vass_n_reach
FNDA:1888,_RNCNvXs0_NtNtNtCs2hUxDLYgi0n_14vass_reach_lib9automaton3dfa12minimizationINtB9_3DFAuNtNtNtBb_3cfg6update16CFGCounterUpdateENtB7_11Minimizable8minimize0CsaYjQXJDQq9v_12vass_n_reach
FNDA:400,_RNCNvXs0_NtNtNtCs2hUxDLYgi0n_14vass_reach_lib9automaton3dfa12minimizationINtB9_3DFAuNtNtNtBb_3cfg6update16CFGCounterUpdateENtB7_11Minimizable8minimizes_0CsaYjQXJDQq9v_12vass_n_reach
FNDA:4,_RNvMNtNtNtCs2hUxDLYgi0n_14vass_reach_lib9automaton3dfa12minimizationINtB2_20DfaMinimizationTableuNtNtNtB6_3cfg6update16CFGCounterUpdateE13iter_mut_someCsaYjQXJDQq9v_12vass_n_reach
FNDA:7,_RNvMNtNtNtCs2hUxDLYgi0n_14vass_reach_lib9automaton3dfa12minimizationINtB2_20DfaMinimizationTableuNtNtNtB6_3cfg6update16CFGCounterUpdateE22find_equivalent_statesCsaYjQXJDQq9v_12vass_n_reach
FNDA:7,_RNvMNtNtNtCs2hUxDLYgi0n_14vass_reach_lib9automaton3dfa12minimizationINtB2_20DfaMinimizationTableuNtNtNtB6_3cfg6update16CFGCounterUpdateE3newCsaYjQXJDQq9v_12vass_n_reach
FNDA:7,_RNvMNtNtNtCs2hUxDLYgi0n_14vass_reach_lib9automaton3dfa12minimizationINtB2_20DfaMinimizationTableuNtNtNtB6_3cfg6update16CFGCounterUpdateE6to_dfaCsaYjQXJDQq9v_12vass_n_reach
FNDA:7,_RNvMNtNtNtCs2hUxDLYgi0n_14vass_reach_lib9automaton3dfa12minimizationINtB2_20DfaMinimizationTableuNtNtNtB6_3cfg6update16CFGCounterUpdateE8minimizeCsaYjQXJDQq9v_12vass_n_reach
FNDA:52,_RNvMNtNtNtCs2hUxDLYgi0n_14vass_reach_lib9automaton3dfa12minimizationINtB2_20DfaMinimizationTableuNtNtNtB6_3cfg6update16CFGCounterUpdateE9add_entryCsaYjQXJDQq9v_12vass_n_reach
FNDA:377,_RNvMNtNtNtCs2hUxDLYgi0n_14vass_reach_lib9automaton3dfa12minimizationINtB2_20DfaMinimizationTableuNtNtNtB6_3cfg6update16CFGCounterUpdateE9iter_someCsaYjQXJDQq9v_12vass_n_reach
FNDA:400,_RNvMs_NtNtNtCs2hUxDLYgi0n_14vass_reach_lib9automaton3dfa12minimizationINtB4_25DfaMinimizationTableEntryuE14add_transitionCsaYjQXJDQq9v_12vass_n_reach
FNDA:52,_RNvMs_NtNtNtCs2hUxDLYgi0n_14vass_reach_lib9automaton3dfa12minimizationINtB4_25DfaMinimizationTableEntryuE3newCsaYjQXJDQq9v_12vass_n_reach
FNDA:7,_RNvXs0_NtNtNtCs2hUxDLYgi0n_14vass_reach_lib9automaton3dfa12minimizationINtB7_3DFAuNtNtNtB9_3cfg6update16CFGCounterUpdateENtB5_11Minimizable8minimizeCsaYjQXJDQq9v_12vass_n_reach
FNDA:0,_RNCNvMNtNtNtCs8RRi2RJs6bh_14vass_reach_lib9automaton3dfa12minimizationINtB4_20DfaMinimizationTableppE13iter_mut_some0Ba_
FNDA:0,_RNCNvMNtNtNtCs8RRi2RJs6bh_14vass_reach_lib9automaton3dfa12minimizationINtB4_20DfaMinimizationTableppE3new0Ba_
FNDA:0,_RNCNvMNtNtNtCs8RRi2RJs6bh_14vass_reach_lib9automaton3dfa12minimizationINtB4_20DfaMinimizationTableppE9iter_some0Ba_
FNDA:0,_RNCNvXININtNtNtCs8RRi2RJs6bh_14vass_reach_lib9automaton3dfa12minimizations0_0ppEINtB9_3DFAppENtB7_11Minimizable8minimize0Bd_
FNDA:0,_RNCNvXININtNtNtCs8RRi2RJs6bh_14vass_reach_lib9automaton3dfa12minimizations0_0ppEINtB9_3DFAppENtB7_11Minimizable8minimizes_0Bd_
FNDA:0,_RNvMNtNtNtCs8RRi2RJs6bh_14vass_reach_lib9automaton3dfa12minimizationINtB2_20DfaMinimizationTableppE13iter_mut_someB8_
FNDA:0,_RNvMNtNtNtCs8RRi2RJs6bh_14vass_reach_lib9automaton3dfa12minimizationINtB2_20DfaMinimizationTableppE22find_equivalent_statesB8_
FNDA:0,_RNvMNtNtNtCs8RRi2RJs6bh_14vass_reach_lib9automaton3dfa12minimizationINtB2_20DfaMinimizationTableppE3newB8_
FNDA:0,_RNvMNtNtNtCs8RRi2RJs6bh_14vass_reach_lib9automaton3dfa12minimizationINtB2_20DfaMinimizationTableppE6to_dfaB8_
FNDA:0,_RNvMNtNtNtCs8RRi2RJs6bh_14vass_reach_lib9automaton3dfa12minimizationINtB2_20DfaMinimizationTableppE8minimizeB8_
FNDA:0,_RNvMNtNtNtCs8RRi2RJs6bh_14vass_reach_lib9automaton3dfa12minimizationINtB2_20DfaMinimizationTableppE9add_entryB8_
FNDA:0,_RNvMNtNtNtCs8RRi2RJs6bh_14vass_reach_lib9automaton3dfa12minimizationINtB2_20DfaMinimizationTableppE9iter_someB8_
FNDA:0,_RNvMs_NtNtNtCs8RRi2RJs6bh_14vass_reach_lib9automaton3dfa12minimizationINtB4_25DfaMinimizationTableEntrypE14add_transitionBa_
FNDA:0,_RNvMs_NtNtNtCs8RRi2RJs6bh_14vass_reach_lib9automaton3dfa12minimizationINtB4_25DfaMinimizationTableEntrypE3newBa_
FNDA:0,_RNvXININtNtNtCs8RRi2RJs6bh_14vass_reach_lib9automaton3dfa12minimizations0_0ppEINtB7_3DFAppENtB5_11Minimizable8minimizeBb_
FNDA:48,_RNCNvMNtNtNtCs2hUxDLYgi0n_14vass_reach_lib9automaton3dfa12minimizationINtB4_20DfaMinimizationTableuNtNtNtB8_3cfg6update16CFGCounterUpdateE13iter_mut_some0CseoIxkIhB6T8_12vass_z_reach
FNDA:16,_RNCNvMNtNtNtCs2hUxDLYgi0n_14vass_reach_lib9automaton3dfa12minimizationINtB4_20DfaMinimizationTableuNtNtNtB8_3cfg6update16CFGCounterUpdateE3new0CseoIxkIhB6T8_12vass_z_reach
FNDA:2768,_RNCNvMNtNtNtCs2hUxDLYgi0n_14vass_reach_lib9automaton3dfa12minimizationINtB4_20DfaMinimizationTableuNtNtNtB8_3cfg6update16CFGCounterUpdateE9iter_some0CseoIxkIhB6T8_12vass_z_reach
FNDA:336,_RNCNvXs0_NtNtNtCs2hUxDLYgi0n_14vass_reach_lib9automaton3dfa12minimizationINtB9_3DFAuNtNtNtBb_3cfg6update16CFGCounterUpdateENtB7_11Minimizable8minimize0CseoIxkIhB6T8_12vass_z_reach
FNDA:96,_RNCNvXs0_NtNtNtCs2hUxDLYgi0n_14vass_reach_lib9automaton3dfa12minimizationINtB9_3DFAuNtNtNtBb_3cfg6update16CFGCounterUpdateENtB7_11Minimizable8minimizes_0CseoIxkIhB6T8_12vass_z_reach
FNDA:3,_RNvMNtNtNtCs2hUxDLYgi0n_14vass_reach_lib9automaton3dfa12minimizationINtB2_20DfaMinimizationTableuNtNtNtB6_3cfg6update16CFGCounterUpdateE13iter_mut_someCseoIxkIhB6T8_12vass_z_reach
FNDA:1,_RNvMNtNtNtCs2hUxDLYgi0n_14vass_reach_lib9automaton3dfa12minimizationINtB2_20DfaMinimizationTableuNtNtNtB6_3cfg6update16CFGCounterUpdateE22find_equivalent_statesCseoIxkIhB6T8_12vass_z_reach
FNDA:1,_RNvMNtNtNtCs2hUxDLYgi0n_14vass_reach_lib9automaton3dfa12minimizationINtB2_20DfaMinimizationTableuNtNtNtB6_3cfg6update16CFGCounterUpdateE3newCseoIxkIhB6T8_12vass_z_reach
FNDA:1,_RNvMNtNtNtCs2hUxDLYgi0n_14vass_reach_lib9automaton3dfa12minimizationINtB2_20DfaMinimizationTableuNtNtNtB6_3cfg6update16CFGCounterUpdateE6to_dfaCseoIxkIhB6T8_12vass_z_reach
FNDA:1,_RNvMNtNtNtCs2hUxDLYgi0n_14vass_reach_lib9automaton3dfa12minimizationINtB2_20DfaMinimizationTableuNtNtNtB6_3cfg6update16CFGCounterUpdateE8minimizeCseoIxkIhB6T8_12vass_z_reach
FNDA:16,_RNvMNtNtNtCs2hUxDLYgi0n_14vass_reach_lib9automaton3dfa12minimizationINtB2_20DfaMinimizationTableuNtNtNtB6_3cfg6update16CFGCounterUpdateE9add_entryCseoIxkIhB6T8_12vass_z_reach
FNDA:173,_RNvMNtNtNtCs2hUxDLYgi0n_14vass_reach_lib9automaton3dfa12minimizationINtB2_20DfaMinimizationTableuNtNtNtB6_3cfg6update16CFGCounterUpdateE9iter_someCseoIxkIhB6T8_12vass_z_reach
FNDA:96,_RNvMs_NtNtNtCs2hUxDLYgi0n_14vass_reach_lib9automaton3dfa12minimizationINtB4_25DfaMinimizationTableEntryuE14add_transitionCseoIxkIhB6T8_12vass_z_reach
FNDA:16,_RNvMs_NtNtNtCs2hUxDLYgi0n_14vass_reach_lib9automaton3dfa12minimizationINtB4_25DfaMinimizationTableEntryuE3newCseoIxkIhB6T8_12vass_z_reach
FNDA:1,_RNvXs0_NtNtNtCs2hUxDLYgi0n_14vass_reach_lib9automaton3dfa12minimizationINtB7_3DFAuNtNtNtB9_3cfg6update16CFGCounterUpdateENtB5_11Minimizable8minimizeCseoIxkIhB6T8_12vass_z_reach
FNF:15
FNH:15
DA:25,14
DA:26,14
DA:27,14
DA:28,14
DA:29,100
DA:30,14
DA:31,14
DA:33,14
DA:34,14
DA:35,14
DA:36,14
DA:37,14
DA:38,14
DA:41,732
DA:42,7734
DA:43,732
DA:46,17
DA:47,153
DA:48,17
DA:52,98
DA:53,98
DA:54,98
DA:56,14
DA:57,98
DA:58,98
DA:59,98
DA:60,98
DA:66,14
DA:71,21
DA:72,21
DA:73,4
DA:74,17
DA:76,17
DA:77,17
DA:79,17
DA:86,17
DA:91,124
DA:92,755
DA:93,755
DA:94,13
DA:95,742
DA:101,14
DA:103,14
DA:104,14
DA:106,14
DA:108,81
DA:109,81
DA:110,81
DA:111,14
DA:112,67
DA:114,81
DA:119,81
DA:120,81
DA:121,81
DA:123,512
DA:124,512
DA:125,512
DA:126,512
DA:127,512
DA:128,427
DA:129,427
DA:132,81
DA:133,13
DA:134,68
DA:137,14
DA:139,14
DA:140,14
DA:142,14
DA:143,14
DA:144,14
DA:148,98
DA:149,940
DA:150,940
DA:151,940
DA:153,940
DA:154,519
DA:155,421
DA:157,421
DA:158,0
DA:159,421
DA:161,421
DA:162,90
DA:163,331
DA:169,14
DA:170,59
DA:171,45
DA:173,421
DA:174,4943
DA:175,4943
DA:176,4943
DA:178,4943
DA:179,2682
DA:180,2261
DA:182,2261
DA:183,1580
DA:184,681
DA:186,4710
DA:187,4710
DA:188,4710
DA:190,4710
DA:191,4024
DA:192,4024
DA:194,4710
DA:195,381
DA:196,381
DA:197,4329
DA:220,14
DA:222,98
DA:223,940
DA:224,940
DA:225,940
DA:227,940
DA:228,519
DA:229,421
DA:231,421
DA:232,21
DA:233,21
DA:234,400
DA:238,14
DA:239,14
DA:252,98
DA:253,98
DA:254,98
DA:255,98
DA:256,98
DA:257,98
DA:258,98
DA:259,98
DA:260,98
DA:262,592
DA:263,592
DA:264,592
DA:272,14
DA:273,14
DA:274,14
DA:276,14
DA:278,14
DA:279,14
DA:280,14
DA:281,14
DA:283,112
DA:284,98
DA:285,98
DA:286,98
DA:287,98
DA:288,98
DA:291,592
DA:292,592
DA:293,592
DA:294,592
DA:295,2462
DA:296,592
DA:298,592
DA:299,0
DA:301,0
DA:302,592
DA:304,592
DA:306,592
DA:308,592
DA:309,84
DA:310,508
DA:313,98
DA:316,14
DA:318,14
DA:319,14
BRF:0
BRH:0
LF:170
LH:167
end_of_record
SF:/home/lemon/src/rust-automata/packages/vass-reach-lib/src/automaton/dfa/mod.rs
FN:419,_RINvMNtNtCs2hUxDLYgi0n_14vass_reach_lib9automaton3dfaINtB3_3DFAmcE12is_subset_ofmECs43NobSSaLSd_3dfa
FN:261,_RINvMNtNtCs2hUxDLYgi0n_14vass_reach_lib9automaton3dfaINtB3_3DFAmcE9intersectmECs43NobSSaLSd_3dfa
FN:674,_RINvXs4_NtNtCs2hUxDLYgi0n_14vass_reach_lib9automaton3dfaINtB6_3DFAmcENtB8_8Language7acceptsINtNtNtCs7xuAoyMVi4A_4core5slice4iter4ItercEECs43NobSSaLSd_3dfa
FN:674,_RINvXs4_NtNtCs2hUxDLYgi0n_14vass_reach_lib9automaton3dfaINtB6_3DFAmcENtB8_8Language7acceptsRAcj2_ECs43NobSSaLSd_3dfa
FN:674,_RINvXs4_NtNtCs2hUxDLYgi0n_14vass_reach_lib9automaton3dfaINtB6_3DFAmcENtB8_8Language7acceptsRAcj4_ECs43NobSSaLSd_3dfa
FN:674,_RINvXs4_NtNtCs2hUxDLYgi0n_14vass_reach_lib9automaton3dfaINtB6_3DFAmcENtB8_8Language7acceptsRINtNtCs1EFbPCGXlWb_5alloc3vec3VeccEECs43NobSSaLSd_3dfa
FN:674,_RINvXs4_NtNtCs2hUxDLYgi0n_14vass_reach_lib9automaton3dfaINtB6_3DFAmlENtB8_8Language7acceptsINtNtNtCs7xuAoyMVi4A_4core5slice4iter4IterlEECs43NobSSaLSd_3dfa
FN:674,_RINvXs4_NtNtCs2hUxDLYgi0n_14vass_reach_lib9automaton3dfaINtB6_3DFAucENtB8_8Language7acceptsINtNtNtCs7xuAoyMVi4A_4core5slice4iter4ItercEECs43NobSSaLSd_3dfa
FN:310,_RNCINvMNtNtCs2hUxDLYgi0n_14vass_reach_lib9automaton3dfaINtB5_3DFAmcE9intersectmE0Cs43NobSSaLSd_3dfa
FN:692,_RNCINvXs4_NtNtCs2hUxDLYgi0n_14vass_reach_lib9automaton3dfaINtB8_3DFAmcENtBa_8Language7acceptsINtNtNtCs7xuAoyMVi4A_4core5slice4iter4ItercEE0Cs43NobSSaLSd_3dfa
FN:700,_RNCINvXs4_NtNtCs2hUxDLYgi0n_14vass_reach_lib9automaton3dfaINtB8_3DFAmcENtBa_8Language7acceptsINtNtNtCs7xuAoyMVi4A_4core5slice4iter4ItercEEs0_0Cs43NobSSaLSd_3dfa
FN:693,_RNCINvXs4_NtNtCs2hUxDLYgi0n_14vass_reach_lib9automaton3dfaINtB8_3DFAmcENtBa_8Language7acceptsINtNtNtCs7xuAoyMVi4A_4core5slice4iter4ItercEEs_0Cs43NobSSaLSd_3dfa
FN:692,_RNCINvXs4_NtNtCs2hUxDLYgi0n_14vass_reach_lib9automaton3dfaINtB8_3DFAmcENtBa_8Language7acceptsRAcj2_E0Cs43NobSSaLSd_3dfa
FN:700,_RNCINvXs4_NtNtCs2hUxDLYgi0n_14vass_reach_lib9automaton3dfaINtB8_3DFAmcENtBa_8Language7acceptsRAcj2_Es0_0Cs43NobSSaLSd_3dfa
FN:693,_RNCINvXs4_NtNtCs2hUxDLYgi0n_14vass_reach_lib9automaton3dfaINtB8_3DFAmcENtBa_8Language7acceptsRAcj2_Es_0Cs43NobSSaLSd_3dfa
FN:692,_RNCINvXs4_NtNtCs2hUxDLYgi0n_14vass_reach_lib9automaton3dfaINtB8_3DFAmcENtBa_8Language7acceptsRAcj4_E0Cs43NobSSaLSd_3dfa
FN:700,_RNCINvXs4_NtNtCs2hUxDLYgi0n_14vass_reach_lib9automaton3dfaINtB8_3DFAmcENtBa_8Language7acceptsRAcj4_Es0_0Cs43NobSSaLSd_3dfa
FN:693,_RNCINvXs4_NtNtCs2hUxDLYgi0n_14vass_reach_lib9automaton3dfaINtB8_3DFAmcENtBa_8Language7acceptsRAcj4_Es_0Cs43NobSSaLSd_3dfa
FN:692,_RNCINvXs4_NtNtCs2hUxDLYgi0n_14vass_reach_lib9automaton3dfaINtB8_3DFAmcENtBa_8Language7acceptsRINtNtCs1EFbPCGXlWb_5alloc3vec3VeccEE0Cs43NobSSaLSd_3dfa
FN:700,_RNCINvXs4_NtNtCs2hUxDLYgi0n_14vass_reach_lib9automaton3dfaINtB8_3DFAmcENtBa_8Language7acceptsRINtNtCs1EFbPCGXlWb_5alloc3vec3VeccEEs0_0Cs43NobSSaLSd_3dfa
FN:693,_RNCINvXs4_NtNtCs2hUxDLYgi0n_14vass_reach_lib9automaton3dfaINtB8_3DFAmcENtBa_8Language7acceptsRINtNtCs1EFbPCGXlWb_5alloc3vec3VeccEEs_0Cs43NobSSaLSd_3dfa
FN:692,_RNCINvXs4_NtNtCs2hUxDLYgi0n_14vass_reach_lib9automaton3dfaINtB8_3DFAmlENtBa_8Language7acceptsINtNtNtCs7xuAoyMVi4A_4core5slice4iter4IterlEE0Cs43NobSSaLSd_3dfa
FN:700,_RNCINvXs4_NtNtCs2hUxDLYgi0n_14vass_reach_lib9automaton3dfaINtB8_3DFAmlENtBa_8Language7acceptsINtNtNtCs7xuAoyMVi4A_4core5slice4iter4IterlEEs0_0Cs43NobSSaLSd_3dfa
FN:693,_RNCINvXs4_NtNtCs2hUxDLYgi0n_14vass_reach_lib9automaton3dfaINtB8_3DFAmlENtBa_8Language7acceptsINtNtNtCs7xuAoyMVi4A_4core5slice4iter4IterlEEs_0Cs43NobSSaLSd_3dfa
FN:692,_RNCINvXs4_NtNtCs2hUxDLYgi0n_14vass_reach_lib9automaton3dfaINtB8_3DFAucENtBa_8Language7acceptsINtNtNtCs7xuAoyMVi4A_4core5slice4iter4ItercEE0Cs43NobSSaLSd_3dfa
FN:700,_RNCINvXs4_NtNtCs2hUxDLYgi0n_14vass_reach_lib9automaton3dfaINtB8_3DFAucENtBa_8Language7acceptsINtNtNtCs7xuAoyMVi4A_4core5slice4iter4ItercEEs0_0Cs43NobSSaLSd_3dfa
FN:693,_RNCINvXs4_NtNtCs2hUxDLYgi0n_14vass_reach_lib9automaton3dfaINtB8_3DFAucENtBa_8Language7acceptsINtNtNtCs7xuAoyMVi4A_4core5slice4iter4ItercEEs_0Cs43NobSSaLSd_3dfa
FN:127,_RNCNvMNtNtCs2hUxDLYgi0n_14vass_reach_lib9automaton3dfaINtB4_3DFAmcE13make_complete0Cs43NobSSaLSd_3dfa
FN:83,_RNCNvMNtNtCs2hUxDLYgi0n_14vass_reach_lib9automaton3dfaINtB4_3DFAmcE14check_complete0Cs43NobSSaLSd_3dfa
FN:381,_RNCNvMNtNtCs2hUxDLYgi0n_14vass_reach_lib9automaton3dfaINtB4_3DFAmcE17has_accepting_run0Cs43NobSSaLSd_3dfa
FN:83,_RNCNvMNtNtCs2hUxDLYgi0n_14vass_reach_lib9automaton3dfaINtB4_3DFAmlE14check_complete0Cs43NobSSaLSd_3dfa
FN:83,_RNCNvMNtNtCs2hUxDLYgi0n_14vass_reach_lib9automaton3dfaINtB4_3DFAucE14check_complete0Cs43NobSSaLSd_3dfa
FN:105,_RNCNvMNtNtCs2hUxDLYgi0n_14vass_reach_lib9automaton3dfaINtB4_3DFAucE15assert_complete0Cs43NobSSaLSd_3dfa
FN:627,_RNCNvXs2_NtNtCs2hUxDLYgi0n_14vass_reach_lib9automaton3dfaINtB7_3DFAmcEINtB9_19ModifiableAutomatonNtB9_13DeterministicE8add_edge0Cs43NobSSaLSd_3dfa
FN:618,_RNCNvXs2_NtNtCs2hUxDLYgi0n_14vass_reach_lib9automaton3dfaINtB7_3DFAmcEINtB9_19ModifiableAutomatonNtB9_13DeterministicE8add_edges_0Cs43NobSSaLSd_3dfa
FN:627,_RNCNvXs2_NtNtCs2hUxDLYgi0n_14vass_reach_lib9automaton3dfaINtB7_3DFAmlEINtB9_19ModifiableAutomatonNtB9_13DeterministicE8add_edge0Cs43NobSSaLSd_3dfa
FN:618,_RNCNvXs2_NtNtCs2hUxDLYgi0n_14vass_reach_lib9automaton3dfaINtB7_3DFAmlEINtB9_19ModifiableAutomatonNtB9_13DeterministicE8add_edges_0Cs43NobSSaLSd_3dfa
FN:627,_RNCNvXs2_NtNtCs2hUxDLYgi0n_14vass_reach_lib9automaton3dfaINtB7_3DFAucEINtB9_19ModifiableAutomatonNtB9_13DeterministicE8add_edge0Cs43NobSSaLSd_3dfa
FN:618,_RNCNvXs2_NtNtCs2hUxDLYgi0n_14vass_reach_lib9automaton3dfaINtB7_3DFAucEINtB9_19ModifiableAutomatonNtB9_13DeterministicE8add_edges_0Cs43NobSSaLSd_3dfa
FN:214,_RNvMNtNtCs2hUxDLYgi0n_14vass_reach_lib9automaton3dfaINtB2_3DFAmcE10invert_mutCs43NobSSaLSd_3dfa
FN:51,_RNvMNtNtCs2hUxDLYgi0n_14vass_reach_lib9automaton3dfaINtB2_3DFAmcE11is_completeCs43NobSSaLSd_3dfa
FN:222,_RNvMNtNtCs2hUxDLYgi0n_14vass_reach_lib9automaton3dfaINtB2_3DFAmcE11reverse_nfaCs43NobSSaLSd_3dfa
FN:43,_RNvMNtNtCs2hUxDLYgi0n_14vass_reach_lib9automaton3dfaINtB2_3DFAmcE11set_initialCs43NobSSaLSd_3dfa
FN:119,_RNvMNtNtCs2hUxDLYgi0n_14vass_reach_lib9automaton3dfaINtB2_3DFAmcE13make_completeCs43NobSSaLSd_3dfa
FN:77,_RNvMNtNtCs2hUxDLYgi0n_14vass_reach_lib9automaton3dfaINtB2_3DFAmcE14check_completeCs43NobSSaLSd_3dfa
FN:377,_RNvMNtNtCs2hUxDLYgi0n_14vass_reach_lib9automaton3dfaINtB2_3DFAmcE17has_accepting_runCs43NobSSaLSd_3dfa
FN:409,_RNvMNtNtCs2hUxDLYgi0n_14vass_reach_lib9automaton3dfaINtB2_3DFAmcE17is_language_emptyCs43NobSSaLSd_3dfa
FN:65,_RNvMNtNtCs2hUxDLYgi0n_14vass_reach_lib9automaton3dfaINtB2_3DFAmcE22set_complete_uncheckedCs43NobSSaLSd_3dfa
FN:429,_RNvMNtNtCs2hUxDLYgi0n_14vass_reach_lib9automaton3dfaINtB2_3DFAmcE24find_loop_rooted_in_nodeCs43NobSSaLSd_3dfa
FN:463,_RNvMNtNtCs2hUxDLYgi0n_14vass_reach_lib9automaton3dfaINtB2_3DFAmcE25find_loops_rooted_in_nodeCs43NobSSaLSd_3dfa
FN:32,_RNvMNtNtCs2hUxDLYgi0n_14vass_reach_lib9automaton3dfaINtB2_3DFAmcE3newCs43NobSSaLSd_3dfa
FN:189,_RNvMNtNtCs2hUxDLYgi0n_14vass_reach_lib9automaton3dfaINtB2_3DFAmcE6invertCs43NobSSaLSd_3dfa
FN:255,_RNvMNtNtCs2hUxDLYgi0n_14vass_reach_lib9automaton3dfaINtB2_3DFAmcE7reverseCs43NobSSaLSd_3dfa
FN:500,_RNvMNtNtCs2hUxDLYgi0n_14vass_reach_lib9automaton3dfaINtB2_3DFAmcE8subgraphCs43NobSSaLSd_3dfa
FN:51,_RNvMNtNtCs2hUxDLYgi0n_14vass_reach_lib9automaton3dfaINtB2_3DFAmlE11is_completeCs43NobSSaLSd_3dfa
FN:43,_RNvMNtNtCs2hUxDLYgi0n_14vass_reach_lib9automaton3dfaINtB2_3DFAmlE11set_initialCs43NobSSaLSd_3dfa
FN:77,_RNvMNtNtCs2hUxDLYgi0n_14vass_reach_lib9automaton3dfaINtB2_3DFAmlE14check_completeCs43NobSSaLSd_3dfa
FN:65,_RNvMNtNtCs2hUxDLYgi0n_14vass_reach_lib9automaton3dfaINtB2_3DFAmlE22set_complete_uncheckedCs43NobSSaLSd_3dfa
FN:32,_RNvMNtNtCs2hUxDLYgi0n_14vass_reach_lib9automaton3dfaINtB2_3DFAmlE3newCs43NobSSaLSd_3dfa
FN:43,_RNvMNtNtCs2hUxDLYgi0n_14vass_reach_lib9automaton3dfaINtB2_3DFAucE11set_initialCs43NobSSaLSd_3dfa
FN:77,_RNvMNtNtCs2hUxDLYgi0n_14vass_reach_lib9automaton3dfaINtB2_3DFAucE14check_completeCs43NobSSaLSd_3dfa
FN:99,_RNvMNtNtCs2hUxDLYgi0n_14vass_reach_lib9automaton3dfaINtB2_3DFAucE15assert_completeCs43NobSSaLSd_3dfa
FN:65,_RNvMNtNtCs2hUxDLYgi0n_14vass_reach_lib9automaton3dfaINtB2_3DFAucE22set_complete_uncheckedCs43NobSSaLSd_3dfa
FN:32,_RNvMNtNtCs2hUxDLYgi0n_14vass_reach_lib9automaton3dfaINtB2_3DFAucE3newCs43NobSSaLSd_3dfa
FN:547,_RNvXs0_NtNtCs2hUxDLYgi0n_14vass_reach_lib9automaton3dfaINtB5_3DFAmcEINtB7_9AutomatonNtB7_13DeterministicE10node_countCs43NobSSaLSd_3dfa
FN:547,_RNvXs0_NtNtCs2hUxDLYgi0n_14vass_reach_lib9automaton3dfaINtB5_3DFAmlEINtB7_9AutomatonNtB7_13DeterministicE10node_countCs43NobSSaLSd_3dfa
FN:616,_RNvXs2_NtNtCs2hUxDLYgi0n_14vass_reach_lib9automaton3dfaINtB5_3DFAmcEINtB7_19ModifiableAutomatonNtB7_13DeterministicE8add_edgeCs43NobSSaLSd_3dfa
FN:612,_RNvXs2_NtNtCs2hUxDLYgi0n_14vass_reach_lib9automaton3dfaINtB5_3DFAmcEINtB7_19ModifiableAutomatonNtB7_13DeterministicE8add_nodeCs43NobSSaLSd_3dfa
FN:616,_RNvXs2_NtNtCs2hUxDLYgi0n_14vass_reach_lib9automaton3dfaINtB5_3DFAmlEINtB7_19ModifiableAutomatonNtB7_13DeterministicE8add_edgeCs43NobSSaLSd_3dfa
FN:612,_RNvXs2_NtNtCs2hUxDLYgi0n_14vass_reach_lib9automaton3dfaINtB5_3DFAmlEINtB7_19ModifiableAutomatonNtB7_13DeterministicE8add_nodeCs43NobSSaLSd_3dfa
FN:616,_RNvXs2_NtNtCs2hUxDLYgi0n_14vass_reach_lib9automaton3dfaINtB5_3DFAucEINtB7_19ModifiableAutomatonNtB7_13DeterministicE8add_edgeCs43NobSSaLSd_3dfa
FN:612,_RNvXs2_NtNtCs2hUxDLYgi0n_14vass_reach_lib9automaton3dfaINtB5_3DFAucEINtB7_19ModifiableAutomatonNtB7_13DeterministicE8add_nodeCs43NobSSaLSd_3dfa
FN:538,_RNvXs_NtNtCs2hUxDLYgi0n_14vass_reach_lib9automaton3dfaINtB4_3DFAmcENtB6_8Alphabet8alphabetCs43NobSSaLSd_3dfa
FN:538,_RNvXs_NtNtCs2hUxDLYgi0n_14vass_reach_lib9automaton3dfaINtB4_3DFAmlENtB6_8Alphabet8alphabetCs43NobSSaLSd_3dfa
FN:261,_RINvMNtNtCs2hUxDLYgi0n_14vass_reach_lib9automaton3dfaINtB3_3DFAuNtNtNtB5_3cfg6update16CFGCounterUpdateE9intersectuEB7_
FN:310,_RNCINvMNtNtCs2hUxDLYgi0n_14vass_reach_lib9automaton3dfaINtB5_3DFAuNtNtNtB7_3cfg6update16CFGCounterUpdateE9intersectuE0B9_
FN:83,_RNCNvMNtNtCs2hUxDLYgi0n_14vass_reach_lib9automaton3dfaINtB4_3DFAuNtNtNtB6_3cfg6update16CFGCounterUpdateE14check_complete0B8_
FN:105,_RNCNvMNtNtCs2hUxDLYgi0n_14vass_reach_lib9automaton3dfaINtB4_3DFAuNtNtNtB6_3cfg6update16CFGCounterUpdateE15assert_complete0B8_
FN:595,_RNCNvXs1_NtNtCs2hUxDLYgi0n_14vass_reach_lib9automaton3dfaINtB7_3DFAuNtNtNtB9_3cfg6update16CFGCounterUpdateEINtB9_21ExplicitEdgeAutomatonNtB9_13DeterministicE21incoming_edge_indices0Bb_
FN:589,_RNCNvXs1_NtNtCs2hUxDLYgi0n_14vass_reach_lib9automaton3dfaINtB7_3DFAuNtNtNtB9_3cfg6update16CFGCounterUpdateEINtB9_21ExplicitEdgeAutomatonNtB9_13DeterministicE21outgoing_edge_indices0Bb_
FN:605,_RNCNvXs1_NtNtCs2hUxDLYgi0n_14vass_reach_lib9automaton3dfaINtB7_3DFAuNtNtNtB9_3cfg6update16CFGCounterUpdateEINtB9_21ExplicitEdgeAutomatonNtB9_13DeterministicE23connecting_edge_indices0Bb_
FN:627,_RNCNvXs2_NtNtCs2hUxDLYgi0n_14vass_reach_lib9automaton3dfaINtB7_3DFAuNtNtNtB9_3cfg6update16CFGCounterUpdateEINtB9_19ModifiableAutomatonNtB9_13DeterministicE8add_edge0Bb_
FN:618,_RNCNvXs2_NtNtCs2hUxDLYgi0n_14vass_reach_lib9automaton3dfaINtB7_3DFAuNtNtNtB9_3cfg6update16CFGCounterUpdateEINtB9_19ModifiableAutomatonNtB9_13DeterministicE8add_edges_0Bb_
FN:214,_RNvMNtNtCs2hUxDLYgi0n_14vass_reach_lib9automaton3dfaINtB2_3DFAuNtNtNtB4_3cfg6update16CFGCounterUpdateE10invert_mutB6_
FN:51,_RNvMNtNtCs2hUxDLYgi0n_14vass_reach_lib9automaton3dfaINtB2_3DFAuNtNtNtB4_3cfg6update16CFGCounterUpdateE11is_completeB6_
FN:222,_RNvMNtNtCs2hUxDLYgi0n_14vass_reach_lib9automaton3dfaINtB2_3DFAuNtNtNtB4_3cfg6update16CFGCounterUpdateE11reverse_nfaB6_
FN:43,_RNvMNtNtCs2hUxDLYgi0n_14vass_reach_lib9automaton3dfaINtB2_3DFAuNtNtNtB4_3cfg6update16CFGCounterUpdateE11set_initialB6_
FN:77,_RNvMNtNtCs2hUxDLYgi0n_14vass_reach_lib9automaton3dfaINtB2_3DFAuNtNtNtB4_3cfg6update16CFGCounterUpdateE14check_completeB6_
FN:99,_RNvMNtNtCs2hUxDLYgi0n_14vass_reach_lib9automaton3dfaINtB2_3DFAuNtNtNtB4_3cfg6update16CFGCounterUpdateE15assert_completeB6_
FN:65,_RNvMNtNtCs2hUxDLYgi0n_14vass_reach_lib9automaton3dfaINtB2_3DFAuNtNtNtB4_3cfg6update16CFGCounterUpdateE22set_complete_uncheckedB6_
FN:32,_RNvMNtNtCs2hUxDLYgi0n_14vass_reach_lib9automaton3dfaINtB2_3DFAuNtNtNtB4_3cfg6update16CFGCounterUpdateE3newB6_
FN:47,_RNvMNtNtCs2hUxDLYgi0n_14vass_reach_lib9automaton3dfaINtB2_3DFAuNtNtNtB4_3cfg6update16CFGCounterUpdateE7is_trapB6_
FN:255,_RNvMNtNtCs2hUxDLYgi0n_14vass_reach_lib9automaton3dfaINtB2_3DFAuNtNtNtB4_3cfg6update16CFGCounterUpdateE7reverseB6_
FN:547,_RNvXs0_NtNtCs2hUxDLYgi0n_14vass_reach_lib9automaton3dfaINtB5_3DFAuNtNtNtB7_3cfg6update16CFGCounterUpdateEINtB7_9AutomatonNtB7_13DeterministicE10node_countB9_
FN:555,_RNvXs0_NtNtCs2hUxDLYgi0n_14vass_reach_lib9automaton3dfaINtB5_3DFAuNtNtNtB7_3cfg6update16CFGCounterUpdateEINtB7_9AutomatonNtB7_13DeterministicE18get_node_uncheckedB9_
FN:551,_RNvXs0_NtNtCs2hUxDLYgi0n_14vass_reach_lib9automaton3dfaINtB5_3DFAuNtNtNtB7_3cfg6update16CFGCounterUpdateEINtB7_9AutomatonNtB7_13DeterministicE8get_nodeB9_
FN:566,_RNvXs1_NtNtCs2hUxDLYgi0n_14vass_reach_lib9automaton3dfaINtB5_3DFAuNtNtNtB7_3cfg6update16CFGCounterUpdateEINtB7_21ExplicitEdgeAutomatonNtB7_13DeterministicE10edge_countB9_
FN:574,_RNvXs1_NtNtCs2hUxDLYgi0n_14vass_reach_lib9automaton3dfaINtB5_3DFAuNtNtNtB7_3cfg6update16CFGCounterUpdateEINtB7_21ExplicitEdgeAutomatonNtB7_13DeterministicE18get_edge_uncheckedB9_
FN:592,_RNvXs1_NtNtCs2hUxDLYgi0n_14vass_reach_lib9automaton3dfaINtB5_3DFAuNtNtNtB7_3cfg6update16CFGCounterUpdateEINtB7_21ExplicitEdgeAutomatonNtB7_13DeterministicE21incoming_edge_indicesB9_
FN:586,_RNvXs1_NtNtCs2hUxDLYgi0n_14vass_reach_lib9automaton3dfaINtB5_3DFAuNtNtNtB7_3cfg6update16CFGCounterUpdateEINtB7_21ExplicitEdgeAutomatonNtB7_13DeterministicE21outgoing_edge_indicesB9_
FN:598,_RNvXs1_NtNtCs2hUxDLYgi0n_14vass_reach_lib9automaton3dfaINtB5_3DFAuNtNtNtB7_3cfg6update16CFGCounterUpdateEINtB7_21ExplicitEdgeAutomatonNtB7_13DeterministicE23connecting_edge_indicesB9_
FN:582,_RNvXs1_NtNtCs2hUxDLYgi0n_14vass_reach_lib9automaton3dfaINtB5_3DFAuNtNtNtB7_3cfg6update16CFGCounterUpdateEINtB7_21ExplicitEdgeAutomatonNtB7_13DeterministicE24edge_endpoints_uncheckedB9_
FN:570,_RNvXs1_NtNtCs2hUxDLYgi0n_14vass_reach_lib9automaton3dfaINtB5_3DFAuNtNtNtB7_3cfg6update16CFGCounterUpdateEINtB7_21ExplicitEdgeAutomatonNtB7_13DeterministicE8get_edgeB9_
FN:616,_RNvXs2_NtNtCs2hUxDLYgi0n_14vass_reach_lib9automaton3dfaINtB5_3DFAuNtNtNtB7_3cfg6update16CFGCounterUpdateEINtB7_19ModifiableAutomatonNtB7_13DeterministicE8add_edgeB9_
FN:612,_RNvXs2_NtNtCs2hUxDLYgi0n_14vass_reach_lib9automaton3dfaINtB5_3DFAuNtNtNtB7_3cfg6update16CFGCounterUpdateEINtB7_19ModifiableAutomatonNtB7_13DeterministicE8add_nodeB9_
FN:664,_RNvXs3_NtNtCs2hUxDLYgi0n_14vass_reach_lib9automaton3dfaINtB5_3DFAuNtNtNtB7_3cfg6update16CFGCounterUpdateEINtB7_20InitializedAutomatonNtB7_13DeterministicE11get_initialB9_
FN:668,_RNvXs3_NtNtCs2hUxDLYgi0n_14vass_reach_lib9automaton3dfaINtB5_3DFAuNtNtNtB7_3cfg6update16CFGCounterUpdateEINtB7_20InitializedAutomatonNtB7_13DeterministicE12is_acceptingB9_
FN:538,_RNvXs_NtNtCs2hUxDLYgi0n_14vass_reach_lib9automaton3dfaINtB4_3DFAuNtNtNtB6_3cfg6update16CFGCounterUpdateENtB6_8Alphabet8alphabetB8_
FN:419,_RINvMNtNtCs2hUxDLYgi0n_14vass_reach_lib9automaton3dfaINtB3_3DFAppE12is_subset_ofpEB7_
FN:330,_RINvMNtNtCs2hUxDLYgi0n_14vass_reach_lib9automaton3dfaINtB3_3DFAppE3bfspEB7_
FN:649,_RINvXININtNtCs2hUxDLYgi0n_14vass_reach_lib9automaton3dfas2_0ppEINtB6_3DFAppEINtB8_19ModifiableAutomatonNtB8_13DeterministicE12retain_nodespEBa_
FN:674,_RINvXININtNtCs2hUxDLYgi0n_14vass_reach_lib9automaton3dfas4_0ppEINtB6_3DFAppENtB8_8Language7acceptspEBa_
FN:692,_RNCINvXININtNtCs2hUxDLYgi0n_14vass_reach_lib9automaton3dfas4_0ppEINtB8_3DFAppENtBa_8Language7acceptspE0Bc_
FN:700,_RNCINvXININtNtCs2hUxDLYgi0n_14vass_reach_lib9automaton3dfas4_0ppEINtB8_3DFAppENtBa_8Language7acceptspEs0_0Bc_
FN:693,_RNCINvXININtNtCs2hUxDLYgi0n_14vass_reach_lib9automaton3dfas4_0ppEINtB8_3DFAppENtBa_8Language7acceptspEs_0Bc_
FN:127,_RNCNvMNtNtCs2hUxDLYgi0n_14vass_reach_lib9automaton3dfaINtB4_3DFAppE13make_complete0B8_
FN:381,_RNCNvMNtNtCs2hUxDLYgi0n_14vass_reach_lib9automaton3dfaINtB4_3DFAppE17has_accepting_run0B8_
FN:167,_RNCNvMNtNtCs2hUxDLYgi0n_14vass_reach_lib9automaton3dfaINtB4_3DFAppE22remove_trapping_states0B8_
FN:182,_RNCNvMNtNtCs2hUxDLYgi0n_14vass_reach_lib9automaton3dfaINtB4_3DFAppE22remove_trapping_statess_0B8_
FN:717,_RNCNvXININtNtCs2hUxDLYgi0n_14vass_reach_lib9automaton3dfas5_0ppEINtB7_3DFAppENtNtCs7xuAoyMVi4A_4core3fmt5Debug3fmt0Bb_
FN:735,_RNCNvXININtNtCs2hUxDLYgi0n_14vass_reach_lib9automaton3dfas5_0ppEINtB7_3DFAppENtNtCs7xuAoyMVi4A_4core3fmt5Debug3fmts0_0Bb_
FN:726,_RNCNvXININtNtCs2hUxDLYgi0n_14vass_reach_lib9automaton3dfas5_0ppEINtB7_3DFAppENtNtCs7xuAoyMVi4A_4core3fmt5Debug3fmts_0Bb_
FN:119,_RNvMNtNtCs2hUxDLYgi0n_14vass_reach_lib9automaton3dfaINtB2_3DFAppE13make_completeB6_
FN:377,_RNvMNtNtCs2hUxDLYgi0n_14vass_reach_lib9automaton3dfaINtB2_3DFAppE17has_accepting_runB6_
FN:409,_RNvMNtNtCs2hUxDLYgi0n_14vass_reach_lib9automaton3dfaINtB2_3DFAppE17is_language_emptyB6_
FN:363,_RNvMNtNtCs2hUxDLYgi0n_14vass_reach_lib9automaton3dfaINtB2_3DFAppE20bfs_accepting_statesB6_
FN:158,_RNvMNtNtCs2hUxDLYgi0n_14vass_reach_lib9automaton3dfaINtB2_3DFAppE22remove_trapping_statesB6_
FN:429,_RNvMNtNtCs2hUxDLYgi0n_14vass_reach_lib9automaton3dfaINtB2_3DFAppE24find_loop_rooted_in_nodeB6_
FN:463,_RNvMNtNtCs2hUxDLYgi0n_14vass_reach_lib9automaton3dfaINtB2_3DFAppE25find_loops_rooted_in_nodeB6_
FN:189,_RNvMNtNtCs2hUxDLYgi0n_14vass_reach_lib9automaton3dfaINtB2_3DFAppE6invertB6_
FN:500,_RNvMNtNtCs2hUxDLYgi0n_14vass_reach_lib9automaton3dfaINtB2_3DFAppE8subgraphB6_
FN:578,_RNvXININtNtCs2hUxDLYgi0n_14vass_reach_lib9automaton3dfas1_0ppEINtB5_3DFAppEINtB7_21ExplicitEdgeAutomatonNtB7_13DeterministicE14edge_endpointsB9_
FN:645,_RNvXININtNtCs2hUxDLYgi0n_14vass_reach_lib9automaton3dfas2_0ppEINtB5_3DFAppEINtB7_19ModifiableAutomatonNtB7_13DeterministicE11remove_edgeB9_
FN:641,_RNvXININtNtCs2hUxDLYgi0n_14vass_reach_lib9automaton3dfas2_0ppEINtB5_3DFAppEINtB7_19ModifiableAutomatonNtB7_13DeterministicE11remove_nodeB9_
FN:708,_RNvXININtNtCs2hUxDLYgi0n_14vass_reach_lib9automaton3dfas5_0ppEINtB5_3DFAppENtNtCs7xuAoyMVi4A_4core3fmt5Debug3fmtB9_
FN:330,_RINvMNtNtCs2hUxDLYgi0n_14vass_reach_lib9automaton3dfaINtB3_3DFAuNtNtNtB5_3cfg6update16CFGCounterUpdateE3bfsNCNvB2_22remove_trapping_states0ECsjA5qX5JEwPT_16graph_algorithms
FN:167,_RNCNvMNtNtCs2hUxDLYgi0n_14vass_reach_lib9automaton3dfaINtB4_3DFAuNtNtNtB6_3cfg6update16CFGCounterUpdateE22remove_trapping_states0CsjA5qX5JEwPT_16graph_algorithms
FN:182,_RNCNvMNtNtCs2hUxDLYgi0n_14vass_reach_lib9automaton3dfaINtB4_3DFAuNtNtNtB6_3cfg6update16CFGCounterUpdateE22remove_trapping_statess_0CsjA5qX5JEwPT_16graph_algorithms
FN:158,_RNvMNtNtCs2hUxDLYgi0n_14vass_reach_lib9automaton3dfaINtB2_3DFAuNtNtNtB4_3cfg6update16CFGCounterUpdateE22remove_trapping_statesCsjA5qX5JEwPT_16graph_algorithms
FN:127,_RNCNvMNtNtCs2hUxDLYgi0n_14vass_reach_lib9automaton3dfaINtB4_3DFAuNtNtNtB6_3cfg6update16CFGCounterUpdateE13make_complete0CsR0JFDIskFR_16implicit_product
FN:119,_RNvMNtNtCs2hUxDLYgi0n_14vass_reach_lib9automaton3dfaINtB2_3DFAuNtNtNtB4_3cfg6update16CFGCounterUpdateE13make_completeCsR0JFDIskFR_16implicit_product
FN:674,_RINvXs4_NtNtCs2hUxDLYgi0n_14vass_reach_lib9automaton3dfaINtB6_3DFAuNtNtNtB8_3cfg6update16CFGCounterUpdateENtB8_8Language7acceptsINtNtNtCs7xuAoyMVi4A_4core5slice4iter4IterB13_EECs3ATG82DPHTL_3lgs
FN:692,_RNCINvXs4_NtNtCs2hUxDLYgi0n_14vass_reach_lib9automaton3dfaINtB8_3DFAuNtNtNtBa_3cfg6update16CFGCounterUpdateENtBa_8Language7acceptsINtNtNtCs7xuAoyMVi4A_4core5slice4iter4IterB15_EE0Cs3ATG82DPHTL_3lgs
FN:700,_RNCINvXs4_NtNtCs2hUxDLYgi0n_14vass_reach_lib9automaton3dfaINtB8_3DFAuNtNtNtBa_3cfg6update16CFGCounterUpdateENtBa_8Language7acceptsINtNtNtCs7xuAoyMVi4A_4core5slice4iter4IterB15_EEs0_0Cs3ATG82DPHTL_3lgs
FN:693,_RNCINvXs4_NtNtCs2hUxDLYgi0n_14vass_reach_lib9automaton3dfaINtB8_3DFAuNtNtNtBa_3cfg6update16CFGCounterUpdateENtBa_8Language7acceptsINtNtNtCs7xuAoyMVi4A_4core5slice4iter4IterB15_EEs_0Cs3ATG82DPHTL_3lgs
FN:674,_RINvXs4_NtNtCs2hUxDLYgi0n_14vass_reach_lib9automaton3dfaINtB6_3DFAuNtNtNtB8_3cfg6update16CFGCounterUpdateENtB8_8Language7acceptsINtNtNtCs7xuAoyMVi4A_4core5slice4iter4IterB13_EECsdx2WVSQjOLl_3ltc
FN:692,_RNCINvXs4_NtNtCs2hUxDLYgi0n_14vass_reach_lib9automaton3dfaINtB8_3DFAuNtNtNtBa_3cfg6update16CFGCounterUpdateENtBa_8Language7acceptsINtNtNtCs7xuAoyMVi4A_4core5slice4iter4IterB15_EE0Csdx2WVSQjOLl_3ltc
FN:700,_RNCINvXs4_NtNtCs2hUxDLYgi0n_14vass_reach_lib9automaton3dfaINtB8_3DFAuNtNtNtBa_3cfg6update16CFGCounterUpdateENtBa_8Language7acceptsINtNtNtCs7xuAoyMVi4A_4core5slice4iter4IterB15_EEs0_0Csdx2WVSQjOLl_3ltc
FN:693,_RNCINvXs4_NtNtCs2hUxDLYgi0n_14vass_reach_lib9automaton3dfaINtB8_3DFAuNtNtNtBa_3cfg6update16CFGCounterUpdateENtBa_8Language7acceptsINtNtNtCs7xuAoyMVi4A_4core5slice4iter4IterB15_EEs_0Csdx2WVSQjOLl_3ltc
FN:189,_RNvMNtNtCs2hUxDLYgi0n_14vass_reach_lib9automaton3dfaINtB2_3DFAuNtNtNtB4_3cfg6update16CFGCounterUpdateE6invertCsdx2WVSQjOLl_3ltc
FN:674,_RINvXs4_NtNtCs2hUxDLYgi0n_14vass_reach_lib9automaton3dfaINtB6_3DFAucENtB8_8Language7acceptsINtNtNtCs7xuAoyMVi4A_4core5slice4iter4ItercEECsbz10sC9QTBK_3nfa
FN:692,_RNCINvXs4_NtNtCs2hUxDLYgi0n_14vass_reach_lib9automaton3dfaINtB8_3DFAucENtBa_8Language7acceptsINtNtNtCs7xuAoyMVi4A_4core5slice4iter4ItercEE0Csbz10sC9QTBK_3nfa
FN:700,_RNCINvXs4_NtNtCs2hUxDLYgi0n_14vass_reach_lib9automaton3dfaINtB8_3DFAucENtBa_8Language7acceptsINtNtNtCs7xuAoyMVi4A_4core5slice4iter4ItercEEs0_0Csbz10sC9QTBK_3nfa
FN:693,_RNCINvXs4_NtNtCs2hUxDLYgi0n_14vass_reach_lib9automaton3dfaINtB8_3DFAucENtBa_8Language7acceptsINtNtNtCs7xuAoyMVi4A_4core5slice4iter4ItercEEs_0Csbz10sC9QTBK_3nfa
FN:83,_RNCNvMNtNtCs2hUxDLYgi0n_14vass_reach_lib9automaton3dfaINtB4_3DFAucE14check_complete0Csbz10sC9QTBK_3nfa
FN:105,_RNCNvMNtNtCs2hUxDLYgi0n_14vass_reach_lib9automaton3dfaINtB4_3DFAucE15assert_complete0Csbz10sC9QTBK_3nfa
FN:627,_RNCNvXs2_NtNtCs2hUxDLYgi0n_14vass_reach_lib9automaton3dfaINtB7_3DFAucEINtB9_19ModifiableAutomatonNtB9_13DeterministicE8add_edge0Csbz10sC9QTBK_3nfa
FN:618,_RNCNvXs2_NtNtCs2hUxDLYgi0n_14vass_reach_lib9automaton3dfaINtB7_3DFAucEINtB9_19ModifiableAutomatonNtB9_13DeterministicE8add_edges_0Csbz10sC9QTBK_3nfa
FN:43,_RNvMNtNtCs2hUxDLYgi0n_14vass_reach_lib9automaton3dfaINtB2_3DFAucE11set_initialCsbz10sC9QTBK_3nfa
FN:77,_RNvMNtNtCs2hUxDLYgi0n_14vass_reach_lib9automaton3dfaINtB2_3DFAucE14check_completeCsbz10sC9QTBK_3nfa
FN:99,_RNvMNtNtCs2hUxDLYgi0n_14vass_reach_lib9automaton3dfaINtB2_3DFAucE15assert_completeCsbz10sC9QTBK_3nfa
FN:65,_RNvMNtNtCs2hUxDLYgi0n_14vass_reach_lib9automaton3dfaINtB2_3DFAucE22set_complete_uncheckedCsbz10sC9QTBK_3nfa
FN:32,_RNvMNtNtCs2hUxDLYgi0n_14vass_reach_lib9automaton3dfaINtB2_3DFAucE3newCsbz10sC9QTBK_3nfa
FN:547,_RNvXs0_NtNtCs2hUxDLYgi0n_14vass_reach_lib9automaton3dfaINtB5_3DFAucEINtB7_9AutomatonNtB7_13DeterministicE10node_countCsbz10sC9QTBK_3nfa
FN:616,_RNvXs2_NtNtCs2hUxDLYgi0n_14vass_reach_lib9automaton3dfaINtB5_3DFAucEINtB7_19ModifiableAutomatonNtB7_13DeterministicE8add_edgeCsbz10sC9QTBK_3nfa
FN:612,_RNvXs2_NtNtCs2hUxDLYgi0n_14vass_reach_lib9automaton3dfaINtB5_3DFAucEINtB7_19ModifiableAutomatonNtB7_13DeterministicE8add_nodeCsbz10sC9QTBK_3nfa
FN:538,_RNvXs_NtNtCs2hUxDLYgi0n_14vass_reach_lib9automaton3dfaINtB4_3DFAucENtB6_8Alphabet8alphabetCsbz10sC9QTBK_3nfa
FN:674,_RINvXs4_NtNtCs2hUxDLYgi0n_14vass_reach_lib9automaton3dfaINtB6_3DFAucENtB8_8Language7acceptsINtNtNtCs7xuAoyMVi4A_4core5slice4iter4ItercEECs5AE6hNTjqZK_13nfa_invariant
FN:692,_RNCINvXs4_NtNtCs2hUxDLYgi0n_14vass_reach_lib9automaton3dfaINtB8_3DFAucENtBa_8Language7acceptsINtNtNtCs7xuAoyMVi4A_4core5slice4iter4ItercEE0Cs5AE6hNTjqZK_13nfa_invariant
FN:700,_RNCINvXs4_NtNtCs2hUxDLYgi0n_14vass_reach_lib9automaton3dfaINtB8_3DFAucENtBa_8Language7acceptsINtNtNtCs7xuAoyMVi4A_4core5slice4iter4ItercEEs0_0Cs5AE6hNTjqZK_13nfa_invariant
FN:693,_RNCINvXs4_NtNtCs2hUxDLYgi0n_14vass_reach_lib9automaton3dfaINtB8_3DFAucENtBa_8Language7acceptsINtNtNtCs7xuAoyMVi4A_4core5slice4iter4ItercEEs_0Cs5AE6hNTjqZK_13nfa_invariant
FN:83,_RNCNvMNtNtCs2hUxDLYgi0n_14vass_reach_lib9automaton3dfaINtB4_3DFAucE14check_complete0Cs5AE6hNTjqZK_13nfa_invariant
FN:105,_RNCNvMNtNtCs2hUxDLYgi0n_14vass_reach_lib9automaton3dfaINtB4_3DFAucE15assert_complete0Cs5AE6hNTjqZK_13nfa_invariant
FN:627,_RNCNvXs2_NtNtCs2hUxDLYgi0n_14vass_reach_lib9automaton3dfaINtB7_3DFAucEINtB9_19ModifiableAutomatonNtB9_13DeterministicE8add_edge0Cs5AE6hNTjqZK_13nfa_invariant
FN:618,_RNCNvXs2_NtNtCs2hUxDLYgi0n_14vass_reach_lib9automaton3dfaINtB7_3DFAucEINtB9_19ModifiableAutomatonNtB9_13DeterministicE8add_edges_0Cs5AE6hNTjqZK_13nfa_invariant
FN:43,_RNvMNtNtCs2hUxDLYgi0n_14vass_reach_lib9automaton3dfaINtB2_3DFAucE11set_initialCs5AE6hNTjqZK_13nfa_invariant
FN:77,_RNvMNtNtCs2hUxDLYgi0n_14vass_reach_lib9automaton3dfaINtB2_3DFAucE14check_completeCs5AE6hNTjqZK_13nfa_invariant
FN:99,_RNvMNtNtCs2hUxDLYgi0n_14vass_reach_lib9automaton3dfaINtB2_3DFAucE15assert_completeCs5AE6hNTjqZK_13nfa_invariant
FN:65,_RNvMNtNtCs2hUxDLYgi0n_14vass_reach_lib9automaton3dfaINtB2_3DFAucE22set_complete_uncheckedCs5AE6hNTjqZK_13nfa_invariant
FN:32,_RNvMNtNtCs2hUxDLYgi0n_14vass_reach_lib9automaton3dfaINtB2_3DFAucE3newCs5AE6hNTjqZK_13nfa_invariant
FN:616,_RNvXs2_NtNtCs2hUxDLYgi0n_14vass_reach_lib9automaton3dfaINtB5_3DFAucEINtB7_19ModifiableAutomatonNtB7_13DeterministicE8add_edgeCs5AE6hNTjqZK_13nfa_invariant
FN:612,_RNvXs2_NtNtCs2hUxDLYgi0n_14vass_reach_lib9automaton3dfaINtB5_3DFAucEINtB7_19ModifiableAutomatonNtB7_13DeterministicE8add_nodeCs5AE6hNTjqZK_13nfa_invariant
FN:538,_RNvXs_NtNtCs2hUxDLYgi0n_14vass_reach_lib9automaton3dfaINtB4_3DFAucENtB6_8Alphabet8alphabetCs5AE6hNTjqZK_13nfa_invariant
FN:589,_RNCNvXs1_NtNtCs2hUxDLYgi0n_14vass_reach_lib9automaton3dfaINtB7_3DFAucEINtB9_21ExplicitEdgeAutomatonNtB9_13DeterministicE21outgoing_edge_indices0Cs9XXF3XtrrPR_4path
FN:627,_RNCNvXs2_NtNtCs2hUxDLYgi0n_14vass_reach_lib9automaton3dfaINtB7_3DFAucEINtB9_19ModifiableAutomatonNtB9_13DeterministicE8add_edge0Cs9XXF3XtrrPR_4path
FN:618,_RNCNvXs2_NtNtCs2hUxDLYgi0n_14vass_reach_lib9automaton3dfaINtB7_3DFAucEINtB9_19ModifiableAutomatonNtB9_13DeterministicE8add_edges_0Cs9XXF3XtrrPR_4path
FN:43,_RNvMNtNtCs2hUxDLYgi0n_14vass_reach_lib9automaton3dfaINtB2_3DFAucE11set_initialCs9XXF3XtrrPR_4path
FN:32,_RNvMNtNtCs2hUxDLYgi0n_14vass_reach_lib9automaton3dfaINtB2_3DFAucE3newCs9XXF3XtrrPR_4path
FN:574,_RNvXs1_NtNtCs2hUxDLYgi0n_14vass_reach_lib9automaton3dfaINtB5_3DFAucEINtB7_21ExplicitEdgeAutomatonNtB7_13DeterministicE18get_edge_uncheckedCs9XXF3XtrrPR_4path
FN:586,_RNvXs1_NtNtCs2hUxDLYgi0n_14vass_reach_lib9automaton3dfaINtB5_3DFAucEINtB7_21ExplicitEdgeAutomatonNtB7_13DeterministicE21outgoing_edge_indicesCs9XXF3XtrrPR_4path
FN:582,_RNvXs1_NtNtCs2hUxDLYgi0n_14vass_reach_lib9automaton3dfaINtB5_3DFAucEINtB7_21ExplicitEdgeAutomatonNtB7_13DeterministicE24edge_endpoints_uncheckedCs9XXF3XtrrPR_4path
FN:616,_RNvXs2_NtNtCs2hUxDLYgi0n_14vass_reach_lib9automaton3dfaINtB5_3DFAucEINtB7_19ModifiableAutomatonNtB7_13DeterministicE8add_edgeCs9XXF3XtrrPR_4path
FN:612,_RNvXs2_NtNtCs2hUxDLYgi0n_14vass_reach_lib9automaton3dfaINtB5_3DFAucEINtB7_19ModifiableAutomatonNtB7_13DeterministicE8add_nodeCs9XXF3XtrrPR_4path
FN:127,_RNCNvMNtNtCs2hUxDLYgi0n_14vass_reach_lib9automaton3dfaINtB4_3DFAuNtNtNtB6_3cfg6update16CFGCounterUpdateE13make_complete0CsgHwEJVtWcfn_14petri_net_spec
FN:119,_RNvMNtNtCs2hUxDLYgi0n_14vass_reach_lib9automaton3dfaINtB2_3DFAuNtNtNtB4_3cfg6update16CFGCounterUpdateE13make_completeCsgHwEJVtWcfn_14petri_net_spec
FN:127,_RNCNvMNtNtCs2hUxDLYgi0n_14vass_reach_lib9automaton3dfaINtB4_3DFAuNtNtNtB6_3cfg6update16CFGCounterUpdateE13make_complete0CsaYjQXJDQq9v_12vass_n_reach
FN:119,_RNvMNtNtCs2hUxDLYgi0n_14vass_reach_lib9automaton3dfaINtB2_3DFAuNtNtNtB4_3cfg6update16CFGCounterUpdateE13make_completeCsaYjQXJDQq9v_12vass_n_reach
FN:419,_RINvMNtNtCs8RRi2RJs6bh_14vass_reach_lib9automaton3dfaINtB3_3DFAppE12is_subset_ofpEB7_
FN:330,_RINvMNtNtCs8RRi2RJs6bh_14vass_reach_lib9automaton3dfaINtB3_3DFAppE3bfspEB7_
FN:261,_RINvMNtNtCs8RRi2RJs6bh_14vass_reach_lib9automaton3dfaINtB3_3DFAppE9intersectpEB7_
FN:649,_RINvXININtNtCs8RRi2RJs6bh_14vass_reach_lib9automaton3dfas2_0ppEINtB6_3DFAppEINtB8_19ModifiableAutomatonNtB8_13DeterministicE12retain_nodespEBa_
FN:674,_RINvXININtNtCs8RRi2RJs6bh_14vass_reach_lib9automaton3dfas4_0ppEINtB6_3DFAppENtB8_8Language7acceptspEBa_
FN:310,_RNCINvMNtNtCs8RRi2RJs6bh_14vass_reach_lib9automaton3dfaINtB5_3DFAppE9intersectpE0B9_
FN:692,_RNCINvXININtNtCs8RRi2RJs6bh_14vass_reach_lib9automaton3dfas4_0ppEINtB8_3DFAppENtBa_8Language7acceptspE0Bc_
FN:700,_RNCINvXININtNtCs8RRi2RJs6bh_14vass_reach_lib9automaton3dfas4_0ppEINtB8_3DFAppENtBa_8Language7acceptspEs0_0Bc_
FN:693,_RNCINvXININtNtCs8RRi2RJs6bh_14vass_reach_lib9automaton3dfas4_0ppEINtB8_3DFAppENtBa_8Language7acceptspEs_0Bc_
FN:127,_RNCNvMNtNtCs8RRi2RJs6bh_14vass_reach_lib9automaton3dfaINtB4_3DFAppE13make_complete0B8_
FN:83,_RNCNvMNtNtCs8RRi2RJs6bh_14vass_reach_lib9automaton3dfaINtB4_3DFAppE14check_complete0B8_
FN:105,_RNCNvMNtNtCs8RRi2RJs6bh_14vass_reach_lib9automaton3dfaINtB4_3DFAppE15assert_complete0B8_
FN:381,_RNCNvMNtNtCs8RRi2RJs6bh_14vass_reach_lib9automaton3dfaINtB4_3DFAppE17has_accepting_run0B8_
FN:167,_RNCNvMNtNtCs8RRi2RJs6bh_14vass_reach_lib9automaton3dfaINtB4_3DFAppE22remove_trapping_states0B8_
FN:182,_RNCNvMNtNtCs8RRi2RJs6bh_14vass_reach_lib9automaton3dfaINtB4_3DFAppE22remove_trapping_statess_0B8_
FN:595,_RNCNvXININtNtCs8RRi2RJs6bh_14vass_reach_lib9automaton3dfas1_0ppEINtB7_3DFAppEINtB9_21ExplicitEdgeAutomatonNtB9_13DeterministicE21incoming_edge_indices0Bb_
FN:589,_RNCNvXININtNtCs8RRi2RJs6bh_14vass_reach_lib9automaton3dfas1_0ppEINtB7_3DFAppEINtB9_21ExplicitEdgeAutomatonNtB9_13DeterministicE21outgoing_edge_indices0Bb_
FN:605,_RNCNvXININtNtCs8RRi2RJs6bh_14vass_reach_lib9automaton3dfas1_0ppEINtB7_3DFAppEINtB9_21ExplicitEdgeAutomatonNtB9_13DeterministicE23connecting_edge_indices0Bb_
FN:627,_RNCNvXININtNtCs8RRi2RJs6bh_14vass_reach_lib9automaton3dfas2_0ppEINtB7_3DFAppEINtB9_19ModifiableAutomatonNtB9_13DeterministicE8add_edge0Bb_
FN:618,_RNCNvXININtNtCs8RRi2RJs6bh_14vass_reach_lib9automaton3dfas2_0ppEINtB7_3DFAppEINtB9_19ModifiableAutomatonNtB9_13DeterministicE8add_edges_0Bb_
FN:717,_RNCNvXININtNtCs8RRi2RJs6bh_14vass_reach_lib9automaton3dfas5_0ppEINtB7_3DFAppENtNtCs7xuAoyMVi4A_4core3fmt5Debug3fmt0Bb_
FN:735,_RNCNvXININtNtCs8RRi2RJs6bh_14vass_reach_lib9automaton3dfas5_0ppEINtB7_3DFAppENtNtCs7xuAoyMVi4A_4core3fmt5Debug3fmts0_0Bb_
FN:726,_RNCNvXININtNtCs8RRi2RJs6bh_14vass_reach_lib9automaton3dfas5_0ppEINtB7_3DFAppENtNtCs7xuAoyMVi4A_4core3fmt5Debug3fmts_0Bb_
FN:214,_RNvMNtNtCs8RRi2RJs6bh_14vass_reach_lib9automaton3dfaINtB2_3DFAppE10invert_mutB6_
FN:51,_RNvMNtNtCs8RRi2RJs6bh_14vass_reach_lib9automaton3dfaINtB2_3DFAppE11is_completeB6_
FN:222,_RNvMNtNtCs8RRi2RJs6bh_14vass_reach_lib9automaton3dfaINtB2_3DFAppE11reverse_nfaB6_
FN:43,_RNvMNtNtCs8RRi2RJs6bh_14vass_reach_lib9automaton3dfaINtB2_3DFAppE11set_initialB6_
FN:119,_RNvMNtNtCs8RRi2RJs6bh_14vass_reach_lib9automaton3dfaINtB2_3DFAppE13make_completeB6_
FN:77,_RNvMNtNtCs8RRi2RJs6bh_14vass_reach_lib9automaton3dfaINtB2_3DFAppE14check_completeB6_
FN:99,_RNvMNtNtCs8RRi2RJs6bh_14vass_reach_lib9automaton3dfaINtB2_3DFAppE15assert_completeB6_
FN:377,_RNvMNtNtCs8RRi2RJs6bh_14vass_reach_lib9automaton3dfaINtB2_3DFAppE17has_accepting_runB6_
FN:409,_RNvMNtNtCs8RRi2RJs6bh_14vass_reach_lib9automaton3dfaINtB2_3DFAppE17is_language_emptyB6_
FN:363,_RNvMNtNtCs8RRi2RJs6bh_14vass_reach_lib9automaton3dfaINtB2_3DFAppE20bfs_accepting_statesB6_
FN:158,_RNvMNtNtCs8RRi2RJs6bh_14vass_reach_lib9automaton3dfaINtB2_3DFAppE22remove_trapping_statesB6_
FN:65,_RNvMNtNtCs8RRi2RJs6bh_14vass_reach_lib9automaton3dfaINtB2_3DFAppE22set_complete_uncheckedB6_
FN:429,_RNvMNtNtCs8RRi2RJs6bh_14vass_reach_lib9automaton3dfaINtB2_3DFAppE24find_loop_rooted_in_nodeB6_
FN:463,_RNvMNtNtCs8RRi2RJs6bh_14vass_reach_lib9automaton3dfaINtB2_3DFAppE25find_loops_rooted_in_nodeB6_
FN:32,_RNvMNtNtCs8RRi2RJs6bh_14vass_reach_lib9automaton3dfaINtB2_3DFAppE3newB6_
FN:189,_RNvMNtNtCs8RRi2RJs6bh_14vass_reach_lib9automaton3dfaINtB2_3DFAppE6invertB6_
FN:47,_RNvMNtNtCs8RRi2RJs6bh_14vass_reach_lib9automaton3dfaINtB2_3DFAppE7is_trapB6_
FN:255,_RNvMNtNtCs8RRi2RJs6bh_14vass_reach_lib9automaton3dfaINtB2_3DFAppE7reverseB6_
FN:500,_RNvMNtNtCs8RRi2RJs6bh_14vass_reach_lib9automaton3dfaINtB2_3DFAppE8subgraphB6_
FN:547,_RNvXININtNtCs8RRi2RJs6bh_14vass_reach_lib9automaton3dfas0_0ppEINtB5_3DFAppEINtB7_9AutomatonNtB7_13DeterministicE10node_countB9_
FN:555,_RNvXININtNtCs8RRi2RJs6bh_14vass_reach_lib9automaton3dfas0_0ppEINtB5_3DFAppEINtB7_9AutomatonNtB7_13DeterministicE18get_node_uncheckedB9_
FN:551,_RNvXININtNtCs8RRi2RJs6bh_14vass_reach_lib9automaton3dfas0_0ppEINtB5_3DFAppEINtB7_9AutomatonNtB7_13DeterministicE8get_nodeB9_
FN:566,_RNvXININtNtCs8RRi2RJs6bh_14vass_reach_lib9automaton3dfas1_0ppEINtB5_3DFAppEINtB7_21ExplicitEdgeAutomatonNtB7_13DeterministicE10edge_countB9_
FN:578,_RNvXININtNtCs8RRi2RJs6bh_14vass_reach_lib9automaton3dfas1_0ppEINtB5_3DFAppEINtB7_21ExplicitEdgeAutomatonNtB7_13DeterministicE14edge_endpointsB9_
FN:574,_RNvXININtNtCs8RRi2RJs6bh_14vass_reach_lib9automaton3dfas1_0ppEINtB5_3DFAppEINtB7_21ExplicitEdgeAutomatonNtB7_13DeterministicE18get_edge_uncheckedB9_
FN:592,_RNvXININtNtCs8RRi2RJs6bh_14vass_reach_lib9automaton3dfas1_0ppEINtB5_3DFAppEINtB7_21ExplicitEdgeAutomatonNtB7_13DeterministicE21incoming_edge_indicesB9_
FN:586,_RNvXININtNtCs8RRi2RJs6bh_14vass_reach_lib9automaton3dfas1_0ppEINtB5_3DFAppEINtB7_21ExplicitEdgeAutomatonNtB7_13DeterministicE21outgoing_edge_indicesB9_
FN:598,_RNvXININtNtCs8RRi2RJs6bh_14vass_reach_lib9automaton3dfas1_0ppEINtB5_3DFAppEINtB7_21ExplicitEdgeAutomatonNtB7_13DeterministicE23connecting_edge_indicesB9_
FN:582,_RNvXININtNtCs8RRi2RJs6bh_14vass_reach_lib9automaton3dfas1_0ppEINtB5_3DFAppEINtB7_21ExplicitEdgeAutomatonNtB7_13DeterministicE24edge_endpoints_uncheckedB9_
FN:570,_RNvXININtNtCs8RRi2RJs6bh_14vass_reach_lib9automaton3dfas1_0ppEINtB5_3DFAppEINtB7_21ExplicitEdgeAutomatonNtB7_13DeterministicE8get_edgeB9_
FN:645,_RNvXININtNtCs8RRi2RJs6bh_14vass_reach_lib9automaton3dfas2_0ppEINtB5_3DFAppEINtB7_19ModifiableAutomatonNtB7_13DeterministicE11remove_edgeB9_
FN:641,_RNvXININtNtCs8RRi2RJs6bh_14vass_reach_lib9automaton3dfas2_0ppEINtB5_3DFAppEINtB7_19ModifiableAutomatonNtB7_13DeterministicE11remove_nodeB9_
FN:616,_RNvXININtNtCs8RRi2RJs6bh_14vass_reach_lib9automaton3dfas2_0ppEINtB5_3DFAppEINtB7_19ModifiableAutomatonNtB7_13DeterministicE8add_edgeB9_
FN:612,_RNvXININtNtCs8RRi2RJs6bh_14vass_reach_lib9automaton3dfas2_0ppEINtB5_3DFAppEINtB7_19ModifiableAutomatonNtB7_13DeterministicE8add_nodeB9_
FN:664,_RNvXININtNtCs8RRi2RJs6bh_14vass_reach_lib9automaton3dfas3_0ppEINtB5_3DFAppEINtB7_20InitializedAutomatonNtB7_13DeterministicE11get_initialB9_
FN:668,_RNvXININtNtCs8RRi2RJs6bh_14vass_reach_lib9automaton3dfas3_0ppEINtB5_3DFAppEINtB7_20InitializedAutomatonNtB7_13DeterministicE12is_acceptingB9_
FN:708,_RNvXININtNtCs8RRi2RJs6bh_14vass_reach_lib9automaton3dfas5_0ppEINtB5_3DFAppENtNtCs7xuAoyMVi4A_4core3fmt5Debug3fmtB9_
FN:538,_RNvXININtNtCs8RRi2RJs6bh_14vass_reach_lib9automaton3dfas_0ppEINtB5_3DFAppENtB7_8Alphabet8alphabetB9_
FN:127,_RNCNvMNtNtCs2hUxDLYgi0n_14vass_reach_lib9automaton3dfaINtB4_3DFAuNtNtNtB6_3cfg6update16CFGCounterUpdateE13make_complete0CseoIxkIhB6T8_12vass_z_reach
FN:119,_RNvMNtNtCs2hUxDLYgi0n_14vass_reach_lib9automaton3dfaINtB2_3DFAuNtNtNtB4_3cfg6update16CFGCounterUpdateE13make_completeCseoIxkIhB6T8_12vass_z_reach
FNDA:3,_RINvMNtNtCs2hUxDLYgi0n_14vass_reach_lib9automaton3dfaINtB3_3DFAmcE12is_subset_ofmECs43NobSSaLSd_3dfa
FNDA:3,_RINvMNtNtCs2hUxDLYgi0n_14vass_reach_lib9automaton3dfaINtB3_3DFAmcE9intersectmECs43NobSSaLSd_3dfa
FNDA:48059,_RINvXs4_NtNtCs2hUxDLYgi0n_14vass_reach_lib9automaton3dfaINtB6_3DFAmcENtB8_8Language7acceptsINtNtNtCs7xuAoyMVi4A_4core5slice4iter4ItercEECs43NobSSaLSd_3dfa
FNDA:2,_RINvXs4_NtNtCs2hUxDLYgi0n_14vass_reach_lib9automaton3dfaINtB6_3DFAmcENtB8_8Language7acceptsRAcj2_ECs43NobSSaLSd_3dfa
FNDA:2,_RINvXs4_NtNtCs2hUxDLYgi0n_14vass_reach_lib9automaton3dfaINtB6_3DFAmcENtB8_8Language7acceptsRAcj4_ECs43NobSSaLSd_3dfa
FNDA:2,_RINvXs4_NtNtCs2hUxDLYgi0n_14vass_reach_lib9automaton3dfaINtB6_3DFAmcENtB8_8Language7acceptsRINtNtCs1EFbPCGXlWb_5alloc3vec3VeccEECs43NobSSaLSd_3dfa
FNDA:43690,_RINvXs4_NtNtCs2hUxDLYgi0n_14vass_reach_lib9automaton3dfaINtB6_3DFAmlENtB8_8Language7acceptsINtNtNtCs7xuAoyMVi4A_4core5slice4iter4IterlEECs43NobSSaLSd_3dfa
FNDA:5,_RINvXs4_NtNtCs2hUxDLYgi0n_14vass_reach_lib9automaton3dfaINtB6_3DFAucENtB8_8Language7acceptsINtNtNtCs7xuAoyMVi4A_4core5slice4iter4ItercEECs43NobSSaLSd_3dfa
FNDA:13,_RNCINvMNtNtCs2hUxDLYgi0n_14vass_reach_lib9automaton3dfaINtB5_3DFAmcE9intersectmE0Cs43NobSSaLSd_3dfa
FNDA:779005,_RNCINvXs4_NtNtCs2hUxDLYgi0n_14vass_reach_lib9automaton3dfaINtB8_3DFAmcENtBa_8Language7acceptsINtNtNtCs7xuAoyMVi4A_4core5slice4iter4ItercEE0Cs43NobSSaLSd_3dfa
FNDA:48059,_RNCINvXs4_NtNtCs2hUxDLYgi0n_14vass_reach_lib9automaton3dfaINtB8_3DFAmcENtBa_8Language7acceptsINtNtNtCs7xuAoyMVi4A_4core5slice4iter4ItercEEs0_0Cs43NobSSaLSd_3dfa
FNDA:325180,_RNCINvXs4_NtNtCs2hUxDLYgi0n_14vass_reach_lib9automaton3dfaINtB8_3DFAmcENtBa_8Language7acceptsINtNtNtCs7xuAoyMVi4A_4core5slice4iter4ItercEEs_0Cs43NobSSaLSd_3dfa
FNDA:5,_RNCINvXs4_NtNtCs2hUxDLYgi0n_14vass_reach_lib9automaton3dfaINtB8_3DFAmcENtBa_8Language7acceptsRAcj2_E0Cs43NobSSaLSd_3dfa
FNDA:2,_RNCINvXs4_NtNtCs2hUxDLYgi0n_14vass_reach_lib9automaton3dfaINtB8_3DFAmcENtBa_8Language7acceptsRAcj2_Es0_0Cs43NobSSaLSd_3dfa
FNDA:4,_RNCINvXs4_NtNtCs2hUxDLYgi0n_14vass_reach_lib9automaton3dfaINtB8_3DFAmcENtBa_8Language7acceptsRAcj2_Es_0Cs43NobSSaLSd_3dfa
FNDA:7,_RNCINvXs4_NtNtCs2hUxDLYgi0n_14vass_reach_lib9automaton3dfaINtB8_3DFAmcENtBa_8Language7acceptsRAcj4_E0Cs43NobSSaLSd_3dfa
FNDA:1,_RNCINvXs4_NtNtCs2hUxDLYgi0n_14vass_reach_lib9automaton3dfaINtB8_3DFAmcENtBa_8Language7acceptsRAcj4_Es0_0Cs43NobSSaLSd_3dfa
FNDA:5,_RNCINvXs4_NtNtCs2hUxDLYgi0n_14vass_reach_lib9automaton3dfaINtB8_3DFAmcENtBa_8Language7acceptsRAcj4_Es_0Cs43NobSSaLSd_3dfa
FNDA:22,_RNCINvXs4_NtNtCs2hUxDLYgi0n_14vass_reach_lib9automaton3dfaINtB8_3DFAmcENtBa_8Language7acceptsRINtNtCs1EFbPCGXlWb_5alloc3vec3VeccEE0Cs43NobSSaLSd_3dfa
FNDA:2,_RNCINvXs4_NtNtCs2hUxDLYgi0n_14vass_reach_lib9automaton3dfaINtB8_3DFAmcENtBa_8Language7acceptsRINtNtCs1EFbPCGXlWb_5alloc3vec3VeccEEs0_0Cs43NobSSaLSd_3dfa
FNDA:11,_RNCINvXs4_NtNtCs2hUxDLYgi0n_14vass_reach_lib9automaton3dfaINtB8_3DFAmcENtBa_8Language7acceptsRINtNtCs1EFbPCGXlWb_5alloc3vec3VeccEEs_0Cs43NobSSaLSd_3dfa
FNDA:728180,_RNCINvXs4_NtNtCs2hUxDLYgi0n_14vass_reach_lib9automaton3dfaINtB8_3DFAmlENtBa_8Language7acceptsINtNtNtCs7xuAoyMVi4A_4core5slice4iter4IterlEE0Cs43NobSSaLSd_3dfa
FNDA:43690,_RNCINvXs4_NtNtCs2hUxDLYgi0n_14vass_reach_lib9automaton3dfaINtB8_3DFAmlENtBa_8Language7acceptsINtNtNtCs7xuAoyMVi4A_4core5slice4iter4IterlEEs0_0Cs43NobSSaLSd_3dfa
FNDA:291272,_RNCINvXs4_NtNtCs2hUxDLYgi0n_14vass_reach_lib9automaton3dfaINtB8_3DFAmlENtBa_8Language7acceptsINtNtNtCs7xuAoyMVi4A_4core5slice4iter4IterlEEs_0Cs43NobSSaLSd_3dfa
FNDA:20,_RNCINvXs4_NtNtCs2hUxDLYgi0n_14vass_reach_lib9automaton3dfaINtB8_3DFAucENtBa_8Language7acceptsINtNtNtCs7xuAoyMVi4A_4core5slice4iter4ItercEE0Cs43NobSSaLSd_3dfa
FNDA:5,_RNCINvXs4_NtNtCs2hUxDLYgi0n_14vass_reach_lib9automaton3dfaINtB8_3DFAucENtBa_8Language7acceptsINtNtNtCs7xuAoyMVi4A_4core5slice4iter4ItercEEs0_0Cs43NobSSaLSd_3dfa
FNDA:10,_RNCINvXs4_NtNtCs2hUxDLYgi0n_14vass_reach_lib9automaton3dfaINtB8_3DFAucENtBa_8Language7acceptsINtNtNtCs7xuAoyMVi4A_4core5slice4iter4ItercEEs_0Cs43NobSSaLSd_3dfa
FNDA:104,_RNCNvMNtNtCs2hUxDLYgi0n_14vass_reach_lib9automaton3dfaINtB4_3DFAmcE13make_complete0Cs43NobSSaLSd_3dfa
FNDA:259,_RNCNvMNtNtCs2hUxDLYgi0n_14vass_reach_lib9automaton3dfaINtB4_3DFAmcE14check_complete0Cs43NobSSaLSd_3dfa
FNDA:9,_RNCNvMNtNtCs2hUxDLYgi0n_14vass_reach_lib9automaton3dfaINtB4_3DFAmcE17has_accepting_run0Cs43NobSSaLSd_3dfa
FNDA:240,_RNCNvMNtNtCs2hUxDLYgi0n_14vass_reach_lib9automaton3dfaINtB4_3DFAmlE14check_complete0Cs43NobSSaLSd_3dfa
FNDA:36,_RNCNvMNtNtCs2hUxDLYgi0n_14vass_reach_lib9automaton3dfaINtB4_3DFAucE14check_complete0Cs43NobSSaLSd_3dfa
FNDA:36,_RNCNvMNtNtCs2hUxDLYgi0n_14vass_reach_lib9automaton3dfaINtB4_3DFAucE15assert_complete0Cs43NobSSaLSd_3dfa
FNDA:167,_RNCNvXs2_NtNtCs2hUxDLYgi0n_14vass_reach_lib9automaton3dfaINtB7_3DFAmcEINtB9_19ModifiableAutomatonNtB9_13DeterministicE8add_edge0Cs43NobSSaLSd_3dfa
FNDA:415,_RNCNvXs2_NtNtCs2hUxDLYgi0n_14vass_reach_lib9automaton3dfaINtB7_3DFAmcEINtB9_19ModifiableAutomatonNtB9_13DeterministicE8add_edges_0Cs43NobSSaLSd_3dfa
FNDA:90,_RNCNvXs2_NtNtCs2hUxDLYgi0n_14vass_reach_lib9automaton3dfaINtB7_3DFAmlEINtB9_19ModifiableAutomatonNtB9_13DeterministicE8add_edge0Cs43NobSSaLSd_3dfa
FNDA:150,_RNCNvXs2_NtNtCs2hUxDLYgi0n_14vass_reach_lib9automaton3dfaINtB7_3DFAmlEINtB9_19ModifiableAutomatonNtB9_13DeterministicE8add_edges_0Cs43NobSSaLSd_3dfa
FNDA:16,_RNCNvXs2_NtNtCs2hUxDLYgi0n_14vass_reach_lib9automaton3dfaINtB7_3DFAucEINtB9_19ModifiableAutomatonNtB9_13DeterministicE8add_edge0Cs43NobSSaLSd_3dfa
FNDA:36,_RNCNvXs2_NtNtCs2hUxDLYgi0n_14vass_reach_lib9automaton3dfaINtB7_3DFAucEINtB9_19ModifiableAutomatonNtB9_13DeterministicE8add_edges_0Cs43NobSSaLSd_3dfa
FNDA:3,_RNvMNtNtCs2hUxDLYgi0n_14vass_reach_lib9automaton3dfaINtB2_3DFAmcE10invert_mutCs43NobSSaLSd_3dfa
FNDA:4,_RNvMNtNtCs2hUxDLYgi0n_14vass_reach_lib9automaton3dfaINtB2_3DFAmcE11is_completeCs43NobSSaLSd_3dfa
FNDA:2,_RNvMNtNtCs2hUxDLYgi0n_14vass_reach_lib9automaton3dfaINtB2_3DFAmcE11reverse_nfaCs43NobSSaLSd_3dfa
FNDA:28,_RNvMNtNtCs2hUxDLYgi0n_14vass_reach_lib9automaton3dfaINtB2_3DFAmcE11set_initialCs43NobSSaLSd_3dfa
FNDA:13,_RNvMNtNtCs2hUxDLYgi0n_14vass_reach_lib9automaton3dfaINtB2_3DFAmcE13make_completeCs43NobSSaLSd_3dfa
FNDA:17,_RNvMNtNtCs2hUxDLYgi0n_14vass_reach_lib9automaton3dfaINtB2_3DFAmcE14check_completeCs43NobSSaLSd_3dfa
FNDA:3,_RNvMNtNtCs2hUxDLYgi0n_14vass_reach_lib9automaton3dfaINtB2_3DFAmcE17has_accepting_runCs43NobSSaLSd_3dfa
FNDA:3,_RNvMNtNtCs2hUxDLYgi0n_14vass_reach_lib9automaton3dfaINtB2_3DFAmcE17is_language_emptyCs43NobSSaLSd_3dfa
FNDA:13,_RNvMNtNtCs2hUxDLYgi0n_14vass_reach_lib9automaton3dfaINtB2_3DFAmcE22set_complete_uncheckedCs43NobSSaLSd_3dfa
FNDA:5,_RNvMNtNtCs2hUxDLYgi0n_14vass_reach_lib9automaton3dfaINtB2_3DFAmcE24find_loop_rooted_in_nodeCs43NobSSaLSd_3dfa
FNDA:3,_RNvMNtNtCs2hUxDLYgi0n_14vass_reach_lib9automaton3dfaINtB2_3DFAmcE25find_loops_rooted_in_nodeCs43NobSSaLSd_3dfa
FNDA:28,_RNvMNtNtCs2hUxDLYgi0n_14vass_reach_lib9automaton3dfaINtB2_3DFAmcE3newCs43NobSSaLSd_3dfa
FNDA:2,_RNvMNtNtCs2hUxDLYgi0n_14vass_reach_lib9automaton3dfaINtB2_3DFAmcE6invertCs43NobSSaLSd_3dfa
FNDA:2,_RNvMNtNtCs2hUxDLYgi0n_14vass_reach_lib9automaton3dfaINtB2_3DFAmcE7reverseCs43NobSSaLSd_3dfa
FNDA:1,_RNvMNtNtCs2hUxDLYgi0n_14vass_reach_lib9automaton3dfaINtB2_3DFAmcE8subgraphCs43NobSSaLSd_3dfa
FNDA:1,_RNvMNtNtCs2hUxDLYgi0n_14vass_reach_lib9automaton3dfaINtB2_3DFAmlE11is_completeCs43NobSSaLSd_3dfa
FNDA:2,_RNvMNtNtCs2hUxDLYgi0n_14vass_reach_lib9automaton3dfaINtB2_3DFAmlE11set_initialCs43NobSSaLSd_3dfa
FNDA:3,_RNvMNtNtCs2hUxDLYgi0n_14vass_reach_lib9automaton3dfaINtB2_3DFAmlE14check_completeCs43NobSSaLSd_3dfa
FNDA:2,_RNvMNtNtCs2hUxDLYgi0n_14vass_reach_lib9automaton3dfaINtB2_3DFAmlE22set_complete_uncheckedCs43NobSSaLSd_3dfa
FNDA:2,_RNvMNtNtCs2hUxDLYgi0n_14vass_reach_lib9automaton3dfaINtB2_3DFAmlE3newCs43NobSSaLSd_3dfa
FNDA:2,_RNvMNtNtCs2hUxDLYgi0n_14vass_reach_lib9automaton3dfaINtB2_3DFAucE11set_initialCs43NobSSaLSd_3dfa
FNDA:2,_RNvMNtNtCs2hUxDLYgi0n_14vass_reach_lib9automaton3dfaINtB2_3DFAucE14check_completeCs43NobSSaLSd_3dfa
FNDA:2,_RNvMNtNtCs2hUxDLYgi0n_14vass_reach_lib9automaton3dfaINtB2_3DFAucE15assert_completeCs43NobSSaLSd_3dfa
FNDA:2,_RNvMNtNtCs2hUxDLYgi0n_14vass_reach_lib9automaton3dfaINtB2_3DFAucE22set_complete_uncheckedCs43NobSSaLSd_3dfa
FNDA:2,_RNvMNtNtCs2hUxDLYgi0n_14vass_reach_lib9automaton3dfaINtB2_3DFAucE3newCs43NobSSaLSd_3dfa
FNDA:13,_RNvXs0_NtNtCs2hUxDLYgi0n_14vass_reach_lib9automaton3dfaINtB5_3DFAmcEINtB7_9AutomatonNtB7_13DeterministicE10node_countCs43NobSSaLSd_3dfa
FNDA:3,_RNvXs0_NtNtCs2hUxDLYgi0n_14vass_reach_lib9automaton3dfaINtB5_3DFAmlEINtB7_9AutomatonNtB7_13DeterministicE10node_countCs43NobSSaLSd_3dfa
FNDA:242,_RNvXs2_NtNtCs2hUxDLYgi0n_14vass_reach_lib9automaton3dfaINtB5_3DFAmcEINtB7_19ModifiableAutomatonNtB7_13DeterministicE8add_edgeCs43NobSSaLSd_3dfa
FNDA:113,_RNvXs2_NtNtCs2hUxDLYgi0n_14vass_reach_lib9automaton3dfaINtB5_3DFAmcEINtB7_19ModifiableAutomatonNtB7_13DeterministicE8add_nodeCs43NobSSaLSd_3dfa
FNDA:60,_RNvXs2_NtNtCs2hUxDLYgi0n_14vass_reach_lib9automaton3dfaINtB5_3DFAmlEINtB7_19ModifiableAutomatonNtB7_13DeterministicE8add_edgeCs43NobSSaLSd_3dfa
FNDA:15,_RNvXs2_NtNtCs2hUxDLYgi0n_14vass_reach_lib9automaton3dfaINtB5_3DFAmlEINtB7_19ModifiableAutomatonNtB7_13DeterministicE8add_nodeCs43NobSSaLSd_3dfa
FNDA:20,_RNvXs2_NtNtCs2hUxDLYgi0n_14vass_reach_lib9automaton3dfaINtB5_3DFAucEINtB7_19ModifiableAutomatonNtB7_13DeterministicE8add_edgeCs43NobSSaLSd_3dfa
FNDA:8,_RNvXs2_NtNtCs2hUxDLYgi0n_14vass_reach_lib9automaton3dfaINtB5_3DFAucEINtB7_19ModifiableAutomatonNtB7_13DeterministicE8add_nodeCs43NobSSaLSd_3dfa
FNDA:62,_RNvXs_NtNtCs2hUxDLYgi0n_14vass_reach_lib9automaton3dfaINtB4_3DFAmcENtB6_8Alphabet8alphabetCs43NobSSaLSd_3dfa
FNDA:10,_RNvXs_NtNtCs2hUxDLYgi0n_14vass_reach_lib9automaton3dfaINtB4_3DFAmlENtB6_8Alphabet8alphabetCs43NobSSaLSd_3dfa
FNDA:2,_RINvMNtNtCs2hUxDLYgi0n_14vass_reach_lib9automaton3dfaINtB3_3DFAuNtNtNtB5_3cfg6update16CFGCounterUpdateE9intersectuEB7_
FNDA:74,_RNCINvMNtNtCs2hUxDLYgi0n_14vass_reach_lib9automaton3dfaINtB5_3DFAuNtNtNtB7_3cfg6update16CFGCounterUpdateE9intersectuE0B9_
FNDA:28641,_RNCNvMNtNtCs2hUxDLYgi0n_14vass_reach_lib9automaton3dfaINtB4_3DFAuNtNtNtB6_3cfg6update16CFGCounterUpdateE14check_complete0B8_
FNDA:23257,_RNCNvMNtNtCs2hUxDLYgi0n_14vass_reach_lib9automaton3dfaINtB4_3DFAuNtNtNtB6_3cfg6update16CFGCounterUpdateE15assert_complete0B8_
FNDA:449,_RNCNvXs1_NtNtCs2hUxDLYgi0n_14vass_reach_lib9automaton3dfaINtB7_3DFAuNtNtNtB9_3cfg6update16CFGCounterUpdateEINtB9_21ExplicitEdgeAutomatonNtB9_13DeterministicE21incoming_edge_indices0Bb_
FNDA:104539,_RNCNvXs1_NtNtCs2hUxDLYgi0n_14vass_reach_lib9automaton3dfaINtB7_3DFAuNtNtNtB9_3cfg6update16CFGCounterUpdateEINtB9_21ExplicitEdgeAutomatonNtB9_13DeterministicE21outgoing_edge_indices0Bb_
FNDA:0,_RNCNvXs1_NtNtCs2hUxDLYgi0n_14vass_reach_lib9automaton3dfaINtB7_3DFAuNtNtNtB9_3cfg6update16CFGCounterUpdateEINtB9_21ExplicitEdgeAutomatonNtB9_13DeterministicE23connecting_edge_indices0Bb_
FNDA:20094,_RNCNvXs2_NtNtCs2hUxDLYgi0n_14vass_reach_lib9automaton3dfaINtB7_3DFAuNtNtNtB9_3cfg6update16CFGCounterUpdateEINtB9_19ModifiableAutomatonNtB9_13DeterministicE8add_edge0Bb_
FNDA:26371,_RNCNvXs2_NtNtCs2hUxDLYgi0n_14vass_reach_lib9automaton3dfaINtB7_3DFAuNtNtNtB9_3cfg6update16CFGCounterUpdateEINtB9_19ModifiableAutomatonNtB9_13DeterministicE8add_edges_0Bb_
FNDA:2,_RNvMNtNtCs2hUxDLYgi0n_14vass_reach_lib9automaton3dfaINtB2_3DFAuNtNtNtB4_3cfg6update16CFGCounterUpdateE10invert_mutB6_
FNDA:10,_RNvMNtNtCs2hUxDLYgi0n_14vass_reach_lib9automaton3dfaINtB2_3DFAuNtNtNtB4_3cfg6update16CFGCounterUpdateE11is_completeB6_
FNDA:28,_RNvMNtNtCs2hUxDLYgi0n_14vass_reach_lib9automaton3dfaINtB2_3DFAuNtNtNtB4_3cfg6update16CFGCounterUpdateE11reverse_nfaB6_
FNDA:159,_RNvMNtNtCs2hUxDLYgi0n_14vass_reach_lib9automaton3dfaINtB2_3DFAuNtNtNtB4_3cfg6update16CFGCounterUpdateE11set_initialB6_
FNDA:163,_RNvMNtNtCs2hUxDLYgi0n_14vass_reach_lib9automaton3dfaINtB2_3DFAuNtNtNtB4_3cfg6update16CFGCounterUpdateE14check_completeB6_
FNDA:140,_RNvMNtNtCs2hUxDLYgi0n_14vass_reach_lib9automaton3dfaINtB2_3DFAuNtNtNtB4_3cfg6update16CFGCounterUpdateE15assert_completeB6_
FNDA:153,_RNvMNtNtCs2hUxDLYgi0n_14vass_reach_lib9automaton3dfaINtB2_3DFAuNtNtNtB4_3cfg6update16CFGCounterUpdateE22set_complete_uncheckedB6_
FNDA:159,_RNvMNtNtCs2hUxDLYgi0n_14vass_reach_lib9automaton3dfaINtB2_3DFAuNtNtNtB4_3cfg6update16CFGCounterUpdateE3newB6_
FNDA:7922,_RNvMNtNtCs2hUxDLYgi0n_14vass_reach_lib9automaton3dfaINtB2_3DFAuNtNtNtB4_3cfg6update16CFGCounterUpdateE7is_trapB6_
FNDA:28,_RNvMNtNtCs2hUxDLYgi0n_14vass_reach_lib9automaton3dfaINtB2_3DFAuNtNtNtB4_3cfg6update16CFGCounterUpdateE7reverseB6_
FNDA:78,_RNvXs0_NtNtCs2hUxDLYgi0n_14vass_reach_lib9automaton3dfaINtB5_3DFAuNtNtNtB7_3cfg6update16CFGCounterUpdateEINtB7_9AutomatonNtB7_13DeterministicE10node_countB9_
FNDA:748,_RNvXs0_NtNtCs2hUxDLYgi0n_14vass_reach_lib9automaton3dfaINtB5_3DFAuNtNtNtB7_3cfg6update16CFGCounterUpdateEINtB7_9AutomatonNtB7_13DeterministicE18get_node_uncheckedB9_
FNDA:0,_RNvXs0_NtNtCs2hUxDLYgi0n_14vass_reach_lib9automaton3dfaINtB5_3DFAuNtNtNtB7_3cfg6update16CFGCounterUpdateEINtB7_9AutomatonNtB7_13DeterministicE8get_nodeB9_
FNDA:18,_RNvXs1_NtNtCs2hUxDLYgi0n_14vass_reach_lib9automaton3dfaINtB5_3DFAuNtNtNtB7_3cfg6update16CFGCounterUpdateEINtB7_21ExplicitEdgeAutomatonNtB7_13DeterministicE10edge_countB9_
FNDA:103983,_RNvXs1_NtNtCs2hUxDLYgi0n_14vass_reach_lib9automaton3dfaINtB5_3DFAuNtNtNtB7_3cfg6update16CFGCounterUpdateEINtB7_21ExplicitEdgeAutomatonNtB7_13DeterministicE18get_edge_uncheckedB9_
FNDA:63,_RNvXs1_NtNtCs2hUxDLYgi0n_14vass_reach_lib9automaton3dfaINtB5_3DFAuNtNtNtB7_3cfg6update16CFGCounterUpdateEINtB7_21ExplicitEdgeAutomatonNtB7_13DeterministicE21incoming_edge_indicesB9_
FNDA:28532,_RNvXs1_NtNtCs2hUxDLYgi0n_14vass_reach_lib9automaton3dfaINtB5_3DFAuNtNtNtB7_3cfg6update16CFGCounterUpdateEINtB7_21ExplicitEdgeAutomatonNtB7_13DeterministicE21outgoing_edge_indicesB9_
FNDA:0,_RNvXs1_NtNtCs2hUxDLYgi0n_14vass_reach_lib9automaton3dfaINtB5_3DFAuNtNtNtB7_3cfg6update16CFGCounterUpdateEINtB7_21ExplicitEdgeAutomatonNtB7_13DeterministicE23connecting_edge_indicesB9_
FNDA:28738,_RNvXs1_NtNtCs2hUxDLYgi0n_14vass_reach_lib9automaton3dfaINtB5_3DFAuNtNtNtB7_3cfg6update16CFGCounterUpdateEINtB7_21ExplicitEdgeAutomatonNtB7_13DeterministicE24edge_endpoints_uncheckedB9_
FNDA:178,_RNvXs1_NtNtCs2hUxDLYgi0n_14vass_reach_lib9automaton3dfaINtB5_3DFAuNtNtNtB7_3cfg6update16CFGCounterUpdateEINtB7_21ExplicitEdgeAutomatonNtB7_13DeterministicE8get_edgeB9_
FNDA:6272,_RNvXs2_NtNtCs2hUxDLYgi0n_14vass_reach_lib9automaton3dfaINtB5_3DFAuNtNtNtB7_3cfg6update16CFGCounterUpdateEINtB7_19ModifiableAutomatonNtB7_13DeterministicE8add_edgeB9_
FNDA:1034,_RNvXs2_NtNtCs2hUxDLYgi0n_14vass_reach_lib9automaton3dfaINtB5_3DFAuNtNtNtB7_3cfg6update16CFGCounterUpdateEINtB7_19ModifiableAutomatonNtB7_13DeterministicE8add_nodeB9_
FNDA:182,_RNvXs3_NtNtCs2hUxDLYgi0n_14vass_reach_lib9automaton3dfaINtB5_3DFAuNtNtNtB7_3cfg6update16CFGCounterUpdateEINtB7_20InitializedAutomatonNtB7_13DeterministicE11get_initialB9_
FNDA:748,_RNvXs3_NtNtCs2hUxDLYgi0n_14vass_reach_lib9automaton3dfaINtB5_3DFAuNtNtNtB7_3cfg6update16CFGCounterUpdateEINtB7_20InitializedAutomatonNtB7_13DeterministicE12is_acceptingB9_
FNDA:604,_RNvXs_NtNtCs2hUxDLYgi0n_14vass_reach_lib9automaton3dfaINtB4_3DFAuNtNtNtB6_3cfg6update16CFGCounterUpdateENtB6_8Alphabet8alphabetB8_
FNDA:0,_RINvMNtNtCs2hUxDLYgi0n_14vass_reach_lib9automaton3dfaINtB3_3DFAppE12is_subset_ofpEB7_
FNDA:0,_RINvMNtNtCs2hUxDLYgi0n_14vass_reach_lib9automaton3dfaINtB3_3DFAppE3bfspEB7_
FNDA:0,_RINvXININtNtCs2hUxDLYgi0n_14vass_reach_lib9automaton3dfas2_0ppEINtB6_3DFAppEINtB8_19ModifiableAutomatonNtB8_13DeterministicE12retain_nodespEBa_
FNDA:0,_RINvXININtNtCs2hUxDLYgi0n_14vass_reach_lib9automaton3dfas4_0ppEINtB6_3DFAppENtB8_8Language7acceptspEBa_
FNDA:0,_RNCINvXININtNtCs2hUxDLYgi0n_14vass_reach_lib9automaton3dfas4_0ppEINtB8_3DFAppENtBa_8Language7acceptspE0Bc_
FNDA:0,_RNCINvXININtNtCs2hUxDLYgi0n_14vass_reach_lib9automaton3dfas4_0ppEINtB8_3DFAppENtBa_8Language7acceptspEs0_0Bc_
FNDA:0,_RNCINvXININtNtCs2hUxDLYgi0n_14vass_reach_lib9automaton3dfas4_0ppEINtB8_3DFAppENtBa_8Language7acceptspEs_0Bc_
FNDA:0,_RNCNvMNtNtCs2hUxDLYgi0n_14vass_reach_lib9automaton3dfaINtB4_3DFAppE13make_complete0B8_
FNDA:0,_RNCNvMNtNtCs2hUxDLYgi0n_14vass_reach_lib9automaton3dfaINtB4_3DFAppE17has_accepting_run0B8_
FNDA:0,_RNCNvMNtNtCs2hUxDLYgi0n_14vass_reach_lib9automaton3dfaINtB4_3DFAppE22remove_trapping_states0B8_
FNDA:0,_RNCNvMNtNtCs2hUxDLYgi0n_14vass_reach_lib9automaton3dfaINtB4_3DFAppE22remove_trapping_statess_0B8_
FNDA:0,_RNCNvXININtNtCs2hUxDLYgi0n_14vass_reach_lib9automaton3dfas5_0ppEINtB7_3DFAppENtNtCs7xuAoyMVi4A_4core3fmt5Debug3fmt0Bb_
FNDA:0,_RNCNvXININtNtCs2hUxDLYgi0n_14vass_reach_lib9automaton3dfas5_0ppEINtB7_3DFAppENtNtCs7xuAoyMVi4A_4core3fmt5Debug3fmts0_0Bb_
FNDA:0,_RNCNvXININtNtCs2hUxDLYgi0n_14vass_reach_lib9automaton3dfas5_0ppEINtB7_3DFAppENtNtCs7xuAoyMVi4A_4core3fmt5Debug3fmts_0Bb_
FNDA:0,_RNvMNtNtCs2hUxDLYgi0n_14vass_reach_lib9automaton3dfaINtB2_3DFAppE13make_completeB6_
FNDA:0,_RNvMNtNtCs2hUxDLYgi0n_14vass_reach_lib9automaton3dfaINtB2_3DFAppE17has_accepting_runB6_
FNDA:0,_RNvMNtNtCs2hUxDLYgi0n_14vass_reach_lib9automaton3dfaINtB2_3DFAppE17is_language_emptyB6_
FNDA:0,_RNvMNtNtCs2hUxDLYgi0n_14vass_reach_lib9automaton3dfaINtB2_3DFAppE20bfs_accepting_statesB6_
FNDA:0,_RNvMNtNtCs2hUxDLYgi0n_14vass_reach_lib9automaton3dfaINtB2_3DFAppE22remove_trapping_statesB6_
FNDA:0,_RNvMNtNtCs2hUxDLYgi0n_14vass_reach_lib9automaton3dfaINtB2_3DFAppE24find_loop_rooted_in_nodeB6_
FNDA:0,_RNvMNtNtCs2hUxDLYgi0n_14vass_reach_lib9automaton3dfaINtB2_3DFAppE25find_loops_rooted_in_nodeB6_
FNDA:0,_RNvMNtNtCs2hUxDLYgi0n_14vass_reach_lib9automaton3dfaINtB2_3DFAppE6invertB6_
FNDA:0,_RNvMNtNtCs2hUxDLYgi0n_14vass_reach_lib9automaton3dfaINtB2_3DFAppE8subgraphB6_
FNDA:0,_RNvXININtNtCs2hUxDLYgi0n_14vass_reach_lib9automaton3dfas1_0ppEINtB5_3DFAppEINtB7_21ExplicitEdgeAutomatonNtB7_13DeterministicE14edge_endpointsB9_
FNDA:0,_RNvXININtNtCs2hUxDLYgi0n_14vass_reach_lib9automaton3dfas2_0ppEINtB5_3DFAppEINtB7_19ModifiableAutomatonNtB7_13DeterministicE11remove_edgeB9_
FNDA:0,_RNvXININtNtCs2hUxDLYgi0n_14vass_reach_lib9automaton3dfas2_0ppEINtB5_3DFAppEINtB7_19ModifiableAutomatonNtB7_13DeterministicE11remove_nodeB9_
FNDA:0,_RNvXININtNtCs2hUxDLYgi0n_14vass_reach_lib9automaton3dfas5_0ppEINtB5_3DFAppENtNtCs7xuAoyMVi4A_4core3fmt5Debug3fmtB9_
FNDA:4,_RINvMNtNtCs2hUxDLYgi0n_14vass_reach_lib9automaton3dfaINtB3_3DFAuNtNtNtB5_3cfg6update16CFGCounterUpdateE3bfsNCNvB2_22remove_trapping_states0ECsjA5qX5JEwPT_16graph_algorithms
FNDA:50,_RNCNvMNtNtCs2hUxDLYgi0n_14vass_reach_lib9automaton3dfaINtB4_3DFAuNtNtNtB6_3cfg6update16CFGCounterUpdateE22remove_trapping_states0CsjA5qX5JEwPT_16graph_algorithms
FNDA:18,_RNCNvMNtNtCs2hUxDLYgi0n_14vass_reach_lib9automaton3dfaINtB4_3DFAuNtNtNtB6_3cfg6update16CFGCounterUpdateE22remove_trapping_statess_0CsjA5qX5JEwPT_16graph_algorithms
FNDA:1,_RNvMNtNtCs2hUxDLYgi0n_14vass_reach_lib9automaton3dfaINtB2_3DFAuNtNtNtB4_3cfg6update16CFGCounterUpdateE22remove_trapping_statesCsjA5qX5JEwPT_16graph_algorithms
FNDA:7,_RNCNvMNtNtCs2hUxDLYgi0n_14vass_reach_lib9automaton3dfaINtB4_3DFAuNtNtNtB6_3cfg6update16CFGCounterUpdateE13make_complete0CsR0JFDIskFR_16implicit_product
FNDA:1,_RNvMNtNtCs2hUxDLYgi0n_14vass_reach_lib9automaton3dfaINtB2_3DFAuNtNtNtB4_3cfg6update16CFGCounterUpdateE13make_completeCsR0JFDIskFR_16implicit_product
FNDA:1785,_RINvXs4_NtNtCs2hUxDLYgi0n_14vass_reach_lib9automaton3dfaINtB6_3DFAuNtNtNtB8_3cfg6update16CFGCounterUpdateENtB8_8Language7acceptsINtNtNtCs7xuAoyMVi4A_4core5slice4iter4IterB13_EECs3ATG82DPHTL_3lgs
FNDA:16149,_RNCINvXs4_NtNtCs2hUxDLYgi0n_14vass_reach_lib9automaton3dfaINtB8_3DFAuNtNtNtBa_3cfg6update16CFGCounterUpdateENtBa_8Language7acceptsINtNtNtCs7xuAoyMVi4A_4core5slice4iter4IterB15_EE0Cs3ATG82DPHTL_3lgs
FNDA:1785,_RNCINvXs4_NtNtCs2hUxDLYgi0n_14vass_reach_lib9automaton3dfaINtB8_3DFAuNtNtNtBa_3cfg6update16CFGCounterUpdateENtBa_8Language7acceptsINtNtNtCs7xuAoyMVi4A_4core5slice4iter4IterB15_EEs0_0Cs3ATG82DPHTL_3lgs
FNDA:10766,_RNCINvXs4_NtNtCs2hUxDLYgi0n_14vass_reach_lib9automaton3dfaINtB8_3DFAuNtNtNtBa_3cfg6update16CFGCounterUpdateENtBa_8Language7acceptsINtNtNtCs7xuAoyMVi4A_4core5slice4iter4IterB15_EEs_0Cs3ATG82DPHTL_3lgs
FNDA:37324,_RINvXs4_NtNtCs2hUxDLYgi0n_14vass_reach_lib9automaton3dfaINtB6_3DFAuNtNtNtB8_3cfg6update16CFGCounterUpdateENtB8_8Language7acceptsINtNtNtCs7xuAoyMVi4A_4core5slice4iter4IterB13_EECsdx2WVSQjOLl_3ltc
FNDA:627060,_RNCINvXs4_NtNtCs2hUxDLYgi0n_14vass_reach_lib9automaton3dfaINtB8_3DFAuNtNtNtBa_3cfg6update16CFGCounterUpdateENtBa_8Language7acceptsINtNtNtCs7xuAoyMVi4A_4core5slice4iter4IterB15_EE0Csdx2WVSQjOLl_3ltc
FNDA:37324,_RNCINvXs4_NtNtCs2hUxDLYgi0n_14vass_reach_lib9automaton3dfaINtB8_3DFAuNtNtNtBa_3cfg6update16CFGCounterUpdateENtBa_8Language7acceptsINtNtNtCs7xuAoyMVi4A_4core5slice4iter4IterB15_EEs0_0Csdx2WVSQjOLl_3ltc
FNDA:179160,_RNCINvXs4_NtNtCs2hUxDLYgi0n_14vass_reach_lib9automaton3dfaINtB8_3DFAuNtNtNtBa_3cfg6update16CFGCounterUpdateENtBa_8Language7acceptsINtNtNtCs7xuAoyMVi4A_4core5slice4iter4IterB15_EEs_0Csdx2WVSQjOLl_3ltc
FNDA:2,_RNvMNtNtCs2hUxDLYgi0n_14vass_reach_lib9automaton3dfaINtB2_3DFAuNtNtNtB4_3cfg6update16CFGCounterUpdateE6invertCsdx2WVSQjOLl_3ltc
FNDA:3469,_RINvXs4_NtNtCs2hUxDLYgi0n_14vass_reach_lib9automaton3dfaINtB6_3DFAucENtB8_8Language7acceptsINtNtNtCs7xuAoyMVi4A_4core5slice4iter4ItercEECsbz10sC9QTBK_3nfa
FNDA:43809,_RNCINvXs4_NtNtCs2hUxDLYgi0n_14vass_reach_lib9automaton3dfaINtB8_3DFAucENtBa_8Language7acceptsINtNtNtCs7xuAoyMVi4A_4core5slice4iter4ItercEE0Csbz10sC9QTBK_3nfa
FNDA:3469,_RNCINvXs4_NtNtCs2hUxDLYgi0n_14vass_reach_lib9automaton3dfaINtB8_3DFAucENtBa_8Language7acceptsINtNtNtCs7xuAoyMVi4A_4core5slice4iter4ItercEEs0_0Csbz10sC9QTBK_3nfa
FNDA:22098,_RNCINvXs4_NtNtCs2hUxDLYgi0n_14vass_reach_lib9automaton3dfaINtB8_3DFAucENtBa_8Language7acceptsINtNtNtCs7xuAoyMVi4A_4core5slice4iter4ItercEEs_0Csbz10sC9QTBK_3nfa
FNDA:75,_RNCNvMNtNtCs2hUxDLYgi0n_14vass_reach_lib9automaton3dfaINtB4_3DFAucE14check_complete0Csbz10sC9QTBK_3nfa
FNDA:75,_RNCNvMNtNtCs2hUxDLYgi0n_14vass_reach_lib9automaton3dfaINtB4_3DFAucE15assert_complete0Csbz10sC9QTBK_3nfa
FNDA:31,_RNCNvXs2_NtNtCs2hUxDLYgi0n_14vass_reach_lib9automaton3dfaINtB7_3DFAucEINtB9_19ModifiableAutomatonNtB9_13DeterministicE8add_edge0Csbz10sC9QTBK_3nfa
FNDA:75,_RNCNvXs2_NtNtCs2hUxDLYgi0n_14vass_reach_lib9automaton3dfaINtB7_3DFAucEINtB9_19ModifiableAutomatonNtB9_13DeterministicE8add_edges_0Csbz10sC9QTBK_3nfa
FNDA:4,_RNvMNtNtCs2hUxDLYgi0n_14vass_reach_lib9automaton3dfaINtB2_3DFAucE11set_initialCsbz10sC9QTBK_3nfa
FNDA:4,_RNvMNtNtCs2hUxDLYgi0n_14vass_reach_lib9automaton3dfaINtB2_3DFAucE14check_completeCsbz10sC9QTBK_3nfa
FNDA:4,_RNvMNtNtCs2hUxDLYgi0n_14vass_reach_lib9automaton3dfaINtB2_3DFAucE15assert_completeCsbz10sC9QTBK_3nfa
FNDA:4,_RNvMNtNtCs2hUxDLYgi0n_14vass_reach_lib9automaton3dfaINtB2_3DFAucE22set_complete_uncheckedCsbz10sC9QTBK_3nfa
FNDA:4,_RNvMNtNtCs2hUxDLYgi0n_14vass_reach_lib9automaton3dfaINtB2_3DFAucE3newCsbz10sC9QTBK_3nfa
FNDA:1,_RNvXs0_NtNtCs2hUxDLYgi0n_14vass_reach_lib9automaton3dfaINtB5_3DFAucEINtB7_9AutomatonNtB7_13DeterministicE10node_countCsbz10sC9QTBK_3nfa
FNDA:44,_RNvXs2_NtNtCs2hUxDLYgi0n_14vass_reach_lib9automaton3dfaINtB5_3DFAucEINtB7_19ModifiableAutomatonNtB7_13DeterministicE8add_edgeCsbz10sC9QTBK_3nfa
FNDA:19,_RNvXs2_NtNtCs2hUxDLYgi0n_14vass_reach_lib9automaton3dfaINtB5_3DFAucEINtB7_19ModifiableAutomatonNtB7_13DeterministicE8add_nodeCsbz10sC9QTBK_3nfa
FNDA:4,_RNvXs_NtNtCs2hUxDLYgi0n_14vass_reach_lib9automaton3dfaINtB4_3DFAucENtB6_8Alphabet8alphabetCsbz10sC9QTBK_3nfa
FNDA:126,_RINvXs4_NtNtCs2hUxDLYgi0n_14vass_reach_lib9automaton3dfaINtB6_3DFAucENtB8_8Language7acceptsINtNtNtCs7xuAoyMVi4A_4core5slice4iter4ItercEECs5AE6hNTjqZK_13nfa_invariant
FNDA:774,_RNCINvXs4_NtNtCs2hUxDLYgi0n_14vass_reach_lib9automaton3dfaINtB8_3DFAucENtBa_8Language7acceptsINtNtNtCs7xuAoyMVi4A_4core5slice4iter4ItercEE0Cs5AE6hNTjqZK_13nfa_invariant
FNDA:126,_RNCINvXs4_NtNtCs2hUxDLYgi0n_14vass_reach_lib9automaton3dfaINtB8_3DFAucENtBa_8Language7acceptsINtNtNtCs7xuAoyMVi4A_4core5slice4iter4ItercEEs0_0Cs5AE6hNTjqZK_13nfa_invariant
FNDA:516,_RNCINvXs4_NtNtCs2hUxDLYgi0n_14vass_reach_lib9automaton3dfaINtB8_3DFAucENtBa_8Language7acceptsINtNtNtCs7xuAoyMVi4A_4core5slice4iter4ItercEEs_0Cs5AE6hNTjqZK_13nfa_invariant
FNDA:30,_RNCNvMNtNtCs2hUxDLYgi0n_14vass_reach_lib9automaton3dfaINtB4_3DFAucE14check_complete0Cs5AE6hNTjqZK_13nfa_invariant
FNDA:30,_RNCNvMNtNtCs2hUxDLYgi0n_14vass_reach_lib9automaton3dfaINtB4_3DFAucE15assert_complete0Cs5AE6hNTjqZK_13nfa_invariant
FNDA:10,_RNCNvXs2_NtNtCs2hUxDLYgi0n_14vass_reach_lib9automaton3dfaINtB7_3DFAucEINtB9_19ModifiableAutomatonNtB9_13DeterministicE8add_edge0Cs5AE6hNTjqZK_13nfa_invariant
FNDA:30,_RNCNvXs2_NtNtCs2hUxDLYgi0n_14vass_reach_lib9automaton3dfaINtB7_3DFAucEINtB9_19ModifiableAutomatonNtB9_13DeterministicE8add_edges_0Cs5AE6hNTjqZK_13nfa_invariant
FNDA:2,_RNvMNtNtCs2hUxDLYgi0n_14vass_reach_lib9automaton3dfaINtB2_3DFAucE11set_initialCs5AE6hNTjqZK_13nfa_invariant
FNDA:2,_RNvMNtNtCs2hUxDLYgi0n_14vass_reach_lib9automaton3dfaINtB2_3DFAucE14check_completeCs5AE6hNTjqZK_13nfa_invariant
FNDA:2,_RNvMNtNtCs2hUxDLYgi0n_14vass_reach_lib9automaton3dfaINtB2_3DFAucE15assert_completeCs5AE6hNTjqZK_13nfa_invariant
FNDA:2,_RNvMNtNtCs2hUxDLYgi0n_14vass_reach_lib9automaton3dfaINtB2_3DFAucE22set_complete_uncheckedCs5AE6hNTjqZK_13nfa_invariant
FNDA:2,_RNvMNtNtCs2hUxDLYgi0n_14vass_reach_lib9automaton3dfaINtB2_3DFAucE3newCs5AE6hNTjqZK_13nfa_invariant
FNDA:20,_RNvXs2_NtNtCs2hUxDLYgi0n_14vass_reach_lib9automaton3dfaINtB5_3DFAucEINtB7_19ModifiableAutomatonNtB7_13DeterministicE8add_edgeCs5AE6hNTjqZK_13nfa_invariant
FNDA:10,_RNvXs2_NtNtCs2hUxDLYgi0n_14vass_reach_lib9automaton3dfaINtB5_3DFAucEINtB7_19ModifiableAutomatonNtB7_13DeterministicE8add_nodeCs5AE6hNTjqZK_13nfa_invariant
FNDA:2,_RNvXs_NtNtCs2hUxDLYgi0n_14vass_reach_lib9automaton3dfaINtB4_3DFAucENtB6_8Alphabet8alphabetCs5AE6hNTjqZK_13nfa_invariant
FNDA:2,_RNCNvXs1_NtNtCs2hUxDLYgi0n_14vass_reach_lib9automaton3dfaINtB7_3DFAucEINtB9_21ExplicitEdgeAutomatonNtB9_13DeterministicE21outgoing_edge_indices0Cs9XXF3XtrrPR_4path
FNDA:0,_RNCNvXs2_NtNtCs2hUxDLYgi0n_14vass_reach_lib9automaton3dfaINtB7_3DFAucEINtB9_19ModifiableAutomatonNtB9_13DeterministicE8add_edge0Cs9XXF3XtrrPR_4path
FNDA:1,_RNCNvXs2_NtNtCs2hUxDLYgi0n_14vass_reach_lib9automaton3dfaINtB7_3DFAucEINtB9_19ModifiableAutomatonNtB9_13DeterministicE8add_edges_0Cs9XXF3XtrrPR_4path
FNDA:1,_RNvMNtNtCs2hUxDLYgi0n_14vass_reach_lib9automaton3dfaINtB2_3DFAucE11set_initialCs9XXF3XtrrPR_4path
FNDA:1,_RNvMNtNtCs2hUxDLYgi0n_14vass_reach_lib9automaton3dfaINtB2_3DFAucE3newCs9XXF3XtrrPR_4path
FNDA:2,_RNvXs1_NtNtCs2hUxDLYgi0n_14vass_reach_lib9automaton3dfaINtB5_3DFAucEINtB7_21ExplicitEdgeAutomatonNtB7_13DeterministicE18get_edge_uncheckedCs9XXF3XtrrPR_4path
FNDA:3,_RNvXs1_NtNtCs2hUxDLYgi0n_14vass_reach_lib9automaton3dfaINtB5_3DFAucEINtB7_21ExplicitEdgeAutomatonNtB7_13DeterministicE21outgoing_edge_indicesCs9XXF3XtrrPR_4path
FNDA:2,_RNvXs1_NtNtCs2hUxDLYgi0n_14vass_reach_lib9automaton3dfaINtB5_3DFAucEINtB7_21ExplicitEdgeAutomatonNtB7_13DeterministicE24edge_endpoints_uncheckedCs9XXF3XtrrPR_4path
FNDA:1,_RNvXs2_NtNtCs2hUxDLYgi0n_14vass_reach_lib9automaton3dfaINtB5_3DFAucEINtB7_19ModifiableAutomatonNtB7_13DeterministicE8add_edgeCs9XXF3XtrrPR_4path
FNDA:2,_RNvXs2_NtNtCs2hUxDLYgi0n_14vass_reach_lib9automaton3dfaINtB5_3DFAucEINtB7_19ModifiableAutomatonNtB7_13DeterministicE8add_nodeCs9XXF3XtrrPR_4path
FNDA:84,_RNCNvMNtNtCs2hUxDLYgi0n_14vass_reach_lib9automaton3dfaINtB4_3DFAuNtNtNtB6_3cfg6update16CFGCounterUpdateE13make_complete0CsgHwEJVtWcfn_14petri_net_spec
FNDA:1,_RNvMNtNtCs2hUxDLYgi0n_14vass_reach_lib9automaton3dfaINtB2_3DFAuNtNtNtB4_3cfg6update16CFGCounterUpdateE13make_completeCsgHwEJVtWcfn_14petri_net_spec
FNDA:1888,_RNCNvMNtNtCs2hUxDLYgi0n_14vass_reach_lib9automaton3dfaINtB4_3DFAuNtNtNtB6_3cfg6update16CFGCounterUpdateE13make_complete0CsaYjQXJDQq9v_12vass_n_reach
FNDA:7,_RNvMNtNtCs2hUxDLYgi0n_14vass_reach_lib9automaton3dfaINtB2_3DFAuNtNtNtB4_3cfg6update16CFGCounterUpdateE13make_completeCsaYjQXJDQq9v_12vass_n_reach
FNDA:0,_RINvMNtNtCs8RRi2RJs6bh_14vass_reach_lib9automaton3dfaINtB3_3DFAppE12is_subset_ofpEB7_
FNDA:0,_RINvMNtNtCs8RRi2RJs6bh_14vass_reach_lib9automaton3dfaINtB3_3DFAppE3bfspEB7_
FNDA:0,_RINvMNtNtCs8RRi2RJs6bh_14vass_reach_lib9automaton3dfaINtB3_3DFAppE9intersectpEB7_
FNDA:0,_RINvXININtNtCs8RRi2RJs6bh_14vass_reach_lib9automaton3dfas2_0ppEINtB6_3DFAppEINtB8_19ModifiableAutomatonNtB8_13DeterministicE12retain_nodespEBa_
FNDA:0,_RINvXININtNtCs8RRi2RJs6bh_14vass_reach_lib9automaton3dfas4_0ppEINtB6_3DFAppENtB8_8Language7acceptspEBa_
FNDA:0,_RNCINvMNtNtCs8RRi2RJs6bh_14vass_reach_lib9automaton3dfaINtB5_3DFAppE9intersectpE0B9_
FNDA:0,_RNCINvXININtNtCs8RRi2RJs6bh_14vass_reach_lib9automaton3dfas4_0ppEINtB8_3DFAppENtBa_8Language7acceptspE0Bc_
FNDA:0,_RNCINvXININtNtCs8RRi2RJs6bh_14vass_reach_lib9automaton3dfas4_0ppEINtB8_3DFAppENtBa_8Language7acceptspEs0_0Bc_
FNDA:0,_RNCINvXININtNtCs8RRi2RJs6bh_14vass_reach_lib9automaton3dfas4_0ppEINtB8_3DFAppENtBa_8Language7acceptspEs_0Bc_
FNDA:0,_RNCNvMNtNtCs8RRi2RJs6bh_14vass_reach_lib9automaton3dfaINtB4_3DFAppE13make_complete0B8_
FNDA:0,_RNCNvMNtNtCs8RRi2RJs6bh_14vass_reach_lib9automaton3dfaINtB4_3DFAppE14check_complete0B8_
FNDA:0,_RNCNvMNtNtCs8RRi2RJs6bh_14vass_reach_lib9automaton3dfaINtB4_3DFAppE15assert_complete0B8_
FNDA:0,_RNCNvMNtNtCs8RRi2RJs6bh_14vass_reach_lib9automaton3dfaINtB4_3DFAppE17has_accepting_run0B8_
FNDA:0,_RNCNvMNtNtCs8RRi2RJs6bh_14vass_reach_lib9automaton3dfaINtB4_3DFAppE22remove_trapping_states0B8_
FNDA:0,_RNCNvMNtNtCs8RRi2RJs6bh_14vass_reach_lib9automaton3dfaINtB4_3DFAppE22remove_trapping_statess_0B8_
FNDA:0,_RNCNvXININtNtCs8RRi2RJs6bh_14vass_reach_lib9automaton3dfas1_0ppEINtB7_3DFAppEINtB9_21ExplicitEdgeAutomatonNtB9_13DeterministicE21incoming_edge_indices0Bb_
FNDA:0,_RNCNvXININtNtCs8RRi2RJs6bh_14vass_reach_lib9automaton3dfas1_0ppEINtB7_3DFAppEINtB9_21ExplicitEdgeAutomatonNtB9_13DeterministicE21outgoing_edge_indices0Bb_
FNDA:0,_RNCNvXININtNtCs8RRi2RJs6bh_14vass_reach_lib9automaton3dfas1_0ppEINtB7_3DFAppEINtB9_21ExplicitEdgeAutomatonNtB9_13DeterministicE23connecting_edge_indices0Bb_
FNDA:0,_RNCNvXININtNtCs8RRi2RJs6bh_14vass_reach_lib9automaton3dfas2_0ppEINtB7_3DFAppEINtB9_19ModifiableAutomatonNtB9_13DeterministicE8add_edge0Bb_
FNDA:0,_RNCNvXININtNtCs8RRi2RJs6bh_14vass_reach_lib9automaton3dfas2_0ppEINtB7_3DFAppEINtB9_19ModifiableAutomatonNtB9_13DeterministicE8add_edges_0Bb_
FNDA:0,_RNCNvXININtNtCs8RRi2RJs6bh_14vass_reach_lib9automaton3dfas5_0ppEINtB7_3DFAppENtNtCs7xuAoyMVi4A_4core3fmt5Debug3fmt0Bb_
FNDA:0,_RNCNvXININtNtCs8RRi2RJs6bh_14vass_reach_lib9automaton3dfas5_0ppEINtB7_3DFAppENtNtCs7xuAoyMVi4A_4core3fmt5Debug3fmts0_0Bb_
FNDA:0,_RNCNvXININtNtCs8RRi2RJs6bh_14vass_reach_lib9automaton3dfas5_0ppEINtB7_3DFAppENtNtCs7xuAoyMVi4A_4core3fmt5Debug3fmts_0Bb_
FNDA:0,_RNvMNtNtCs8RRi2RJs6bh_14vass_reach_lib9automaton3dfaINtB2_3DFAppE10invert_mutB6_
FNDA:0,_RNvMNtNtCs8RRi2RJs6bh_14vass_reach_lib9automaton3dfaINtB2_3DFAppE11is_completeB6_
FNDA:0,_RNvMNtNtCs8RRi2RJs6bh_14vass_reach_lib9automaton3dfaINtB2_3DFAppE11reverse_nfaB6_
FNDA:0,_RNvMNtNtCs8RRi2RJs6bh_14vass_reach_lib9automaton3dfaINtB2_3DFAppE11set_initialB6_
FNDA:0,_RNvMNtNtCs8RRi2RJs6bh_14vass_reach_lib9automaton3dfaINtB2_3DFAppE13make_completeB6_
FNDA:0,_RNvMNtNtCs8RRi2RJs6bh_14vass_reach_lib9automaton3dfaINtB2_3DFAppE14check_completeB6_
FNDA:0,_RNvMNtNtCs8RRi2RJs6bh_14vass_reach_lib9automaton3dfaINtB2_3DFAppE15assert_completeB6_
FNDA:0,_RNvMNtNtCs8RRi2RJs6bh_14vass_reach_lib9automaton3dfaINtB2_3DFAppE17has_accepting_runB6_
FNDA:0,_RNvMNtNtCs8RRi2RJs6bh_14vass_reach_lib9automaton3dfaINtB2_3DFAppE17is_language_emptyB6_
FNDA:0,_RNvMNtNtCs8RRi2RJs6bh_14vass_reach_lib9automaton3dfaINtB2_3DFAppE20bfs_accepting_statesB6_
FNDA:0,_RNvMNtNtCs8RRi2RJs6bh_14vass_reach_lib9automaton3dfaINtB2_3DFAppE22remove_trapping_statesB6_
FNDA:0,_RNvMNtNtCs8RRi2RJs6bh_14vass_reach_lib9automaton3dfaINtB2_3DFAppE22set_complete_uncheckedB6_
FNDA:0,_RNvMNtNtCs8RRi2RJs6bh_14vass_reach_lib9automaton3dfaINtB2_3DFAppE24find_loop_rooted_in_nodeB6_
FNDA:0,_RNvMNtNtCs8RRi2RJs6bh_14vass_reach_lib9automaton3dfaINtB2_3DFAppE25find_loops_rooted_in_nodeB6_
FNDA:0,_RNvMNtNtCs8RRi2RJs6bh_14vass_reach_lib9automaton3dfaINtB2_3DFAppE3newB6_
FNDA:0,_RNvMNtNtCs8RRi2RJs6bh_14vass_reach_lib9automaton3dfaINtB2_3DFAppE6invertB6_
FNDA:0,_RNvMNtNtCs8RRi2RJs6bh_14vass_reach_lib9automaton3dfaINtB2_3DFAppE7is_trapB6_
FNDA:0,_RNvMNtNtCs8RRi2RJs6bh_14vass_reach_lib9automaton3dfaINtB2_3DFAppE7reverseB6_
FNDA:0,_RNvMNtNtCs8RRi2RJs6bh_14vass_reach_lib9automaton3dfaINtB2_3DFAppE8subgraphB6_
FNDA:0,_RNvXININtNtCs8RRi2RJs6bh_14vass_reach_lib9automaton3dfas0_0ppEINtB5_3DFAppEINtB7_9AutomatonNtB7_13DeterministicE10node_countB9_
FNDA:0,_RNvXININtNtCs8RRi2RJs6bh_14vass_reach_lib9automaton3dfas0_0ppEINtB5_3DFAppEINtB7_9AutomatonNtB7_13DeterministicE18get_node_uncheckedB9_
FNDA:0,_RNvXININtNtCs8RRi2RJs6bh_14vass_reach_lib9automaton3dfas0_0ppEINtB5_3DFAppEINtB7_9AutomatonNtB7_13DeterministicE8get_nodeB9_
FNDA:0,_RNvXININtNtCs8RRi2RJs6bh_14vass_reach_lib9automaton3dfas1_0ppEINtB5_3DFAppEINtB7_21ExplicitEdgeAutomatonNtB7_13DeterministicE10edge_countB9_
FNDA:0,_RNvXININtNtCs8RRi2RJs6bh_14vass_reach_lib9automaton3dfas1_0ppEINtB5_3DFAppEINtB7_21ExplicitEdgeAutomatonNtB7_13DeterministicE14edge_endpointsB9_
FNDA:0,_RNvXININtNtCs8RRi2RJs6bh_14vass_reach_lib9automaton3dfas1_0ppEINtB5_3DFAppEINtB7_21ExplicitEdgeAutomatonNtB7_13DeterministicE18get_edge_uncheckedB9_
FNDA:0,_RNvXININtNtCs8RRi2RJs6bh_14vass_reach_lib9automaton3dfas1_0ppEINtB5_3DFAppEINtB7_21ExplicitEdgeAutomatonNtB7_13DeterministicE21incoming_edge_indicesB9_
FNDA:0,_RNvXININtNtCs8RRi2RJs6bh_14vass_reach_lib9automaton3dfas1_0ppEINtB5_3DFAppEINtB7_21ExplicitEdgeAutomatonNtB7_13DeterministicE21outgoing_edge_indicesB9_
FNDA:0,_RNvXININtNtCs8RRi2RJs6bh_14vass_reach_lib9automaton3dfas1_0ppEINtB5_3DFAppEINtB7_21ExplicitEdgeAutomatonNtB7_13DeterministicE23connecting_edge_indicesB9_
FNDA:0,_RNvXININtNtCs8RRi2RJs6bh_14vass_reach_lib9automaton3dfas1_0ppEINtB5_3DFAppEINtB7_21ExplicitEdgeAutomatonNtB7_13DeterministicE24edge_endpoints_uncheckedB9_
FNDA:0,_RNvXININtNtCs8RRi2RJs6bh_14vass_reach_lib9automaton3dfas1_0ppEINtB5_3DFAppEINtB7_21ExplicitEdgeAutomatonNtB7_13DeterministicE8get_edgeB9_
FNDA:0,_RNvXININtNtCs8RRi2RJs6bh_14vass_reach_lib9automaton3dfas2_0ppEINtB5_3DFAppEINtB7_19ModifiableAutomatonNtB7_13DeterministicE11remove_edgeB9_
FNDA:0,_RNvXININtNtCs8RRi2RJs6bh_14vass_reach_lib9automaton3dfas2_0ppEINtB5_3DFAppEINtB7_19ModifiableAutomatonNtB7_13DeterministicE11remove_nodeB9_
FNDA:0,_RNvXININtNtCs8RRi2RJs6bh_14vass_reach_lib9automaton3dfas2_0ppEINtB5_3DFAppEINtB7_19ModifiableAutomatonNtB7_13DeterministicE8add_edgeB9_
FNDA:0,_RNvXININtNtCs8RRi2RJs6bh_14vass_reach_lib9automaton3dfas2_0ppEINtB5_3DFAppEINtB7_19ModifiableAutomatonNtB7_13DeterministicE8add_nodeB9_
FNDA:0,_RNvXININtNtCs8RRi2RJs6bh_14vass_reach_lib9automaton3dfas3_0ppEINtB5_3DFAppEINtB7_20InitializedAutomatonNtB7_13DeterministicE11get_initialB9_
FNDA:0,_RNvXININtNtCs8RRi2RJs6bh_14vass_reach_lib9automaton3dfas3_0ppEINtB5_3DFAppEINtB7_20InitializedAutomatonNtB7_13DeterministicE12is_acceptingB9_
FNDA:0,_RNvXININtNtCs8RRi2RJs6bh_14vass_reach_lib9automaton3dfas5_0ppEINtB5_3DFAppENtNtCs7xuAoyMVi4A_4core3fmt5Debug3fmtB9_
FNDA:0,_RNvXININtNtCs8RRi2RJs6bh_14vass_reach_lib9automaton3dfas_0ppEINtB5_3DFAppENtB7_8Alphabet8alphabetB9_
FNDA:336,_RNCNvMNtNtCs2hUxDLYgi0n_14vass_reach_lib9automaton3dfaINtB4_3DFAuNtNtNtB6_3cfg6update16CFGCounterUpdateE13make_complete0CseoIxkIhB6T8_12vass_z_reach
FNDA:1,_RNvMNtNtCs2hUxDLYgi0n_14vass_reach_lib9automaton3dfaINtB2_3DFAuNtNtNtB4_3cfg6update16CFGCounterUpdateE13make_completeCseoIxkIhB6T8_12vass_z_reach
FNF:61
FNH:49
DA:32,198
DA:33,198
DA:35,198
DA:36,198
DA:37,198
DA:38,198
DA:39,198
DA:40,198
DA:41,198
DA:43,198
DA:44,198
DA:45,198
DA:47,7922
DA:48,7922
DA:49,7922
DA:51,15
DA:57,15
DA:58,15
DA:59,15
DA:61,15
DA:65,176
DA:68,176
DA:71,176
DA:72,176
DA:77,191
DA:78,1215
DA:79,7098
DA:80,7098
DA:81,7098
DA:82,7098
DA:83,29281
DA:85,7098
DA:86,0
DA:87,7098
DA:91,191
DA:92,191
DA:99,148
DA:100,878
DA:101,5498
DA:102,5498
DA:103,5498
DA:104,5498
DA:105,23398
DA:107,5498
DA:108,5498
DA:115,148
DA:119,23
DA:120,23
DA:122,115
DA:123,621
DA:124,621
DA:125,621
DA:126,621
DA:127,2419
DA:129,621
DA:130,49
DA:131,572
DA:135,23
DA:136,14
DA:138,49
DA:139,49
DA:140,49
DA:142,31
DA:143,31
DA:144,31
DA:146,14
DA:148,14
DA:149,9
DA:151,9
DA:153,9
DA:154,23
DA:158,1
DA:159,1
DA:160,1
DA:162,18
DA:163,18
DA:164,14
DA:165,4
DA:167,50
DA:168,50
DA:169,50
DA:171,4
DA:172,1
DA:173,1
DA:174,15
DA:175,81
DA:176,81
DA:177,81
DA:182,18
DA:183,1
DA:189,4
DA:190,4
DA:191,4
DA:193,4
DA:194,48
DA:195,48
DA:197,48
DA:198,4
DA:199,44
DA:202,256
DA:203,256
DA:204,256
DA:206,4
DA:208,4
DA:209,4
DA:214,5
DA:215,5
DA:217,49
DA:218,49
DA:219,49
DA:220,5
DA:222,30
DA:223,30
DA:224,30
DA:226,30
DA:227,30
DA:228,30
DA:230,30
DA:232,150
DA:233,150
DA:234,150
DA:236,150
DA:237,30
DA:238,120
DA:240,150
DA:241,58
DA:242,92
DA:245,1010
DA:246,1010
DA:247,1010
DA:248,1010
DA:249,1010
DA:250,1010
DA:252,30
DA:253,30
DA:255,30
DA:256,30
DA:257,30
DA:261,5
DA:262,5
DA:263,5
DA:265,5
DA:266,5
DA:273,5
DA:274,5
DA:276,5
DA:277,5
DA:279,5
DA:284,5
DA:285,5
DA:288,5
DA:291,5
DA:294,5
DA:296,5
DA:297,5
DA:298,5
DA:300,5
DA:302,97
DA:303,92
DA:305,184
DA:306,368
DA:307,368
DA:308,184
DA:309,184
DA:310,184
DA:311,87
DA:312,87
DA:313,87
DA:315,87
DA:316,87
DA:317,87
DA:319,184
DA:320,184
DA:325,5
DA:327,5
DA:328,5
DA:330,4
DA:331,4
DA:332,4
DA:333,4
DA:334,4
DA:335,4
DA:336,4
DA:337,4
DA:339,4
DA:340,4
DA:342,54
DA:343,50
DA:345,50
DA:346,15
DA:347,35
DA:349,50
DA:351,200
DA:352,200
DA:353,46
DA:354,46
DA:355,46
DA:356,154
DA:360,4
DA:361,4
DA:363,0
DA:364,0
DA:365,0
DA:366,0
DA:367,0
DA:368,0
DA:377,3
DA:378,3
DA:379,3
DA:380,3
DA:381,9
DA:383,1
DA:384,2
DA:386,2
DA:387,2
DA:388,2
DA:390,6
DA:391,6
DA:392,2
DA:393,4
DA:395,4
DA:397,8
DA:398,8
DA:399,5
DA:400,5
DA:404,0
DA:405,3
DA:409,3
DA:410,3
DA:411,3
DA:419,3
DA:420,3
DA:421,3
DA:422,3
DA:426,3
DA:427,3
DA:429,5
DA:430,5
DA:431,5
DA:432,5
DA:433,5
DA:434,5
DA:435,5
DA:437,18
DA:438,18
DA:440,43
DA:441,43
DA:443,43
DA:444,5
DA:445,5
DA:446,38
DA:448,38
DA:449,20
DA:450,18
DA:451,18
DA:452,18
DA:453,18
DA:454,18
DA:455,18
DA:460,0
DA:461,5
DA:463,3
DA:464,3
DA:465,3
DA:466,3
DA:467,3
DA:468,3
DA:469,3
DA:470,3
DA:472,28
DA:473,25
DA:475,75
DA:476,75
DA:478,75
DA:479,5
DA:480,5
DA:481,5
DA:482,70
DA:484,70
DA:485,22
DA:486,22
DA:487,22
DA:488,48
DA:492,3
DA:493,3
DA:500,1
DA:501,1
DA:502,1
DA:503,1
DA:505,1
DA:508,1
DA:510,3
DA:511,3
DA:512,3
DA:513,3
DA:515,3
DA:516,3
DA:517,3
DA:518,2
DA:519,2
DA:520,2
DA:521,2
DA:525,1
DA:526,1
DA:527,1
DA:528,1
DA:529,1
DA:531,1
DA:532,1
DA:538,682
DA:539,682
DA:540,682
DA:547,95
DA:548,95
DA:549,95
DA:551,0
DA:552,0
DA:553,0
DA:555,748
DA:556,748
DA:557,748
DA:566,18
DA:567,18
DA:568,18
DA:570,178
DA:571,178
DA:572,178
DA:574,103985
DA:575,103985
DA:576,103985
DA:578,0
DA:579,0
DA:580,0
DA:582,28740
DA:583,28740
DA:584,28740
DA:586,28535
DA:587,28535
DA:588,28535
DA:589,104541
DA:590,28535
DA:592,63
DA:593,63
DA:594,63
DA:595,449
DA:596,63
DA:598,0
DA:599,0
DA:600,0
DA:601,0
DA:602,0
DA:603,0
DA:604,0
DA:605,0
DA:606,0
DA:612,1201
DA:613,1201
DA:614,1201
DA:616,6659
DA:617,6659
DA:618,27078
DA:624,6659
DA:625,6659
DA:626,6659
DA:627,20408
DA:628,6659
DA:629,0
DA:630,0
DA:631,0
DA:635,0
DA:636,6659
DA:638,6659
DA:639,6659
DA:641,0
DA:642,0
DA:643,0
DA:645,0
DA:646,0
DA:647,0
DA:649,0
DA:650,0
DA:651,0
DA:653,0
DA:654,0
DA:655,0
DA:656,0
DA:658,0
DA:664,182
DA:665,182
DA:666,182
DA:668,748
DA:669,748
DA:670,748
DA:674,134464
DA:675,134464
DA:676,134464
DA:678,134464
DA:680,134464
DA:681,829024
DA:682,829024
DA:683,829024
DA:688,829024
DA:689,829023
DA:690,829023
DA:691,829023
DA:692,2195031
DA:693,829023
DA:694,829023
DA:696,1
DA:700,134463
DA:701,134463
DA:702,0
DA:704,134464
DA:708,0
DA:709,0
DA:710,0
DA:711,0
DA:712,0
DA:713,0
DA:714,0
DA:715,0
DA:716,0
DA:717,0
DA:718,0
DA:720,0
DA:721,0
DA:722,0
DA:723,0
DA:724,0
DA:725,0
DA:726,0
DA:727,0
DA:729,0
DA:730,0
DA:731,0
DA:732,0
DA:733,0
DA:734,0
DA:735,0
DA:736,0
DA:737,0
DA:738,0
DA:739,0
DA:740,0
DA:741,0
DA:742,0
DA:743,0
DA:744,0
DA:745,0
DA:746,0
DA:748,0
DA:749,0
BRF:0
BRH:0
LF:470
LH:381
end_of_record
SF:/home/lemon/src/rust-automata/packages/vass-reach-lib/src/automaton/dfa/node.rs
FN:61,_RINvMNtNtNtCs2hUxDLYgi0n_14vass_reach_lib9automaton3dfa4nodeINtB3_7DfaNodemE9join_leftmECs43NobSSaLSd_3dfa
FN:48,_RNvMNtNtNtCs2hUxDLYgi0n_14vass_reach_lib9automaton3dfa4nodeINtB2_7DfaNodemE10invert_mutCs43NobSSaLSd_3dfa
FN:36,_RNvMNtNtNtCs2hUxDLYgi0n_14vass_reach_lib9automaton3dfa4nodeINtB2_7DfaNodemE13non_acceptingCs43NobSSaLSd_3dfa
FN:20,_RNvMNtNtNtCs2hUxDLYgi0n_14vass_reach_lib9automaton3dfa4nodeINtB2_7DfaNodemE3newCs43NobSSaLSd_3dfa
FN:44,_RNvMNtNtNtCs2hUxDLYgi0n_14vass_reach_lib9automaton3dfa4nodeINtB2_7DfaNodemE6invertCs43NobSSaLSd_3dfa
FN:32,_RNvMNtNtNtCs2hUxDLYgi0n_14vass_reach_lib9automaton3dfa4nodeINtB2_7DfaNodemE9acceptingCs43NobSSaLSd_3dfa
FN:61,_RINvMNtNtNtCs2hUxDLYgi0n_14vass_reach_lib9automaton3dfa4nodeINtB3_7DfaNodeuE9join_leftuEB9_
FN:48,_RNvMNtNtNtCs2hUxDLYgi0n_14vass_reach_lib9automaton3dfa4nodeINtB2_7DfaNodeuE10invert_mutB8_
FN:36,_RNvMNtNtNtCs2hUxDLYgi0n_14vass_reach_lib9automaton3dfa4nodeINtB2_7DfaNodeuE13non_acceptingB8_
FN:20,_RNvMNtNtNtCs2hUxDLYgi0n_14vass_reach_lib9automaton3dfa4nodeINtB2_7DfaNodeuE3newB8_
FN:32,_RNvMNtNtNtCs2hUxDLYgi0n_14vass_reach_lib9automaton3dfa4nodeINtB2_7DfaNodeuE9acceptingB8_
FN:77,_RNvXs0_NtNtNtCs2hUxDLYgi0n_14vass_reach_lib9automaton3dfa4nodeINtB5_7DfaNodeuENtNtCs7xuAoyMVi4A_4core7default7Default7defaultBb_
FN:53,_RINvMNtNtNtCs2hUxDLYgi0n_14vass_reach_lib9automaton3dfa4nodeINtB3_7DfaNodepE4joinpEB9_
FN:40,_RNvMNtNtNtCs2hUxDLYgi0n_14vass_reach_lib9automaton3dfa4nodeINtB2_7DfaNodepE4dataB8_
FN:44,_RNvMNtNtNtCs2hUxDLYgi0n_14vass_reach_lib9automaton3dfa4nodeINtB2_7DfaNodepE6invertB8_
FN:71,_RNvMs_NtNtNtCs2hUxDLYgi0n_14vass_reach_lib9automaton3dfa4nodeINtB4_7DfaNodepE17default_acceptingBa_
FN:20,_RNvMNtNtNtCs2hUxDLYgi0n_14vass_reach_lib9automaton3dfa4nodeINtB2_7DfaNodeINtNtCs7xuAoyMVi4A_4core6option6OptionuEE3newCsjA5qX5JEwPT_16graph_algorithms
FN:77,_RNvXs0_NtNtNtCs2hUxDLYgi0n_14vass_reach_lib9automaton3dfa4nodeINtB5_7DfaNodeINtNtCs7xuAoyMVi4A_4core6option6OptionuEENtNtB1h_7default7Default7defaultCsjA5qX5JEwPT_16graph_algorithms
FN:20,_RNvMNtNtNtCs2hUxDLYgi0n_14vass_reach_lib9automaton3dfa4nodeINtB2_7DfaNodeINtNtCs7xuAoyMVi4A_4core6option6OptionuEE3newCs3ATG82DPHTL_3lgs
FN:77,_RNvXs0_NtNtNtCs2hUxDLYgi0n_14vass_reach_lib9automaton3dfa4nodeINtB5_7DfaNodeINtNtCs7xuAoyMVi4A_4core6option6OptionuEENtNtB1h_7default7Default7defaultCs3ATG82DPHTL_3lgs
FN:20,_RNvMNtNtNtCs2hUxDLYgi0n_14vass_reach_lib9automaton3dfa4nodeINtB2_7DfaNodeINtNtCs7xuAoyMVi4A_4core6option6OptionjEE3newCsdx2WVSQjOLl_3ltc
FN:44,_RNvMNtNtNtCs2hUxDLYgi0n_14vass_reach_lib9automaton3dfa4nodeINtB2_7DfaNodeuE6invertCsdx2WVSQjOLl_3ltc
FN:77,_RNvXs0_NtNtNtCs2hUxDLYgi0n_14vass_reach_lib9automaton3dfa4nodeINtB5_7DfaNodeINtNtCs7xuAoyMVi4A_4core6option6OptionjEENtNtB1h_7default7Default7defaultCsdx2WVSQjOLl_3ltc
FN:36,_RNvMNtNtNtCs2hUxDLYgi0n_14vass_reach_lib9automaton3dfa4nodeINtB2_7DfaNodemE13non_acceptingCsbz10sC9QTBK_3nfa
FN:20,_RNvMNtNtNtCs2hUxDLYgi0n_14vass_reach_lib9automaton3dfa4nodeINtB2_7DfaNodemE3newCsbz10sC9QTBK_3nfa
FN:32,_RNvMNtNtNtCs2hUxDLYgi0n_14vass_reach_lib9automaton3dfa4nodeINtB2_7DfaNodemE9acceptingCsbz10sC9QTBK_3nfa
FN:36,_RNvMNtNtNtCs2hUxDLYgi0n_14vass_reach_lib9automaton3dfa4nodeINtB2_7DfaNodemE13non_acceptingCs5AE6hNTjqZK_13nfa_invariant
FN:20,_RNvMNtNtNtCs2hUxDLYgi0n_14vass_reach_lib9automaton3dfa4nodeINtB2_7DfaNodemE3newCs5AE6hNTjqZK_13nfa_invariant
FN:32,_RNvMNtNtNtCs2hUxDLYgi0n_14vass_reach_lib9automaton3dfa4nodeINtB2_7DfaNodemE9acceptingCs5AE6hNTjqZK_13nfa_invariant
FN:20,_RNvMNtNtNtCs2hUxDLYgi0n_14vass_reach_lib9automaton3dfa4nodeINtB2_7DfaNodeINtNtCs7xuAoyMVi4A_4core6option6OptionjEE3newCsgHwEJVtWcfn_14petri_net_spec
FN:77,_RNvXs0_NtNtNtCs2hUxDLYgi0n_14vass_reach_lib9automaton3dfa4nodeINtB5_7DfaNodeINtNtCs7xuAoyMVi4A_4core6option6OptionjEENtNtB1h_7default7Default7defaultCsgHwEJVtWcfn_14petri_net_spec
FN:20,_RNvMNtNtNtCs2hUxDLYgi0n_14vass_reach_lib9automaton3dfa4nodeINtB2_7DfaNodeINtNtCs7xuAoyMVi4A_4core6option6OptionmEE3newCsbhGvosVcoyU_4vass
FN:77,_RNvXs0_NtNtNtCs2hUxDLYgi0n_14vass_reach_lib9automaton3dfa4nodeINtB5_7DfaNodeINtNtCs7xuAoyMVi4A_4core6option6OptionmEENtNtB1h_7default7Default7defaultCsbhGvosVcoyU_4vass
FN:20,_RNvMNtNtNtCs2hUxDLYgi0n_14vass_reach_lib9automaton3dfa4nodeINtB2_7DfaNodeINtNtCs7xuAoyMVi4A_4core6option6OptionjEE3newCsaYjQXJDQq9v_12vass_n_reach
FN:20,_RNvMNtNtNtCs2hUxDLYgi0n_14vass_reach_lib9automaton3dfa4nodeINtB2_7DfaNodeINtNtCs7xuAoyMVi4A_4core6option6OptionmEE3newCsaYjQXJDQq9v_12vass_n_reach
FN:77,_RNvXs0_NtNtNtCs2hUxDLYgi0n_14vass_reach_lib9automaton3dfa4nodeINtB5_7DfaNodeINtNtCs7xuAoyMVi4A_4core6option6OptionjEENtNtB1h_7default7Default7defaultCsaYjQXJDQq9v_12vass_n_reach
FN:77,_RNvXs0_NtNtNtCs2hUxDLYgi0n_14vass_reach_lib9automaton3dfa4nodeINtB5_7DfaNodeINtNtCs7xuAoyMVi4A_4core6option6OptionmEENtNtB1h_7default7Default7defaultCsaYjQXJDQq9v_12vass_n_reach
FN:53,_RINvMNtNtNtCs8RRi2RJs6bh_14vass_reach_lib9automaton3dfa4nodeINtB3_7DfaNodepE4joinpEB9_
FN:61,_RINvMNtNtNtCs8RRi2RJs6bh_14vass_reach_lib9automaton3dfa4nodeINtB3_7DfaNodepE9join_leftpEB9_
FN:48,_RNvMNtNtNtCs8RRi2RJs6bh_14vass_reach_lib9automaton3dfa4nodeINtB2_7DfaNodepE10invert_mutB8_
FN:36,_RNvMNtNtNtCs8RRi2RJs6bh_14vass_reach_lib9automaton3dfa4nodeINtB2_7DfaNodepE13non_acceptingB8_
FN:20,_RNvMNtNtNtCs8RRi2RJs6bh_14vass_reach_lib9automaton3dfa4nodeINtB2_7DfaNodepE3newB8_
FN:40,_RNvMNtNtNtCs8RRi2RJs6bh_14vass_reach_lib9automaton3dfa4nodeINtB2_7DfaNodepE4dataB8_
FN:44,_RNvMNtNtNtCs8RRi2RJs6bh_14vass_reach_lib9automaton3dfa4nodeINtB2_7DfaNodepE6invertB8_
FN:32,_RNvMNtNtNtCs8RRi2RJs6bh_14vass_reach_lib9automaton3dfa4nodeINtB2_7DfaNodepE9acceptingB8_
FN:71,_RNvMs_NtNtNtCs8RRi2RJs6bh_14vass_reach_lib9automaton3dfa4nodeINtB4_7DfaNodepE17default_acceptingBa_
FN:77,_RNvXININtNtNtCs8RRi2RJs6bh_14vass_reach_lib9automaton3dfa4nodes0_0pEINtB5_7DfaNodepENtNtCs7xuAoyMVi4A_4core7default7Default7defaultBb_
FN:20,_RNvMNtNtNtCs2hUxDLYgi0n_14vass_reach_lib9automaton3dfa4nodeINtB2_7DfaNodeINtNtCs7xuAoyMVi4A_4core6option6OptionjEE3newCseoIxkIhB6T8_12vass_z_reach
FN:20,_RNvMNtNtNtCs2hUxDLYgi0n_14vass_reach_lib9automaton3dfa4nodeINtB2_7DfaNodeINtNtCs7xuAoyMVi4A_4core6option6OptionmEE3newCseoIxkIhB6T8_12vass_z_reach
FN:77,_RNvXs0_NtNtNtCs2hUxDLYgi0n_14vass_reach_lib9automaton3dfa4nodeINtB5_7DfaNodeINtNtCs7xuAoyMVi4A_4core6option6OptionjEENtNtB1h_7default7Default7defaultCseoIxkIhB6T8_12vass_z_reach
FN:77,_RNvXs0_NtNtNtCs2hUxDLYgi0n_14vass_reach_lib9automaton3dfa4nodeINtB5_7DfaNodeINtNtCs7xuAoyMVi4A_4core6option6OptionmEENtNtB1h_7default7Default7defaultCseoIxkIhB6T8_12vass_z_reach
FNDA:16,_RINvMNtNtNtCs2hUxDLYgi0n_14vass_reach_lib9automaton3dfa4nodeINtB3_7DfaNodemE9join_leftmECs43NobSSaLSd_3dfa
FNDA:9,_RNvMNtNtNtCs2hUxDLYgi0n_14vass_reach_lib9automaton3dfa4nodeINtB2_7DfaNodemE10invert_mutCs43NobSSaLSd_3dfa
FNDA:49,_RNvMNtNtNtCs2hUxDLYgi0n_14vass_reach_lib9automaton3dfa4nodeINtB2_7DfaNodemE13non_acceptingCs43NobSSaLSd_3dfa
FNDA:125,_RNvMNtNtNtCs2hUxDLYgi0n_14vass_reach_lib9automaton3dfa4nodeINtB2_7DfaNodemE3newCs43NobSSaLSd_3dfa
FNDA:8,_RNvMNtNtNtCs2hUxDLYgi0n_14vass_reach_lib9automaton3dfa4nodeINtB2_7DfaNodemE6invertCs43NobSSaLSd_3dfa
FNDA:23,_RNvMNtNtNtCs2hUxDLYgi0n_14vass_reach_lib9automaton3dfa4nodeINtB2_7DfaNodemE9acceptingCs43NobSSaLSd_3dfa
FNDA:76,_RINvMNtNtNtCs2hUxDLYgi0n_14vass_reach_lib9automaton3dfa4nodeINtB3_7DfaNodeuE9join_leftuEB9_
FNDA:40,_RNvMNtNtNtCs2hUxDLYgi0n_14vass_reach_lib9automaton3dfa4nodeINtB2_7DfaNodeuE10invert_mutB8_
FNDA:47,_RNvMNtNtNtCs2hUxDLYgi0n_14vass_reach_lib9automaton3dfa4nodeINtB2_7DfaNodeuE13non_acceptingB8_
FNDA:1319,_RNvMNtNtNtCs2hUxDLYgi0n_14vass_reach_lib9automaton3dfa4nodeINtB2_7DfaNodeuE3newB8_
FNDA:62,_RNvMNtNtNtCs2hUxDLYgi0n_14vass_reach_lib9automaton3dfa4nodeINtB2_7DfaNodeuE9acceptingB8_
FNDA:218,_RNvXs0_NtNtNtCs2hUxDLYgi0n_14vass_reach_lib9automaton3dfa4nodeINtB5_7DfaNodeuENtNtCs7xuAoyMVi4A_4core7default7Default7defaultBb_
FNDA:0,_RINvMNtNtNtCs2hUxDLYgi0n_14vass_reach_lib9automaton3dfa4nodeINtB3_7DfaNodepE4joinpEB9_
FNDA:0,_RNvMNtNtNtCs2hUxDLYgi0n_14vass_reach_lib9automaton3dfa4nodeINtB2_7DfaNodepE4dataB8_
FNDA:0,_RNvMNtNtNtCs2hUxDLYgi0n_14vass_reach_lib9automaton3dfa4nodeINtB2_7DfaNodepE6invertB8_
FNDA:0,_RNvMs_NtNtNtCs2hUxDLYgi0n_14vass_reach_lib9automaton3dfa4nodeINtB4_7DfaNodepE17default_acceptingBa_
FNDA:15,_RNvMNtNtNtCs2hUxDLYgi0n_14vass_reach_lib9automaton3dfa4nodeINtB2_7DfaNodeINtNtCs7xuAoyMVi4A_4core6option6OptionuEE3newCsjA5qX5JEwPT_16graph_algorithms
FNDA:11,_RNvXs0_NtNtNtCs2hUxDLYgi0n_14vass_reach_lib9automaton3dfa4nodeINtB5_7DfaNodeINtNtCs7xuAoyMVi4A_4core6option6OptionuEENtNtB1h_7default7Default7defaultCsjA5qX5JEwPT_16graph_algorithms
FNDA:15,_RNvMNtNtNtCs2hUxDLYgi0n_14vass_reach_lib9automaton3dfa4nodeINtB2_7DfaNodeINtNtCs7xuAoyMVi4A_4core6option6OptionuEE3newCs3ATG82DPHTL_3lgs
FNDA:11,_RNvXs0_NtNtNtCs2hUxDLYgi0n_14vass_reach_lib9automaton3dfa4nodeINtB5_7DfaNodeINtNtCs7xuAoyMVi4A_4core6option6OptionuEENtNtB1h_7default7Default7defaultCs3ATG82DPHTL_3lgs
FNDA:32,_RNvMNtNtNtCs2hUxDLYgi0n_14vass_reach_lib9automaton3dfa4nodeINtB2_7DfaNodeINtNtCs7xuAoyMVi4A_4core6option6OptionjEE3newCsdx2WVSQjOLl_3ltc
FNDA:40,_RNvMNtNtNtCs2hUxDLYgi0n_14vass_reach_lib9automaton3dfa4nodeINtB2_7DfaNodeuE6invertCsdx2WVSQjOLl_3ltc
FNDA:24,_RNvXs0_NtNtNtCs2hUxDLYgi0n_14vass_reach_lib9automaton3dfa4nodeINtB5_7DfaNodeINtNtCs7xuAoyMVi4A_4core6option6OptionjEENtNtB1h_7default7Default7defaultCsdx2WVSQjOLl_3ltc
FNDA:16,_RNvMNtNtNtCs2hUxDLYgi0n_14vass_reach_lib9automaton3dfa4nodeINtB2_7DfaNodemE13non_acceptingCsbz10sC9QTBK_3nfa
FNDA:20,_RNvMNtNtNtCs2hUxDLYgi0n_14vass_reach_lib9automaton3dfa4nodeINtB2_7DfaNodemE3newCsbz10sC9QTBK_3nfa
FNDA:4,_RNvMNtNtNtCs2hUxDLYgi0n_14vass_reach_lib9automaton3dfa4nodeINtB2_7DfaNodemE9acceptingCsbz10sC9QTBK_3nfa
FNDA:8,_RNvMNtNtNtCs2hUxDLYgi0n_14vass_reach_lib9automaton3dfa4nodeINtB2_7DfaNodemE13non_acceptingCs5AE6hNTjqZK_13nfa_invariant
FNDA:10,_RNvMNtNtNtCs2hUxDLYgi0n_14vass_reach_lib9automaton3dfa4nodeINtB2_7DfaNodemE3newCs5AE6hNTjqZK_13nfa_invariant
FNDA:2,_RNvMNtNtNtCs2hUxDLYgi0n_14vass_reach_lib9automaton3dfa4nodeINtB2_7DfaNodemE9acceptingCs5AE6hNTjqZK_13nfa_invariant
FNDA:3,_RNvMNtNtNtCs2hUxDLYgi0n_14vass_reach_lib9automaton3dfa4nodeINtB2_7DfaNodeINtNtCs7xuAoyMVi4A_4core6option6OptionjEE3newCsgHwEJVtWcfn_14petri_net_spec
FNDA:0,_RNvXs0_NtNtNtCs2hUxDLYgi0n_14vass_reach_lib9automaton3dfa4nodeINtB5_7DfaNodeINtNtCs7xuAoyMVi4A_4core6option6OptionjEENtNtB1h_7default7Default7defaultCsgHwEJVtWcfn_14petri_net_spec
FNDA:3,_RNvMNtNtNtCs2hUxDLYgi0n_14vass_reach_lib9automaton3dfa4nodeINtB2_7DfaNodeINtNtCs7xuAoyMVi4A_4core6option6OptionmEE3newCsbhGvosVcoyU_4vass
FNDA:1,_RNvXs0_NtNtNtCs2hUxDLYgi0n_14vass_reach_lib9automaton3dfa4nodeINtB5_7DfaNodeINtNtCs7xuAoyMVi4A_4core6option6OptionmEENtNtB1h_7default7Default7defaultCsbhGvosVcoyU_4vass
FNDA:26,_RNvMNtNtNtCs2hUxDLYgi0n_14vass_reach_lib9automaton3dfa4nodeINtB2_7DfaNodeINtNtCs7xuAoyMVi4A_4core6option6OptionjEE3newCsaYjQXJDQq9v_12vass_n_reach
FNDA:20,_RNvMNtNtNtCs2hUxDLYgi0n_14vass_reach_lib9automaton3dfa4nodeINtB2_7DfaNodeINtNtCs7xuAoyMVi4A_4core6option6OptionmEE3newCsaYjQXJDQq9v_12vass_n_reach
FNDA:13,_RNvXs0_NtNtNtCs2hUxDLYgi0n_14vass_reach_lib9automaton3dfa4nodeINtB5_7DfaNodeINtNtCs7xuAoyMVi4A_4core6option6OptionjEENtNtB1h_7default7Default7defaultCsaYjQXJDQq9v_12vass_n_reach
FNDA:11,_RNvXs0_NtNtNtCs2hUxDLYgi0n_14vass_reach_lib9automaton3dfa4nodeINtB5_7DfaNodeINtNtCs7xuAoyMVi4A_4core6option6OptionmEENtNtB1h_7default7Default7defaultCsaYjQXJDQq9v_12vass_n_reach
FNDA:0,_RINvMNtNtNtCs8RRi2RJs6bh_14vass_reach_lib9automaton3dfa4nodeINtB3_7DfaNodepE4joinpEB9_
FNDA:0,_RINvMNtNtNtCs8RRi2RJs6bh_14vass_reach_lib9automaton3dfa4nodeINtB3_7DfaNodepE9join_leftpEB9_
FNDA:0,_RNvMNtNtNtCs8RRi2RJs6bh_14vass_reach_lib9automaton3dfa4nodeINtB2_7DfaNodepE10invert_mutB8_
FNDA:0,_RNvMNtNtNtCs8RRi2RJs6bh_14vass_reach_lib9automaton3dfa4nodeINtB2_7DfaNodepE13non_acceptingB8_
FNDA:0,_RNvMNtNtNtCs8RRi2RJs6bh_14vass_reach_lib9automaton3dfa4nodeINtB2_7DfaNodepE3newB8_
FNDA:0,_RNvMNtNtNtCs8RRi2RJs6bh_14vass_reach_lib9automaton3dfa4nodeINtB2_7DfaNodepE4dataB8_
FNDA:0,_RNvMNtNtNtCs8RRi2RJs6bh_14vass_reach_lib9automaton3dfa4nodeINtB2_7DfaNodepE6invertB8_
FNDA:0,_RNvMNtNtNtCs8RRi2RJs6bh_14vass_reach_lib9automaton3dfa4nodeINtB2_7DfaNodepE9acceptingB8_
FNDA:0,_RNvMs_NtNtNtCs8RRi2RJs6bh_14vass_reach_lib9automaton3dfa4nodeINtB4_7DfaNodepE17default_acceptingBa_
FNDA:0,_RNvXININtNtNtCs8RRi2RJs6bh_14vass_reach_lib9automaton3dfa4nodes0_0pEINtB5_7DfaNodepENtNtCs7xuAoyMVi4A_4core7default7Default7defaultBb_
FNDA:21,_RNvMNtNtNtCs2hUxDLYgi0n_14vass_reach_lib9automaton3dfa4nodeINtB2_7DfaNodeINtNtCs7xuAoyMVi4A_4core6option6OptionjEE3newCseoIxkIhB6T8_12vass_z_reach
FNDA:10,_RNvMNtNtNtCs2hUxDLYgi0n_14vass_reach_lib9automaton3dfa4nodeINtB2_7DfaNodeINtNtCs7xuAoyMVi4A_4core6option6OptionmEE3newCseoIxkIhB6T8_12vass_z_reach
FNDA:13,_RNvXs0_NtNtNtCs2hUxDLYgi0n_14vass_reach_lib9automaton3dfa4nodeINtB5_7DfaNodeINtNtCs7xuAoyMVi4A_4core6option6OptionjEENtNtB1h_7default7Default7defaultCseoIxkIhB6T8_12vass_z_reach
FNDA:4,_RNvXs0_NtNtNtCs2hUxDLYgi0n_14vass_reach_lib9automaton3dfa4nodeINtB5_7DfaNodeINtNtCs7xuAoyMVi4A_4core6option6OptionmEENtNtB1h_7default7Default7defaultCseoIxkIhB6T8_12vass_z_reach
FNF:10
FNH:7
DA:20,1619
DA:21,1619
DA:22,1619
DA:25,1619
DA:26,1619
DA:27,1619
DA:28,1619
DA:29,1619
DA:30,1619
DA:32,91
DA:33,91
DA:34,91
DA:36,120
DA:37,120
DA:38,120
DA:40,0
DA:41,0
DA:42,0
DA:44,48
DA:45,48
DA:46,48
DA:48,49
DA:49,49
DA:50,49
DA:51,49
DA:53,0
DA:54,0
DA:55,0
DA:56,0
DA:57,0
DA:59,0
DA:61,92
DA:62,92
DA:63,92
DA:64,92
DA:65,92
DA:67,92
DA:71,0
DA:72,0
DA:73,0
DA:77,306
DA:78,306
DA:79,306
BRF:0
BRH:0
LF:43
LH:31
end_of_record
SF:/home/lemon/src/rust-automata/packages/vass-reach-lib/src/automaton/implicit_cfg_product/mod.rs
FN:185,_RNvMNtNtCs2hUxDLYgi0n_14vass_reach_lib9automaton20implicit_cfg_productNtB2_18ImplicitCFGProduct12increment_mu
FN:355,_RNvMNtNtCs2hUxDLYgi0n_14vass_reach_lib9automaton20implicit_cfg_productNtB2_18ImplicitCFGProduct12is_accepting
FN:153,_RNvMNtNtCs2hUxDLYgi0n_14vass_reach_lib9automaton20implicit_cfg_productNtB2_18ImplicitCFGProduct14main_cfg_index
FN:410,_RNvMNtNtCs2hUxDLYgi0n_14vass_reach_lib9automaton20implicit_cfg_productNtB2_18ImplicitCFGProduct14reset_explicit
FN:226,_RNvMNtNtCs2hUxDLYgi0n_14vass_reach_lib9automaton20implicit_cfg_productNtB2_18ImplicitCFGProduct17get_forward_bound
FN:194,_RNvMNtNtCs2hUxDLYgi0n_14vass_reach_lib9automaton20implicit_cfg_productNtB2_18ImplicitCFGProduct17set_forward_bound
FN:234,_RNvMNtNtCs2hUxDLYgi0n_14vass_reach_lib9automaton20implicit_cfg_productNtB2_18ImplicitCFGProduct18get_backward_bound
FN:230,_RNvMNtNtCs2hUxDLYgi0n_14vass_reach_lib9automaton20implicit_cfg_productNtB2_18ImplicitCFGProduct18get_forward_bounds
FN:210,_RNvMNtNtCs2hUxDLYgi0n_14vass_reach_lib9automaton20implicit_cfg_productNtB2_18ImplicitCFGProduct18set_backward_bound
FN:238,_RNvMNtNtCs2hUxDLYgi0n_14vass_reach_lib9automaton20implicit_cfg_productNtB2_18ImplicitCFGProduct19get_backward_bounds
FN:310,_RNvMNtNtCs2hUxDLYgi0n_14vass_reach_lib9automaton20implicit_cfg_productNtB2_18ImplicitCFGProduct20find_scc_surrounding
FN:157,_RNvMNtNtCs2hUxDLYgi0n_14vass_reach_lib9automaton20implicit_cfg_productNtB2_18ImplicitCFGProduct20get_modulo_cfg_index
FN:125,_RNvMNtNtCs2hUxDLYgi0n_14vass_reach_lib9automaton20implicit_cfg_productNtB2_18ImplicitCFGProduct25new_without_counting_cfgs
FN:161,_RNvMNtNtCs2hUxDLYgi0n_14vass_reach_lib9automaton20implicit_cfg_productNtB2_18ImplicitCFGProduct27get_forward_bound_cfg_index
FN:165,_RNvMNtNtCs2hUxDLYgi0n_14vass_reach_lib9automaton20implicit_cfg_productNtB2_18ImplicitCFGProduct28get_backward_bound_cfg_index
FN:66,_RNvMNtNtCs2hUxDLYgi0n_14vass_reach_lib9automaton20implicit_cfg_productNtB2_18ImplicitCFGProduct3new
FN:389,_RNvMNtNtCs2hUxDLYgi0n_14vass_reach_lib9automaton20implicit_cfg_productNtB2_18ImplicitCFGProduct4iter
FN:260,_RNvMNtNtCs2hUxDLYgi0n_14vass_reach_lib9automaton20implicit_cfg_productNtB2_18ImplicitCFGProduct5reach
FN:190,_RNvMNtNtCs2hUxDLYgi0n_14vass_reach_lib9automaton20implicit_cfg_productNtB2_18ImplicitCFGProduct6get_mu
FN:169,_RNvMNtNtCs2hUxDLYgi0n_14vass_reach_lib9automaton20implicit_cfg_productNtB2_18ImplicitCFGProduct6set_mu
FN:242,_RNvMNtNtCs2hUxDLYgi0n_14vass_reach_lib9automaton20implicit_cfg_productNtB2_18ImplicitCFGProduct7add_cfg
FN:377,_RNvMNtNtCs2hUxDLYgi0n_14vass_reach_lib9automaton20implicit_cfg_productNtB2_18ImplicitCFGProduct7initial
FN:366,_RNvMNtNtCs2hUxDLYgi0n_14vass_reach_lib9automaton20implicit_cfg_productNtB2_18ImplicitCFGProduct7is_trap
FN:395,_RNvMNtNtCs2hUxDLYgi0n_14vass_reach_lib9automaton20implicit_cfg_productNtB2_18ImplicitCFGProduct8explicit
FN:149,_RNvMNtNtCs2hUxDLYgi0n_14vass_reach_lib9automaton20implicit_cfg_productNtB2_18ImplicitCFGProduct8main_cfg
FN:557,_RNvMs3_NtNtCs2hUxDLYgi0n_14vass_reach_lib9automaton20implicit_cfg_productNtB5_24MultiGraphTraversalState3new
FN:561,_RNvMs3_NtNtCs2hUxDLYgi0n_14vass_reach_lib9automaton20implicit_cfg_productNtB5_24MultiGraphTraversalState7to_path
FN:24,_RNvNtNtCs2hUxDLYgi0n_14vass_reach_lib9automaton20implicit_cfg_product14modulo_indices
FN:39,_RNvNtNtCs2hUxDLYgi0n_14vass_reach_lib9automaton20implicit_cfg_product24bounded_counting_indices
FN:521,_RNvNtNtCs2hUxDLYgi0n_14vass_reach_lib9automaton20implicit_cfg_product24build_counting_automaton
FN:29,_RNvNtNtCs2hUxDLYgi0n_14vass_reach_lib9automaton20implicit_cfg_product32forward_bounded_counting_indices
FN:34,_RNvNtNtCs2hUxDLYgi0n_14vass_reach_lib9automaton20implicit_cfg_product33backward_bounded_counting_indices
FN:431,_RNvXs0_NtNtCs2hUxDLYgi0n_14vass_reach_lib9automaton20implicit_cfg_productNtB5_18ImplicitCFGProductINtB7_9AutomatonNtB7_13DeterministicE10node_count
FN:439,_RNvXs0_NtNtCs2hUxDLYgi0n_14vass_reach_lib9automaton20implicit_cfg_productNtB5_18ImplicitCFGProductINtB7_9AutomatonNtB7_13DeterministicE18get_node_unchecked
FN:435,_RNvXs0_NtNtCs2hUxDLYgi0n_14vass_reach_lib9automaton20implicit_cfg_productNtB5_18ImplicitCFGProductINtB7_9AutomatonNtB7_13DeterministicE8get_node
FN:449,_RNvXs1_NtNtCs2hUxDLYgi0n_14vass_reach_lib9automaton20implicit_cfg_productNtB5_18ImplicitCFGProductINtB7_16TransitionSystemNtB7_13DeterministicE10successors
FN:460,_RNvXs1_NtNtCs2hUxDLYgi0n_14vass_reach_lib9automaton20implicit_cfg_productNtB5_18ImplicitCFGProductINtB7_16TransitionSystemNtB7_13DeterministicE12predecessors
FN:445,_RNvXs1_NtNtCs2hUxDLYgi0n_14vass_reach_lib9automaton20implicit_cfg_productNtB5_18ImplicitCFGProductINtB7_16TransitionSystemNtB7_13DeterministicE9successor
FN:506,_RNvXs2_NtNtCs2hUxDLYgi0n_14vass_reach_lib9automaton20implicit_cfg_productNtB5_18ImplicitCFGProductINtB7_20InitializedAutomatonNtB7_13DeterministicE11get_initial
FN:510,_RNvXs2_NtNtCs2hUxDLYgi0n_14vass_reach_lib9automaton20implicit_cfg_productNtB5_18ImplicitCFGProductINtB7_20InitializedAutomatonNtB7_13DeterministicE12is_accepting
FN:418,_RNvXs_NtNtCs2hUxDLYgi0n_14vass_reach_lib9automaton20implicit_cfg_productNtB4_18ImplicitCFGProductNtB6_8Alphabet8alphabet
FN:380,_RNCNvMNtNtCs2hUxDLYgi0n_14vass_reach_lib9automaton20implicit_cfg_productNtB4_18ImplicitCFGProduct7initial0B8_
FN:432,_RNCNvXs0_NtNtCs2hUxDLYgi0n_14vass_reach_lib9automaton20implicit_cfg_productNtB7_18ImplicitCFGProductINtB9_9AutomatonNtB9_13DeterministicE10node_count0Bb_
FN:456,_RNCNvXs1_NtNtCs2hUxDLYgi0n_14vass_reach_lib9automaton20implicit_cfg_productNtB7_18ImplicitCFGProductINtB9_16TransitionSystemNtB9_13DeterministicE10successors0Bb_
FN:480,_RNCNvXs1_NtNtCs2hUxDLYgi0n_14vass_reach_lib9automaton20implicit_cfg_productNtB7_18ImplicitCFGProductINtB9_16TransitionSystemNtB9_13DeterministicE12predecessors0Bb_
FN:481,_RNCNvXs1_NtNtCs2hUxDLYgi0n_14vass_reach_lib9automaton20implicit_cfg_productNtB7_18ImplicitCFGProductINtB9_16TransitionSystemNtB9_13DeterministicE12predecessorss_0Bb_
FN:380,_RNCNvMNtNtCs8RRi2RJs6bh_14vass_reach_lib9automaton20implicit_cfg_productNtB4_18ImplicitCFGProduct7initial0B8_
FN:432,_RNCNvXs0_NtNtCs8RRi2RJs6bh_14vass_reach_lib9automaton20implicit_cfg_productNtB7_18ImplicitCFGProductINtB9_9AutomatonNtB9_13DeterministicE10node_count0Bb_
FN:456,_RNCNvXs1_NtNtCs8RRi2RJs6bh_14vass_reach_lib9automaton20implicit_cfg_productNtB7_18ImplicitCFGProductINtB9_16TransitionSystemNtB9_13DeterministicE10successors0Bb_
FN:480,_RNCNvXs1_NtNtCs8RRi2RJs6bh_14vass_reach_lib9automaton20implicit_cfg_productNtB7_18ImplicitCFGProductINtB9_16TransitionSystemNtB9_13DeterministicE12predecessors0Bb_
FN:481,_RNCNvXs1_NtNtCs8RRi2RJs6bh_14vass_reach_lib9automaton20implicit_cfg_productNtB7_18ImplicitCFGProductINtB9_16TransitionSystemNtB9_13DeterministicE12predecessorss_0Bb_
FN:185,_RNvMNtNtCs8RRi2RJs6bh_14vass_reach_lib9automaton20implicit_cfg_productNtB2_18ImplicitCFGProduct12increment_mu
FN:355,_RNvMNtNtCs8RRi2RJs6bh_14vass_reach_lib9automaton20implicit_cfg_productNtB2_18ImplicitCFGProduct12is_accepting
FN:153,_RNvMNtNtCs8RRi2RJs6bh_14vass_reach_lib9automaton20implicit_cfg_productNtB2_18ImplicitCFGProduct14main_cfg_index
FN:410,_RNvMNtNtCs8RRi2RJs6bh_14vass_reach_lib9automaton20implicit_cfg_productNtB2_18ImplicitCFGProduct14reset_explicit
FN:226,_RNvMNtNtCs8RRi2RJs6bh_14vass_reach_lib9automaton20implicit_cfg_productNtB2_18ImplicitCFGProduct17get_forward_bound
FN:194,_RNvMNtNtCs8RRi2RJs6bh_14vass_reach_lib9automaton20implicit_cfg_productNtB2_18ImplicitCFGProduct17set_forward_bound
FN:234,_RNvMNtNtCs8RRi2RJs6bh_14vass_reach_lib9automaton20implicit_cfg_productNtB2_18ImplicitCFGProduct18get_backward_bound
FN:230,_RNvMNtNtCs8RRi2RJs6bh_14vass_reach_lib9automaton20implicit_cfg_productNtB2_18ImplicitCFGProduct18get_forward_bounds
FN:210,_RNvMNtNtCs8RRi2RJs6bh_14vass_reach_lib9automaton20implicit_cfg_productNtB2_18ImplicitCFGProduct18set_backward_bound
FN:238,_RNvMNtNtCs8RRi2RJs6bh_14vass_reach_lib9automaton20implicit_cfg_productNtB2_18ImplicitCFGProduct19get_backward_bounds
FN:310,_RNvMNtNtCs8RRi2RJs6bh_14vass_reach_lib9automaton20implicit_cfg_productNtB2_18ImplicitCFGProduct20find_scc_surrounding
FN:157,_RNvMNtNtCs8RRi2RJs6bh_14vass_reach_lib9automaton20implicit_cfg_productNtB2_18ImplicitCFGProduct20get_modulo_cfg_index
FN:125,_RNvMNtNtCs8RRi2RJs6bh_14vass_reach_lib9automaton20implicit_cfg_productNtB2_18ImplicitCFGProduct25new_without_counting_cfgs
FN:161,_RNvMNtNtCs8RRi2RJs6bh_14vass_reach_lib9automaton20implicit_cfg_productNtB2_18ImplicitCFGProduct27get_forward_bound_cfg_index
FN:165,_RNvMNtNtCs8RRi2RJs6bh_14vass_reach_lib9automaton20implicit_cfg_productNtB2_18ImplicitCFGProduct28get_backward_bound_cfg_index
FN:66,_RNvMNtNtCs8RRi2RJs6bh_14vass_reach_lib9automaton20implicit_cfg_productNtB2_18ImplicitCFGProduct3new
FN:389,_RNvMNtNtCs8RRi2RJs6bh_14vass_reach_lib9automaton20implicit_cfg_productNtB2_18ImplicitCFGProduct4iter
FN:260,_RNvMNtNtCs8RRi2RJs6bh_14vass_reach_lib9automaton20implicit_cfg_productNtB2_18ImplicitCFGProduct5reach
FN:190,_RNvMNtNtCs8RRi2RJs6bh_14vass_reach_lib9automaton20implicit_cfg_productNtB2_18ImplicitCFGProduct6get_mu
FN:169,_RNvMNtNtCs8RRi2RJs6bh_14vass_reach_lib9automaton20implicit_cfg_productNtB2_18ImplicitCFGProduct6set_mu
FN:242,_RNvMNtNtCs8RRi2RJs6bh_14vass_reach_lib9automaton20implicit_cfg_productNtB2_18ImplicitCFGProduct7add_cfg
FN:377,_RNvMNtNtCs8RRi2RJs6bh_14vass_reach_lib9automaton20implicit_cfg_productNtB2_18ImplicitCFGProduct7initial
FN:366,_RNvMNtNtCs8RRi2RJs6bh_14vass_reach_lib9automaton20implicit_cfg_productNtB2_18ImplicitCFGProduct7is_trap
FN:395,_RNvMNtNtCs8RRi2RJs6bh_14vass_reach_lib9automaton20implicit_cfg_productNtB2_18ImplicitCFGProduct8explicit
FN:149,_RNvMNtNtCs8RRi2RJs6bh_14vass_reach_lib9automaton20implicit_cfg_productNtB2_18ImplicitCFGProduct8main_cfg
FN:557,_RNvMs3_NtNtCs8RRi2RJs6bh_14vass_reach_lib9automaton20implicit_cfg_productNtB5_24MultiGraphTraversalState3new
FN:561,_RNvMs3_NtNtCs8RRi2RJs6bh_14vass_reach_lib9automaton20implicit_cfg_productNtB5_24MultiGraphTraversalState7to_path
FN:24,_RNvNtNtCs8RRi2RJs6bh_14vass_reach_lib9automaton20implicit_cfg_product14modulo_indices
FN:39,_RNvNtNtCs8RRi2RJs6bh_14vass_reach_lib9automaton20implicit_cfg_product24bounded_counting_indices
FN:521,_RNvNtNtCs8RRi2RJs6bh_14vass_reach_lib9automaton20implicit_cfg_product24build_counting_automaton
FN:29,_RNvNtNtCs8RRi2RJs6bh_14vass_reach_lib9automaton20implicit_cfg_product32forward_bounded_counting_indices
FN:34,_RNvNtNtCs8RRi2RJs6bh_14vass_reach_lib9automaton20implicit_cfg_product33backward_bounded_counting_indices
FN:431,_RNvXs0_NtNtCs8RRi2RJs6bh_14vass_reach_lib9automaton20implicit_cfg_productNtB5_18ImplicitCFGProductINtB7_9AutomatonNtB7_13DeterministicE10node_count
FN:439,_RNvXs0_NtNtCs8RRi2RJs6bh_14vass_reach_lib9automaton20implicit_cfg_productNtB5_18ImplicitCFGProductINtB7_9AutomatonNtB7_13DeterministicE18get_node_unchecked
FN:435,_RNvXs0_NtNtCs8RRi2RJs6bh_14vass_reach_lib9automaton20implicit_cfg_productNtB5_18ImplicitCFGProductINtB7_9AutomatonNtB7_13DeterministicE8get_node
FN:449,_RNvXs1_NtNtCs8RRi2RJs6bh_14vass_reach_lib9automaton20implicit_cfg_productNtB5_18ImplicitCFGProductINtB7_16TransitionSystemNtB7_13DeterministicE10successors
FN:460,_RNvXs1_NtNtCs8RRi2RJs6bh_14vass_reach_lib9automaton20implicit_cfg_productNtB5_18ImplicitCFGProductINtB7_16TransitionSystemNtB7_13DeterministicE12predecessors
FN:445,_RNvXs1_NtNtCs8RRi2RJs6bh_14vass_reach_lib9automaton20implicit_cfg_productNtB5_18ImplicitCFGProductINtB7_16TransitionSystemNtB7_13DeterministicE9successor
FN:506,_RNvXs2_NtNtCs8RRi2RJs6bh_14vass_reach_lib9automaton20implicit_cfg_productNtB5_18ImplicitCFGProductINtB7_20InitializedAutomatonNtB7_13DeterministicE11get_initial
FN:510,_RNvXs2_NtNtCs8RRi2RJs6bh_14vass_reach_lib9automaton20implicit_cfg_productNtB5_18ImplicitCFGProductINtB7_20InitializedAutomatonNtB7_13DeterministicE12is_accepting
FN:418,_RNvXs_NtNtCs8RRi2RJs6bh_14vass_reach_lib9automaton20implicit_cfg_productNtB4_18ImplicitCFGProductNtB6_8Alphabet8alphabet
FNDA:0,_RNvMNtNtCs2hUxDLYgi0n_14vass_reach_lib9automaton20implicit_cfg_productNtB2_18ImplicitCFGProduct12increment_mu
FNDA:475,_RNvMNtNtCs2hUxDLYgi0n_14vass_reach_lib9automaton20implicit_cfg_productNtB2_18ImplicitCFGProduct12is_accepting
FNDA:0,_RNvMNtNtCs2hUxDLYgi0n_14vass_reach_lib9automaton20implicit_cfg_productNtB2_18ImplicitCFGProduct14main_cfg_index
FNDA:1,_RNvMNtNtCs2hUxDLYgi0n_14vass_reach_lib9automaton20implicit_cfg_productNtB2_18ImplicitCFGProduct14reset_explicit
FNDA:0,_RNvMNtNtCs2hUxDLYgi0n_14vass_reach_lib9automaton20implicit_cfg_productNtB2_18ImplicitCFGProduct17get_forward_bound
FNDA:0,_RNvMNtNtCs2hUxDLYgi0n_14vass_reach_lib9automaton20implicit_cfg_productNtB2_18ImplicitCFGProduct17set_forward_bound
FNDA:0,_RNvMNtNtCs2hUxDLYgi0n_14vass_reach_lib9automaton20implicit_cfg_productNtB2_18ImplicitCFGProduct18get_backward_bound
FNDA:8,_RNvMNtNtCs2hUxDLYgi0n_14vass_reach_lib9automaton20implicit_cfg_productNtB2_18ImplicitCFGProduct18get_forward_bounds
FNDA:0,_RNvMNtNtCs2hUxDLYgi0n_14vass_reach_lib9automaton20implicit_cfg_productNtB2_18ImplicitCFGProduct18set_backward_bound
FNDA:8,_RNvMNtNtCs2hUxDLYgi0n_14vass_reach_lib9automaton20implicit_cfg_productNtB2_18ImplicitCFGProduct19get_backward_bounds
FNDA:1,_RNvMNtNtCs2hUxDLYgi0n_14vass_reach_lib9automaton20implicit_cfg_productNtB2_18ImplicitCFGProduct20find_scc_surrounding
FNDA:0,_RNvMNtNtCs2hUxDLYgi0n_14vass_reach_lib9automaton20implicit_cfg_productNtB2_18ImplicitCFGProduct20get_modulo_cfg_index
FNDA:7,_RNvMNtNtCs2hUxDLYgi0n_14vass_reach_lib9automaton20implicit_cfg_productNtB2_18ImplicitCFGProduct25new_without_counting_cfgs
FNDA:0,_RNvMNtNtCs2hUxDLYgi0n_14vass_reach_lib9automaton20implicit_cfg_productNtB2_18ImplicitCFGProduct27get_forward_bound_cfg_index
FNDA:0,_RNvMNtNtCs2hUxDLYgi0n_14vass_reach_lib9automaton20implicit_cfg_productNtB2_18ImplicitCFGProduct28get_backward_bound_cfg_index
FNDA:9,_RNvMNtNtCs2hUxDLYgi0n_14vass_reach_lib9automaton20implicit_cfg_productNtB2_18ImplicitCFGProduct3new
FNDA:3239,_RNvMNtNtCs2hUxDLYgi0n_14vass_reach_lib9automaton20implicit_cfg_productNtB2_18ImplicitCFGProduct4iter
FNDA:9,_RNvMNtNtCs2hUxDLYgi0n_14vass_reach_lib9automaton20implicit_cfg_productNtB2_18ImplicitCFGProduct5reach
FNDA:0,_RNvMNtNtCs2hUxDLYgi0n_14vass_reach_lib9automaton20implicit_cfg_productNtB2_18ImplicitCFGProduct6get_mu
FNDA:0,_RNvMNtNtCs2hUxDLYgi0n_14vass_reach_lib9automaton20implicit_cfg_productNtB2_18ImplicitCFGProduct6set_mu
FNDA:1,_RNvMNtNtCs2hUxDLYgi0n_14vass_reach_lib9automaton20implicit_cfg_productNtB2_18ImplicitCFGProduct7add_cfg
FNDA:22,_RNvMNtNtCs2hUxDLYgi0n_14vass_reach_lib9automaton20implicit_cfg_productNtB2_18ImplicitCFGProduct7initial
FNDA:2742,_RNvMNtNtCs2hUxDLYgi0n_14vass_reach_lib9automaton20implicit_cfg_productNtB2_18ImplicitCFGProduct7is_trap
FNDA:0,_RNvMNtNtCs2hUxDLYgi0n_14vass_reach_lib9automaton20implicit_cfg_productNtB2_18ImplicitCFGProduct8explicit
FNDA:0,_RNvMNtNtCs2hUxDLYgi0n_14vass_reach_lib9automaton20implicit_cfg_productNtB2_18ImplicitCFGProduct8main_cfg
FNDA:475,_RNvMs3_NtNtCs2hUxDLYgi0n_14vass_reach_lib9automaton20implicit_cfg_productNtB5_24MultiGraphTraversalState3new
FNDA:3,_RNvMs3_NtNtCs2hUxDLYgi0n_14vass_reach_lib9automaton20implicit_cfg_productNtB5_24MultiGraphTraversalState7to_path
FNDA:0,_RNvNtNtCs2hUxDLYgi0n_14vass_reach_lib9automaton20implicit_cfg_product14modulo_indices
FNDA:0,_RNvNtNtCs2hUxDLYgi0n_14vass_reach_lib9automaton20implicit_cfg_product24bounded_counting_indices
FNDA:54,_RNvNtNtCs2hUxDLYgi0n_14vass_reach_lib9automaton20implicit_cfg_product24build_counting_automaton
FNDA:0,_RNvNtNtCs2hUxDLYgi0n_14vass_reach_lib9automaton20implicit_cfg_product32forward_bounded_counting_indices
FNDA:0,_RNvNtNtCs2hUxDLYgi0n_14vass_reach_lib9automaton20implicit_cfg_product33backward_bounded_counting_indices
FNDA:0,_RNvXs0_NtNtCs2hUxDLYgi0n_14vass_reach_lib9automaton20implicit_cfg_productNtB5_18ImplicitCFGProductINtB7_9AutomatonNtB7_13DeterministicE10node_count
FNDA:0,_RNvXs0_NtNtCs2hUxDLYgi0n_14vass_reach_lib9automaton20implicit_cfg_productNtB5_18ImplicitCFGProductINtB7_9AutomatonNtB7_13DeterministicE18get_node_unchecked
FNDA:0,_RNvXs0_NtNtCs2hUxDLYgi0n_14vass_reach_lib9automaton20implicit_cfg_productNtB5_18ImplicitCFGProductINtB7_9AutomatonNtB7_13DeterministicE8get_node
FNDA:8,_RNvXs1_NtNtCs2hUxDLYgi0n_14vass_reach_lib9automaton20implicit_cfg_productNtB5_18ImplicitCFGProductINtB7_16TransitionSystemNtB7_13DeterministicE10successors
FNDA:9,_RNvXs1_NtNtCs2hUxDLYgi0n_14vass_reach_lib9automaton20implicit_cfg_productNtB5_18ImplicitCFGProductINtB7_16TransitionSystemNtB7_13DeterministicE12predecessors
FNDA:108,_RNvXs1_NtNtCs2hUxDLYgi0n_14vass_reach_lib9automaton20implicit_cfg_productNtB5_18ImplicitCFGProductINtB7_16TransitionSystemNtB7_13DeterministicE9successor
FNDA:0,_RNvXs2_NtNtCs2hUxDLYgi0n_14vass_reach_lib9automaton20implicit_cfg_productNtB5_18ImplicitCFGProductINtB7_20InitializedAutomatonNtB7_13DeterministicE11get_initial
FNDA:0,_RNvXs2_NtNtCs2hUxDLYgi0n_14vass_reach_lib9automaton20implicit_cfg_productNtB5_18ImplicitCFGProductINtB7_20InitializedAutomatonNtB7_13DeterministicE12is_accepting
FNDA:571,_RNvXs_NtNtCs2hUxDLYgi0n_14vass_reach_lib9automaton20implicit_cfg_productNtB4_18ImplicitCFGProductNtB6_8Alphabet8alphabet
FNDA:130,_RNCNvMNtNtCs2hUxDLYgi0n_14vass_reach_lib9automaton20implicit_cfg_productNtB4_18ImplicitCFGProduct7initial0B8_
FNDA:0,_RNCNvXs0_NtNtCs2hUxDLYgi0n_14vass_reach_lib9automaton20implicit_cfg_productNtB7_18ImplicitCFGProductINtB9_9AutomatonNtB9_13DeterministicE10node_count0Bb_
FNDA:20,_RNCNvXs1_NtNtCs2hUxDLYgi0n_14vass_reach_lib9automaton20implicit_cfg_productNtB7_18ImplicitCFGProductINtB9_16TransitionSystemNtB9_13DeterministicE10successors0Bb_
FNDA:26,_RNCNvXs1_NtNtCs2hUxDLYgi0n_14vass_reach_lib9automaton20implicit_cfg_productNtB7_18ImplicitCFGProductINtB9_16TransitionSystemNtB9_13DeterministicE12predecessors0Bb_
FNDA:12,_RNCNvXs1_NtNtCs2hUxDLYgi0n_14vass_reach_lib9automaton20implicit_cfg_productNtB7_18ImplicitCFGProductINtB9_16TransitionSystemNtB9_13DeterministicE12predecessorss_0Bb_
FNDA:0,_RNCNvMNtNtCs8RRi2RJs6bh_14vass_reach_lib9automaton20implicit_cfg_productNtB4_18ImplicitCFGProduct7initial0B8_
FNDA:0,_RNCNvXs0_NtNtCs8RRi2RJs6bh_14vass_reach_lib9automaton20implicit_cfg_productNtB7_18ImplicitCFGProductINtB9_9AutomatonNtB9_13DeterministicE10node_count0Bb_
FNDA:0,_RNCNvXs1_NtNtCs8RRi2RJs6bh_14vass_reach_lib9automaton20implicit_cfg_productNtB7_18ImplicitCFGProductINtB9_16TransitionSystemNtB9_13DeterministicE10successors0Bb_
FNDA:0,_RNCNvXs1_NtNtCs8RRi2RJs6bh_14vass_reach_lib9automaton20implicit_cfg_productNtB7_18ImplicitCFGProductINtB9_16TransitionSystemNtB9_13DeterministicE12predecessors0Bb_
FNDA:0,_RNCNvXs1_NtNtCs8RRi2RJs6bh_14vass_reach_lib9automaton20implicit_cfg_productNtB7_18ImplicitCFGProductINtB9_16TransitionSystemNtB9_13DeterministicE12predecessorss_0Bb_
FNDA:0,_RNvMNtNtCs8RRi2RJs6bh_14vass_reach_lib9automaton20implicit_cfg_productNtB2_18ImplicitCFGProduct12increment_mu
FNDA:0,_RNvMNtNtCs8RRi2RJs6bh_14vass_reach_lib9automaton20implicit_cfg_productNtB2_18ImplicitCFGProduct12is_accepting
FNDA:0,_RNvMNtNtCs8RRi2RJs6bh_14vass_reach_lib9automaton20implicit_cfg_productNtB2_18ImplicitCFGProduct14main_cfg_index
FNDA:0,_RNvMNtNtCs8RRi2RJs6bh_14vass_reach_lib9automaton20implicit_cfg_productNtB2_18ImplicitCFGProduct14reset_explicit
FNDA:0,_RNvMNtNtCs8RRi2RJs6bh_14vass_reach_lib9automaton20implicit_cfg_productNtB2_18ImplicitCFGProduct17get_forward_bound
FNDA:0,_RNvMNtNtCs8RRi2RJs6bh_14vass_reach_lib9automaton20implicit_cfg_productNtB2_18ImplicitCFGProduct17set_forward_bound
FNDA:0,_RNvMNtNtCs8RRi2RJs6bh_14vass_reach_lib9automaton20implicit_cfg_productNtB2_18ImplicitCFGProduct18get_backward_bound
FNDA:0,_RNvMNtNtCs8RRi2RJs6bh_14vass_reach_lib9automaton20implicit_cfg_productNtB2_18ImplicitCFGProduct18get_forward_bounds
FNDA:0,_RNvMNtNtCs8RRi2RJs6bh_14vass_reach_lib9automaton20implicit_cfg_productNtB2_18ImplicitCFGProduct18set_backward_bound
FNDA:0,_RNvMNtNtCs8RRi2RJs6bh_14vass_reach_lib9automaton20implicit_cfg_productNtB2_18ImplicitCFGProduct19get_backward_bounds
FNDA:0,_RNvMNtNtCs8RRi2RJs6bh_14vass_reach_lib9automaton20implicit_cfg_productNtB2_18ImplicitCFGProduct20find_scc_surrounding
FNDA:0,_RNvMNtNtCs8RRi2RJs6bh_14vass_reach_lib9automaton20implicit_cfg_productNtB2_18ImplicitCFGProduct20get_modulo_cfg_index
FNDA:0,_RNvMNtNtCs8RRi2RJs6bh_14vass_reach_lib9automaton20implicit_cfg_productNtB2_18ImplicitCFGProduct25new_without_counting_cfgs
FNDA:0,_RNvMNtNtCs8RRi2RJs6bh_14vass_reach_lib9automaton20implicit_cfg_productNtB2_18ImplicitCFGProduct27get_forward_bound_cfg_index
FNDA:0,_RNvMNtNtCs8RRi2RJs6bh_14vass_reach_lib9automaton20implicit_cfg_productNtB2_18ImplicitCFGProduct28get_backward_bound_cfg_index
FNDA:0,_RNvMNtNtCs8RRi2RJs6bh_14vass_reach_lib9automaton20implicit_cfg_productNtB2_18ImplicitCFGProduct3new
FNDA:0,_RNvMNtNtCs8RRi2RJs6bh_14vass_reach_lib9automaton20implicit_cfg_productNtB2_18ImplicitCFGProduct4iter
FNDA:0,_RNvMNtNtCs8RRi2RJs6bh_14vass_reach_lib9automaton20implicit_cfg_productNtB2_18ImplicitCFGProduct5reach
FNDA:0,_RNvMNtNtCs8RRi2RJs6bh_14vass_reach_lib9automaton20implicit_cfg_productNtB2_18ImplicitCFGProduct6get_mu
FNDA:0,_RNvMNtNtCs8RRi2RJs6bh_14vass_reach_lib9automaton20implicit_cfg_productNtB2_18ImplicitCFGProduct6set_mu
FNDA:0,_RNvMNtNtCs8RRi2RJs6bh_14vass_reach_lib9automaton20implicit_cfg_productNtB2_18ImplicitCFGProduct7add_cfg
FNDA:0,_RNvMNtNtCs8RRi2RJs6bh_14vass_reach_lib9automaton20implicit_cfg_productNtB2_18ImplicitCFGProduct7initial
FNDA:0,_RNvMNtNtCs8RRi2RJs6bh_14vass_reach_lib9automaton20implicit_cfg_productNtB2_18ImplicitCFGProduct7is_trap
FNDA:0,_RNvMNtNtCs8RRi2RJs6bh_14vass_reach_lib9automaton20implicit_cfg_productNtB2_18ImplicitCFGProduct8explicit
FNDA:0,_RNvMNtNtCs8RRi2RJs6bh_14vass_reach_lib9automaton20implicit_cfg_productNtB2_18ImplicitCFGProduct8main_cfg
FNDA:0,_RNvMs3_NtNtCs8RRi2RJs6bh_14vass_reach_lib9automaton20implicit_cfg_productNtB5_24MultiGraphTraversalState3new
FNDA:0,_RNvMs3_NtNtCs8RRi2RJs6bh_14vass_reach_lib9automaton20implicit_cfg_productNtB5_24MultiGraphTraversalState7to_path
FNDA:0,_RNvNtNtCs8RRi2RJs6bh_14vass_reach_lib9automaton20implicit_cfg_product14modulo_indices
FNDA:0,_RNvNtNtCs8RRi2RJs6bh_14vass_reach_lib9automaton20implicit_cfg_product24bounded_counting_indices
FNDA:0,_RNvNtNtCs8RRi2RJs6bh_14vass_reach_lib9automaton20implicit_cfg_product24build_counting_automaton
FNDA:0,_RNvNtNtCs8RRi2RJs6bh_14vass_reach_lib9automaton20implicit_cfg_product32forward_bounded_counting_indices
FNDA:0,_RNvNtNtCs8RRi2RJs6bh_14vass_reach_lib9automaton20implicit_cfg_product33backward_bounded_counting_indices
FNDA:0,_RNvXs0_NtNtCs8RRi2RJs6bh_14vass_reach_lib9automaton20implicit_cfg_productNtB5_18ImplicitCFGProductINtB7_9AutomatonNtB7_13DeterministicE10node_count
FNDA:0,_RNvXs0_NtNtCs8RRi2RJs6bh_14vass_reach_lib9automaton20implicit_cfg_productNtB5_18ImplicitCFGProductINtB7_9AutomatonNtB7_13DeterministicE18get_node_unchecked
FNDA:0,_RNvXs0_NtNtCs8RRi2RJs6bh_14vass_reach_lib9automaton20implicit_cfg_productNtB5_18ImplicitCFGProductINtB7_9AutomatonNtB7_13DeterministicE8get_node
FNDA:0,_RNvXs1_NtNtCs8RRi2RJs6bh_14vass_reach_lib9automaton20implicit_cfg_productNtB5_18ImplicitCFGProductINtB7_16TransitionSystemNtB7_13DeterministicE10successors
FNDA:0,_RNvXs1_NtNtCs8RRi2RJs6bh_14vass_reach_lib9automaton20implicit_cfg_productNtB5_18ImplicitCFGProductINtB7_16TransitionSystemNtB7_13DeterministicE12predecessors
FNDA:0,_RNvXs1_NtNtCs8RRi2RJs6bh_14vass_reach_lib9automaton20implicit_cfg_productNtB5_18ImplicitCFGProductINtB7_16TransitionSystemNtB7_13DeterministicE9successor
FNDA:0,_RNvXs2_NtNtCs8RRi2RJs6bh_14vass_reach_lib9automaton20implicit_cfg_productNtB5_18ImplicitCFGProductINtB7_20InitializedAutomatonNtB7_13DeterministicE11get_initial
FNDA:0,_RNvXs2_NtNtCs8RRi2RJs6bh_14vass_reach_lib9automaton20implicit_cfg_productNtB5_18ImplicitCFGProductINtB7_20InitializedAutomatonNtB7_13DeterministicE12is_accepting
FNDA:0,_RNvXs_NtNtCs8RRi2RJs6bh_14vass_reach_lib9automaton20implicit_cfg_productNtB4_18ImplicitCFGProductNtB6_8Alphabet8alphabet
FNF:46
FNH:23
DA:24,0
DA:25,0
DA:26,0
DA:29,0
DA:30,0
DA:31,0
DA:34,0
DA:35,0
DA:36,0
DA:39,0
DA:40,0
DA:41,0
DA:66,9
DA:67,9
DA:68,9
DA:69,9
DA:70,9
DA:71,9
DA:72,9
DA:73,9
DA:74,9
DA:76,9
DA:77,9
DA:79,27
DA:80,27
DA:81,27
DA:82,27
DA:83,27
DA:84,27
DA:85,27
DA:86,27
DA:87,27
DA:89,27
DA:90,27
DA:91,27
DA:92,27
DA:93,27
DA:94,27
DA:95,27
DA:96,27
DA:97,27
DA:98,27
DA:99,27
DA:100,27
DA:101,27
DA:102,27
DA:103,27
DA:104,27
DA:105,27
DA:106,27
DA:107,27
DA:108,27
DA:110,9
DA:111,9
DA:112,9
DA:113,9
DA:114,9
DA:115,9
DA:116,9
DA:117,9
DA:118,9
DA:119,9
DA:120,9
DA:125,7
DA:126,7
DA:127,7
DA:128,7
DA:129,7
DA:130,7
DA:131,7
DA:132,7
DA:133,7
DA:135,7
DA:137,7
DA:138,7
DA:139,7
DA:140,7
DA:141,7
DA:142,7
DA:143,7
DA:144,7
DA:145,7
DA:146,7
DA:147,7
DA:149,0
DA:150,0
DA:151,0
DA:153,0
DA:154,0
DA:155,0
DA:157,0
DA:158,0
DA:159,0
DA:161,0
DA:162,0
DA:163,0
DA:165,0
DA:166,0
DA:167,0
DA:169,0
DA:170,0
DA:172,0
DA:174,0
DA:175,0
DA:176,0
DA:177,0
DA:178,0
DA:179,0
DA:180,0
DA:181,0
DA:183,0
DA:185,0
DA:186,0
DA:187,0
DA:188,0
DA:190,0
DA:191,0
DA:192,0
DA:194,0
DA:195,0
DA:197,0
DA:199,0
DA:200,0
DA:201,0
DA:202,0
DA:203,0
DA:204,0
DA:205,0
DA:206,0
DA:208,0
DA:210,0
DA:211,0
DA:213,0
DA:215,0
DA:216,0
DA:217,0
DA:218,0
DA:219,0
DA:220,0
DA:221,0
DA:222,0
DA:224,0
DA:226,0
DA:227,0
DA:228,0
DA:230,8
DA:231,8
DA:232,8
DA:234,0
DA:235,0
DA:236,0
DA:238,8
DA:239,8
DA:240,8
DA:242,1
DA:243,1
DA:244,1
DA:247,1
DA:249,1
DA:251,0
DA:252,0
DA:255,1
DA:257,1
DA:258,1
DA:260,9
DA:262,9
DA:263,9
DA:265,9
DA:266,9
DA:267,0
DA:268,9
DA:270,9
DA:271,9
DA:273,475
DA:274,2742
DA:275,2742
DA:276,2742
DA:277,0
DA:282,2742
DA:283,2175
DA:284,567
DA:286,567
DA:287,466
DA:289,466
DA:290,466
DA:292,466
DA:294,466
DA:299,3
DA:300,463
DA:301,463
DA:302,463
DA:303,101
DA:307,6
DA:308,9
DA:310,1
DA:311,1
DA:312,1
DA:313,1
DA:314,1
DA:316,1
DA:317,1
DA:318,1
DA:320,6
DA:321,5
DA:322,3
DA:323,3
DA:325,5
DA:326,9
DA:327,9
DA:328,9
DA:329,3
DA:332,6
DA:333,2
DA:334,2
DA:335,2
DA:336,2
DA:337,4
DA:338,4
DA:339,4
DA:340,4
DA:341,1
DA:344,5
DA:345,3
DA:346,3
DA:347,3
DA:348,3
DA:349,2
DA:352,1
DA:353,1
DA:355,475
DA:356,713
DA:358,713
DA:359,472
DA:360,241
DA:363,3
DA:364,475
DA:366,2742
DA:367,7922
DA:369,7922
DA:370,2175
DA:371,5747
DA:374,567
DA:375,2742
DA:377,22
DA:378,22
DA:379,22
DA:380,130
DA:381,22
DA:382,22
DA:384,22
DA:385,22
DA:386,22
DA:387,22
DA:389,3239
DA:390,3239
DA:391,3239
DA:395,0
DA:396,0
DA:398,0
DA:400,0
DA:401,0
DA:402,0
DA:404,0
DA:405,0
DA:407,0
DA:408,0
DA:410,1
DA:411,1
DA:412,1
DA:418,571
DA:419,571
DA:420,571
DA:431,0
DA:432,0
DA:433,0
DA:435,0
DA:436,0
DA:437,0
DA:439,0
DA:440,0
DA:441,0
DA:445,108
DA:446,108
DA:447,108
DA:449,8
DA:450,8
DA:451,8
DA:452,8
DA:453,8
DA:454,8
DA:455,8
DA:456,20
DA:458,8
DA:460,9
DA:469,9
DA:471,22
DA:473,22
DA:474,22
DA:476,23
DA:477,23
DA:478,23
DA:479,23
DA:480,26
DA:481,23
DA:482,23
DA:484,23
DA:485,13
DA:486,13
DA:487,10
DA:488,10
DA:491,22
DA:492,13
DA:493,9
DA:496,12
DA:497,12
DA:498,12
DA:501,9
DA:502,9
DA:506,0
DA:507,0
DA:508,0
DA:510,0
DA:511,0
DA:512,0
DA:521,54
DA:522,54
DA:523,54
DA:524,54
DA:525,54
DA:526,54
DA:527,54
DA:528,54
DA:529,54
DA:530,54
DA:531,54
DA:533,54
DA:534,27
DA:535,27
DA:536,27
DA:537,27
DA:538,27
DA:539,27
DA:541,27
DA:542,27
DA:543,27
DA:544,27
DA:545,27
DA:546,27
DA:549,54
DA:557,475
DA:558,475
DA:559,475
DA:561,3
DA:562,3
DA:564,29
DA:565,29
DA:566,29
DA:567,29
DA:569,3
DA:571,3
DA:572,3
BRF:0
BRH:0
LF:366
LH:260
end_of_record
SF:/home/lemon/src/rust-automata/packages/vass-reach-lib/src/automaton/implicit_cfg_product/state.rs
FN:62,_RNvMNtNtNtCs2hUxDLYgi0n_14vass_reach_lib9automaton20implicit_cfg_product5stateNtB2_15MultiGraphState11clear_index
FN:28,_RNvMNtNtNtCs2hUxDLYgi0n_14vass_reach_lib9automaton20implicit_cfg_product5stateNtB2_15MultiGraphState11take_letter
FN:54,_RNvMNtNtNtCs2hUxDLYgi0n_14vass_reach_lib9automaton20implicit_cfg_product5stateNtB2_15MultiGraphState13clear_indices
FN:18,_RNvMNtNtNtCs2hUxDLYgi0n_14vass_reach_lib9automaton20implicit_cfg_product5stateNtB2_15MultiGraphState9cfg_state
FN:76,_RNvXs0_NtNtNtCs2hUxDLYgi0n_14vass_reach_lib9automaton20implicit_cfg_product5stateNtB5_15MultiGraphStateINtNtCs7xuAoyMVi4A_4core7convert4FromINtNtCs1EFbPCGXlWb_5alloc3vec3VecNtNtCsijRReng013a_8petgraph10graph_impl9NodeIndexEE4from
FN:84,_RNvXs1_NtNtNtCs2hUxDLYgi0n_14vass_reach_lib9automaton20implicit_cfg_product5stateNtB5_15MultiGraphStateINtNtCs7xuAoyMVi4A_4core7convert4FromINtNtCs1EFbPCGXlWb_5alloc5boxed3BoxSNtNtCsijRReng013a_8petgraph10graph_impl9NodeIndexEE4from
FN:90,_RNvXs2_NtNtNtCs2hUxDLYgi0n_14vass_reach_lib9automaton20implicit_cfg_product5stateNtB5_15MultiGraphStateINtNtCs7xuAoyMVi4A_4core7convert4FromNtNtCsijRReng013a_8petgraph10graph_impl9NodeIndexE4from
FN:70,_RNvXs_NtNtNtCs2hUxDLYgi0n_14vass_reach_lib9automaton20implicit_cfg_product5stateNtB4_15MultiGraphStateINtNtNtCs7xuAoyMVi4A_4core3ops5index5IndexjE5index
FN:62,_RNvMNtNtNtCs8RRi2RJs6bh_14vass_reach_lib9automaton20implicit_cfg_product5stateNtB2_15MultiGraphState11clear_index
FN:28,_RNvMNtNtNtCs8RRi2RJs6bh_14vass_reach_lib9automaton20implicit_cfg_product5stateNtB2_15MultiGraphState11take_letter
FN:54,_RNvMNtNtNtCs8RRi2RJs6bh_14vass_reach_lib9automaton20implicit_cfg_product5stateNtB2_15MultiGraphState13clear_indices
FN:18,_RNvMNtNtNtCs8RRi2RJs6bh_14vass_reach_lib9automaton20implicit_cfg_product5stateNtB2_15MultiGraphState9cfg_state
FN:76,_RNvXs0_NtNtNtCs8RRi2RJs6bh_14vass_reach_lib9automaton20implicit_cfg_product5stateNtB5_15MultiGraphStateINtNtCs7xuAoyMVi4A_4core7convert4FromINtNtCs1EFbPCGXlWb_5alloc3vec3VecNtNtCsijRReng013a_8petgraph10graph_impl9NodeIndexEE4from
FN:84,_RNvXs1_NtNtNtCs8RRi2RJs6bh_14vass_reach_lib9automaton20implicit_cfg_product5stateNtB5_15MultiGraphStateINtNtCs7xuAoyMVi4A_4core7convert4FromINtNtCs1EFbPCGXlWb_5alloc5boxed3BoxSNtNtCsijRReng013a_8petgraph10graph_impl9NodeIndexEE4from
FN:90,_RNvXs2_NtNtNtCs8RRi2RJs6bh_14vass_reach_lib9automaton20implicit_cfg_product5stateNtB5_15MultiGraphStateINtNtCs7xuAoyMVi4A_4core7convert4FromNtNtCsijRReng013a_8petgraph10graph_impl9NodeIndexE4from
FN:70,_RNvXs_NtNtNtCs8RRi2RJs6bh_14vass_reach_lib9automaton20implicit_cfg_product5stateNtB4_15MultiGraphStateINtNtNtCs7xuAoyMVi4A_4core3ops5index5IndexjE5index
FNDA:0,_RNvMNtNtNtCs2hUxDLYgi0n_14vass_reach_lib9automaton20implicit_cfg_product5stateNtB2_15MultiGraphState11clear_index
FNDA:2896,_RNvMNtNtNtCs2hUxDLYgi0n_14vass_reach_lib9automaton20implicit_cfg_product5stateNtB2_15MultiGraphState11take_letter
FNDA:0,_RNvMNtNtNtCs2hUxDLYgi0n_14vass_reach_lib9automaton20implicit_cfg_product5stateNtB2_15MultiGraphState13clear_indices
FNDA:0,_RNvMNtNtNtCs2hUxDLYgi0n_14vass_reach_lib9automaton20implicit_cfg_product5stateNtB2_15MultiGraphState9cfg_state
FNDA:5,_RNvXs0_NtNtNtCs2hUxDLYgi0n_14vass_reach_lib9automaton20implicit_cfg_product5stateNtB5_15MultiGraphStateINtNtCs7xuAoyMVi4A_4core7convert4FromINtNtCs1EFbPCGXlWb_5alloc3vec3VecNtNtCsijRReng013a_8petgraph10graph_impl9NodeIndexEE4from
FNDA:12,_RNvXs1_NtNtNtCs2hUxDLYgi0n_14vass_reach_lib9automaton20implicit_cfg_product5stateNtB5_15MultiGraphStateINtNtCs7xuAoyMVi4A_4core7convert4FromINtNtCs1EFbPCGXlWb_5alloc5boxed3BoxSNtNtCsijRReng013a_8petgraph10graph_impl9NodeIndexEE4from
FNDA:9,_RNvXs2_NtNtNtCs2hUxDLYgi0n_14vass_reach_lib9automaton20implicit_cfg_product5stateNtB5_15MultiGraphStateINtNtCs7xuAoyMVi4A_4core7convert4FromNtNtCsijRReng013a_8petgraph10graph_impl9NodeIndexE4from
FNDA:8658,_RNvXs_NtNtNtCs2hUxDLYgi0n_14vass_reach_lib9automaton20implicit_cfg_product5stateNtB4_15MultiGraphStateINtNtNtCs7xuAoyMVi4A_4core3ops5index5IndexjE5index
FNDA:0,_RNvMNtNtNtCs8RRi2RJs6bh_14vass_reach_lib9automaton20implicit_cfg_product5stateNtB2_15MultiGraphState11clear_index
FNDA:0,_RNvMNtNtNtCs8RRi2RJs6bh_14vass_reach_lib9automaton20implicit_cfg_product5stateNtB2_15MultiGraphState11take_letter
FNDA:0,_RNvMNtNtNtCs8RRi2RJs6bh_14vass_reach_lib9automaton20implicit_cfg_product5stateNtB2_15MultiGraphState13clear_indices
FNDA:0,_RNvMNtNtNtCs8RRi2RJs6bh_14vass_reach_lib9automaton20implicit_cfg_product5stateNtB2_15MultiGraphState9cfg_state
FNDA:0,_RNvXs0_NtNtNtCs8RRi2RJs6bh_14vass_reach_lib9automaton20implicit_cfg_product5stateNtB5_15MultiGraphStateINtNtCs7xuAoyMVi4A_4core7convert4FromINtNtCs1EFbPCGXlWb_5alloc3vec3VecNtNtCsijRReng013a_8petgraph10graph_impl9NodeIndexEE4from
FNDA:0,_RNvXs1_NtNtNtCs8RRi2RJs6bh_14vass_reach_lib9automaton20implicit_cfg_product5stateNtB5_15MultiGraphStateINtNtCs7xuAoyMVi4A_4core7convert4FromINtNtCs1EFbPCGXlWb_5alloc5boxed3BoxSNtNtCsijRReng013a_8petgraph10graph_impl9NodeIndexEE4from
FNDA:0,_RNvXs2_NtNtNtCs8RRi2RJs6bh_14vass_reach_lib9automaton20implicit_cfg_product5stateNtB5_15MultiGraphStateINtNtCs7xuAoyMVi4A_4core7convert4FromNtNtCsijRReng013a_8petgraph10graph_impl9NodeIndexE4from
FNDA:0,_RNvXs_NtNtNtCs8RRi2RJs6bh_14vass_reach_lib9automaton20implicit_cfg_product5stateNtB4_15MultiGraphStateINtNtNtCs7xuAoyMVi4A_4core3ops5index5IndexjE5index
FNF:8
FNH:5
DA:18,0
DA:19,0
DA:20,0
DA:28,2896
DA:29,2896
DA:30,2896
DA:31,2896
DA:32,2896
DA:33,2896
DA:35,28399
DA:36,28399
DA:37,28399
DA:38,28380
DA:39,28380
DA:40,19
DA:44,2877
DA:45,2877
DA:46,2877
DA:47,2896
DA:54,0
DA:55,0
DA:56,0
DA:57,0
DA:58,0
DA:62,0
DA:63,0
DA:64,0
DA:70,8658
DA:71,8658
DA:72,8658
DA:76,5
DA:77,5
DA:78,5
DA:79,5
DA:80,5
DA:84,12
DA:85,12
DA:86,12
DA:90,9
DA:91,9
DA:92,9
DA:93,9
DA:94,9
BRF:0
BRH:0
LF:43
LH:32
end_of_record
SF:/home/lemon/src/rust-automata/packages/vass-reach-lib/src/automaton/index_map.rs
FN:376,_RNvMsh_NtNtCs2hUxDLYgi0n_14vass_reach_lib9automaton9index_mapINtB5_8IndexSetNtNtCsijRReng013a_8petgraph10graph_impl9NodeIndexE6insertCs43NobSSaLSd_3dfa
FN:177,_RNvXs6_NtNtCs2hUxDLYgi0n_14vass_reach_lib9automaton9index_mapINtB5_8IndexMapNtNtCsijRReng013a_8petgraph10graph_impl9NodeIndexB1c_EINtNtNtCs7xuAoyMVi4A_4core3ops5index5IndexB1c_E5indexCs43NobSSaLSd_3dfa
FN:268,_RINvMsb_NtNtCs2hUxDLYgi0n_14vass_reach_lib9automaton9index_mapINtB6_14OptionIndexMapNtNtCsijRReng013a_8petgraph10graph_impl9EdgeIndexNtNtNtCskqV1XosFXcP_2z33ast3int3IntE3mapNCINvNtNtBa_6solver5utils26parikh_image_from_edge_mapB1k_E0mEBa_
FN:275,_RNCINvMsb_NtNtCs2hUxDLYgi0n_14vass_reach_lib9automaton9index_mapINtB8_14OptionIndexMapNtNtCsijRReng013a_8petgraph10graph_impl9EdgeIndexNtNtNtCskqV1XosFXcP_2z33ast3int3IntE3mapNCINvNtNtBc_6solver5utils26parikh_image_from_edge_mapB1m_E0mE0Bc_
FN:129,_RNCNvMs5_NtNtCs2hUxDLYgi0n_14vass_reach_lib9automaton9index_mapINtB7_8IndexMapNtNtCsijRReng013a_8petgraph10graph_impl9EdgeIndexmE4iter0Bb_
FN:90,_RNvMs5_NtNtCs2hUxDLYgi0n_14vass_reach_lib9automaton9index_mapINtB5_8IndexMapNtNtCsijRReng013a_8petgraph10graph_impl9EdgeIndexmE3getB9_
FN:69,_RNvMs5_NtNtCs2hUxDLYgi0n_14vass_reach_lib9automaton9index_mapINtB5_8IndexMapNtNtCsijRReng013a_8petgraph10graph_impl9EdgeIndexmE3newB9_
FN:128,_RNvMs5_NtNtCs2hUxDLYgi0n_14vass_reach_lib9automaton9index_mapINtB5_8IndexMapNtNtCsijRReng013a_8petgraph10graph_impl9EdgeIndexmE4iterB9_
FN:76,_RNvMs5_NtNtCs2hUxDLYgi0n_14vass_reach_lib9automaton9index_mapINtB5_8IndexMapNtNtCsijRReng013a_8petgraph10graph_impl9EdgeIndexmE4sizeB9_
FN:118,_RNvMs5_NtNtCs2hUxDLYgi0n_14vass_reach_lib9automaton9index_mapINtB5_8IndexMapNtNtCsijRReng013a_8petgraph10graph_impl9EdgeIndexmE6insertB9_
FN:111,_RNvMs5_NtNtCs2hUxDLYgi0n_14vass_reach_lib9automaton9index_mapINtB5_8IndexMapNtNtCsijRReng013a_8petgraph10graph_impl9EdgeIndexmE7get_mutB9_
FN:90,_RNvMs5_NtNtCs2hUxDLYgi0n_14vass_reach_lib9automaton9index_mapINtB5_8IndexMapNtNtCsijRReng013a_8petgraph10graph_impl9NodeIndexB1c_E3getB9_
FN:69,_RNvMs5_NtNtCs2hUxDLYgi0n_14vass_reach_lib9automaton9index_mapINtB5_8IndexMapNtNtCsijRReng013a_8petgraph10graph_impl9NodeIndexB1c_E3newB9_
FN:118,_RNvMs5_NtNtCs2hUxDLYgi0n_14vass_reach_lib9automaton9index_mapINtB5_8IndexMapNtNtCsijRReng013a_8petgraph10graph_impl9NodeIndexB1c_E6insertB9_
FN:245,_RNvMsb_NtNtCs2hUxDLYgi0n_14vass_reach_lib9automaton9index_mapINtB5_14OptionIndexMapNtNtCsijRReng013a_8petgraph10graph_impl9EdgeIndexNtNtNtCskqV1XosFXcP_2z33ast3int3IntE3getB9_
FN:228,_RNvMsb_NtNtCs2hUxDLYgi0n_14vass_reach_lib9automaton9index_mapINtB5_14OptionIndexMapNtNtCsijRReng013a_8petgraph10graph_impl9EdgeIndexNtNtNtCskqV1XosFXcP_2z33ast3int3IntE3newB9_
FN:253,_RNvMsb_NtNtCs2hUxDLYgi0n_14vass_reach_lib9automaton9index_mapINtB5_14OptionIndexMapNtNtCsijRReng013a_8petgraph10graph_impl9EdgeIndexNtNtNtCskqV1XosFXcP_2z33ast3int3IntE6insertB9_
FN:359,_RNvMsh_NtNtCs2hUxDLYgi0n_14vass_reach_lib9automaton9index_mapINtB5_8IndexSetNtNtCsijRReng013a_8petgraph10graph_impl9NodeIndexE3newB9_
FN:301,_RNvXsc_NtNtCs2hUxDLYgi0n_14vass_reach_lib9automaton9index_mapINtB5_14OptionIndexMapNtNtCsijRReng013a_8petgraph10graph_impl9EdgeIndexNtNtNtCskqV1XosFXcP_2z33ast3int3IntEINtNtNtCs7xuAoyMVi4A_4core3ops5index5IndexB1j_E5indexB9_
FN:404,_RNvXsi_NtNtCs2hUxDLYgi0n_14vass_reach_lib9automaton9index_mapINtB5_8IndexSetNtNtCsijRReng013a_8petgraph10graph_impl9NodeIndexEINtNtNtCs7xuAoyMVi4A_4core3ops5index5IndexB1c_E5indexB9_
FN:410,_RNvXsj_NtNtCs2hUxDLYgi0n_14vass_reach_lib9automaton9index_mapINtB5_8IndexSetNtNtCsijRReng013a_8petgraph10graph_impl9NodeIndexEINtNtNtCs7xuAoyMVi4A_4core3ops5index8IndexMutB1c_E9index_mutB9_
FN:30,_RNvXs0_NtNtCs2hUxDLYgi0n_14vass_reach_lib9automaton9index_mapjNtB5_12IndexMapData5empty
FN:36,_RNvXs1_NtNtCs2hUxDLYgi0n_14vass_reach_lib9automaton9index_mapmNtB5_12IndexMapData5empty
FN:54,_RNvXs4_NtNtCs2hUxDLYgi0n_14vass_reach_lib9automaton9index_mapuNtB5_12IndexMapData5empty
FN:42,_RNvXs2_NtNtCs2hUxDLYgi0n_14vass_reach_lib9automaton9index_mapNtNtCsijRReng013a_8petgraph10graph_impl9NodeIndexNtB5_12IndexMapData5emptyB9_
FN:154,_RINvMs5_NtNtCs2hUxDLYgi0n_14vass_reach_lib9automaton9index_mapINtB6_8IndexMapppE10map_optionppEBa_
FN:134,_RINvMs5_NtNtCs2hUxDLYgi0n_14vass_reach_lib9automaton9index_mapINtB6_8IndexMapppE3mapppEBa_
FN:284,_RINvMsb_NtNtCs2hUxDLYgi0n_14vass_reach_lib9automaton9index_mapINtB6_14OptionIndexMapppE10map_optionppEBa_
FN:164,_RNCINvMs5_NtNtCs2hUxDLYgi0n_14vass_reach_lib9automaton9index_mapINtB8_8IndexMapppE10map_optionppE0Bc_
FN:143,_RNCINvMs5_NtNtCs2hUxDLYgi0n_14vass_reach_lib9automaton9index_mapINtB8_8IndexMapppE3mapppE0Bc_
FN:289,_RNCINvMsb_NtNtCs2hUxDLYgi0n_14vass_reach_lib9automaton9index_mapINtB8_14OptionIndexMapppE10map_optionppE0Bc_
FN:261,_RNCNCNvMsb_NtNtCs2hUxDLYgi0n_14vass_reach_lib9automaton9index_mapINtB9_14OptionIndexMapppE4iter00Bd_
FN:261,_RNCNvMsb_NtNtCs2hUxDLYgi0n_14vass_reach_lib9automaton9index_mapINtB7_14OptionIndexMapppE4iter0Bb_
FN:396,_RNCNvMsh_NtNtCs2hUxDLYgi0n_14vass_reach_lib9automaton9index_mapINtB7_8IndexSetpE6to_vecs_0Bb_
FN:206,_RNCNvXININtNtCs2hUxDLYgi0n_14vass_reach_lib9automaton9index_maps9_0ppEINtB7_16IndexMapIntoIterppENtNtNtNtCs7xuAoyMVi4A_4core4iter6traits8iterator8Iterator4next0Bb_
FN:96,_RNvMs5_NtNtCs2hUxDLYgi0n_14vass_reach_lib9automaton9index_mapINtB5_8IndexMapppE10get_optionB9_
FN:124,_RNvMs5_NtNtCs2hUxDLYgi0n_14vass_reach_lib9automaton9index_mapINtB5_8IndexMapppE6deleteB9_
FN:80,_RNvMs5_NtNtCs2hUxDLYgi0n_14vass_reach_lib9automaton9index_mapINtB5_8IndexMapppE7has_keyB9_
FN:194,_RNvMs8_NtNtCs2hUxDLYgi0n_14vass_reach_lib9automaton9index_mapINtB5_16IndexMapIntoIterppE3newB9_
FN:257,_RNvMsb_NtNtCs2hUxDLYgi0n_14vass_reach_lib9automaton9index_mapINtB5_14OptionIndexMapppE4iterB9_
FN:235,_RNvMsb_NtNtCs2hUxDLYgi0n_14vass_reach_lib9automaton9index_mapINtB5_14OptionIndexMapppE4sizeB9_
FN:264,_RNvMsb_NtNtCs2hUxDLYgi0n_14vass_reach_lib9automaton9index_mapINtB5_14OptionIndexMapppE6deleteB9_
FN:249,_RNvMsb_NtNtCs2hUxDLYgi0n_14vass_reach_lib9automaton9index_mapINtB5_14OptionIndexMapppE7get_mutB9_
FN:239,_RNvMsb_NtNtCs2hUxDLYgi0n_14vass_reach_lib9automaton9index_mapINtB5_14OptionIndexMapppE7has_keyB9_
FN:320,_RNvMse_NtNtCs2hUxDLYgi0n_14vass_reach_lib9automaton9index_mapINtB5_22OptionIndexMapIntoIterppE3newB9_
FN:366,_RNvMsh_NtNtCs2hUxDLYgi0n_14vass_reach_lib9automaton9index_mapINtB5_8IndexSetpE4sizeB9_
FN:376,_RNvMsh_NtNtCs2hUxDLYgi0n_14vass_reach_lib9automaton9index_mapINtB5_8IndexSetpE6insertB9_
FN:387,_RNvMsh_NtNtCs2hUxDLYgi0n_14vass_reach_lib9automaton9index_mapINtB5_8IndexSetpE6removeB9_
FN:391,_RNvMsh_NtNtCs2hUxDLYgi0n_14vass_reach_lib9automaton9index_mapINtB5_8IndexSetpE6to_vecB9_
FN:370,_RNvMsh_NtNtCs2hUxDLYgi0n_14vass_reach_lib9automaton9index_mapINtB5_8IndexSetpE8containsB9_
FN:18,_RNvXININtNtCs2hUxDLYgi0n_14vass_reach_lib9automaton9index_map0pEINtNtCs1EFbPCGXlWb_5alloc3vec3VecpENtB5_12IndexMapData5emptyB9_
FN:48,_RNvXININtNtCs2hUxDLYgi0n_14vass_reach_lib9automaton9index_maps3_0pEINtNtCsijRReng013a_8petgraph10graph_impl9EdgeIndexpENtB5_12IndexMapData5emptyB9_
FN:177,_RNvXININtNtCs2hUxDLYgi0n_14vass_reach_lib9automaton9index_maps6_0ppEINtB5_8IndexMapppEINtNtNtCs7xuAoyMVi4A_4core3ops5index5IndexpE5indexB9_
FN:183,_RNvXININtNtCs2hUxDLYgi0n_14vass_reach_lib9automaton9index_maps7_0ppEINtB5_8IndexMapppEINtNtNtCs7xuAoyMVi4A_4core3ops5index8IndexMutpE9index_mutB9_
FN:205,_RNvXININtNtCs2hUxDLYgi0n_14vass_reach_lib9automaton9index_maps9_0ppEINtB5_16IndexMapIntoIterppENtNtNtNtCs7xuAoyMVi4A_4core4iter6traits8iterator8Iterator4nextB9_
FN:24,_RNvXININtNtCs2hUxDLYgi0n_14vass_reach_lib9automaton9index_maps_0pEINtNtCs1EFbPCGXlWb_5alloc5boxed3BoxSpENtB5_12IndexMapData5emptyB9_
FN:214,_RNvXININtNtCs2hUxDLYgi0n_14vass_reach_lib9automaton9index_mapsa_0ppEINtB5_8IndexMapppENtNtNtNtCs7xuAoyMVi4A_4core4iter6traits7collect12IntoIterator9into_iterB9_
FN:309,_RNvXININtNtCs2hUxDLYgi0n_14vass_reach_lib9automaton9index_mapsd_0ppEINtB5_14OptionIndexMapppEINtNtNtCs7xuAoyMVi4A_4core3ops5index8IndexMutpE9index_mutB9_
FN:331,_RNvXININtNtCs2hUxDLYgi0n_14vass_reach_lib9automaton9index_mapsf_0ppEINtB5_22OptionIndexMapIntoIterppENtNtNtNtCs7xuAoyMVi4A_4core4iter6traits8iterator8Iterator4nextB9_
FN:345,_RNvXININtNtCs2hUxDLYgi0n_14vass_reach_lib9automaton9index_mapsg_0ppEINtB5_14OptionIndexMapppENtNtNtNtCs7xuAoyMVi4A_4core4iter6traits7collect12IntoIterator9into_iterB9_
FN:396,_RNCNvMsh_NtNtCs2hUxDLYgi0n_14vass_reach_lib9automaton9index_mapINtB7_8IndexSetNtNtCsijRReng013a_8petgraph10graph_impl9NodeIndexE6to_vecs_0CsjA5qX5JEwPT_16graph_algorithms
FN:96,_RNvMs5_NtNtCs2hUxDLYgi0n_14vass_reach_lib9automaton9index_mapINtB5_8IndexMapNtNtCsijRReng013a_8petgraph10graph_impl9NodeIndexB1c_E10get_optionCsjA5qX5JEwPT_16graph_algorithms
FN:376,_RNvMsh_NtNtCs2hUxDLYgi0n_14vass_reach_lib9automaton9index_mapINtB5_8IndexSetNtNtCsijRReng013a_8petgraph10graph_impl9NodeIndexE6insertCsjA5qX5JEwPT_16graph_algorithms
FN:391,_RNvMsh_NtNtCs2hUxDLYgi0n_14vass_reach_lib9automaton9index_mapINtB5_8IndexSetNtNtCsijRReng013a_8petgraph10graph_impl9NodeIndexE6to_vecCsjA5qX5JEwPT_16graph_algorithms
FN:370,_RNvMsh_NtNtCs2hUxDLYgi0n_14vass_reach_lib9automaton9index_mapINtB5_8IndexSetNtNtCsijRReng013a_8petgraph10graph_impl9NodeIndexE8containsCsjA5qX5JEwPT_16graph_algorithms
FN:96,_RNvMs5_NtNtCs2hUxDLYgi0n_14vass_reach_lib9automaton9index_mapINtB5_8IndexMapNtNtCsijRReng013a_8petgraph10graph_impl9NodeIndexB1c_E10get_optionCs3ATG82DPHTL_3lgs
FN:96,_RNvMs5_NtNtCs2hUxDLYgi0n_14vass_reach_lib9automaton9index_mapINtB5_8IndexMapNtNtCsijRReng013a_8petgraph10graph_impl9NodeIndexB1c_E10get_optionCsdx2WVSQjOLl_3ltc
FN:129,_RNCNvMs5_NtNtCs2hUxDLYgi0n_14vass_reach_lib9automaton9index_mapINtB7_8IndexMapjmE4iter0Cs9XXF3XtrrPR_4path
FN:90,_RNvMs5_NtNtCs2hUxDLYgi0n_14vass_reach_lib9automaton9index_mapINtB5_8IndexMapjmE3getCs9XXF3XtrrPR_4path
FN:69,_RNvMs5_NtNtCs2hUxDLYgi0n_14vass_reach_lib9automaton9index_mapINtB5_8IndexMapjmE3newCs9XXF3XtrrPR_4path
FN:128,_RNvMs5_NtNtCs2hUxDLYgi0n_14vass_reach_lib9automaton9index_mapINtB5_8IndexMapjmE4iterCs9XXF3XtrrPR_4path
FN:118,_RNvMs5_NtNtCs2hUxDLYgi0n_14vass_reach_lib9automaton9index_mapINtB5_8IndexMapjmE6insertCs9XXF3XtrrPR_4path
FN:111,_RNvMs5_NtNtCs2hUxDLYgi0n_14vass_reach_lib9automaton9index_mapINtB5_8IndexMapjmE7get_mutCs9XXF3XtrrPR_4path
FN:96,_RNvMs5_NtNtCs2hUxDLYgi0n_14vass_reach_lib9automaton9index_mapINtB5_8IndexMapNtNtCsijRReng013a_8petgraph10graph_impl9NodeIndexB1c_E10get_optionCsgHwEJVtWcfn_14petri_net_spec
FN:376,_RNvMsh_NtNtCs2hUxDLYgi0n_14vass_reach_lib9automaton9index_mapINtB5_8IndexSetNtNtCsijRReng013a_8petgraph10graph_impl9NodeIndexE6insertCsgHwEJVtWcfn_14petri_net_spec
FN:177,_RNvXs6_NtNtCs2hUxDLYgi0n_14vass_reach_lib9automaton9index_mapINtB5_8IndexMapNtNtCsijRReng013a_8petgraph10graph_impl9NodeIndexB1c_EINtNtNtCs7xuAoyMVi4A_4core3ops5index5IndexB1c_E5indexCsgHwEJVtWcfn_14petri_net_spec
FN:96,_RNvMs5_NtNtCs2hUxDLYgi0n_14vass_reach_lib9automaton9index_mapINtB5_8IndexMapNtNtCsijRReng013a_8petgraph10graph_impl9NodeIndexB1c_E10get_optionCsbhGvosVcoyU_4vass
FN:96,_RNvMs5_NtNtCs2hUxDLYgi0n_14vass_reach_lib9automaton9index_mapINtB5_8IndexMapNtNtCsijRReng013a_8petgraph10graph_impl9NodeIndexB1c_E10get_optionCsaYjQXJDQq9v_12vass_n_reach
FN:376,_RNvMsh_NtNtCs2hUxDLYgi0n_14vass_reach_lib9automaton9index_mapINtB5_8IndexSetNtNtCsijRReng013a_8petgraph10graph_impl9NodeIndexE6insertCsaYjQXJDQq9v_12vass_n_reach
FN:177,_RNvXs6_NtNtCs2hUxDLYgi0n_14vass_reach_lib9automaton9index_mapINtB5_8IndexMapNtNtCsijRReng013a_8petgraph10graph_impl9NodeIndexB1c_EINtNtNtCs7xuAoyMVi4A_4core3ops5index5IndexB1c_E5indexCsaYjQXJDQq9v_12vass_n_reach
FN:154,_RINvMs5_NtNtCs8RRi2RJs6bh_14vass_reach_lib9automaton9index_mapINtB6_8IndexMapppE10map_optionppEBa_
FN:134,_RINvMs5_NtNtCs8RRi2RJs6bh_14vass_reach_lib9automaton9index_mapINtB6_8IndexMapppE3mapppEBa_
FN:284,_RINvMsb_NtNtCs8RRi2RJs6bh_14vass_reach_lib9automaton9index_mapINtB6_14OptionIndexMapppE10map_optionppEBa_
FN:268,_RINvMsb_NtNtCs8RRi2RJs6bh_14vass_reach_lib9automaton9index_mapINtB6_14OptionIndexMapppE3mapppEBa_
FN:164,_RNCINvMs5_NtNtCs8RRi2RJs6bh_14vass_reach_lib9automaton9index_mapINtB8_8IndexMapppE10map_optionppE0Bc_
FN:143,_RNCINvMs5_NtNtCs8RRi2RJs6bh_14vass_reach_lib9automaton9index_mapINtB8_8IndexMapppE3mapppE0Bc_
FN:289,_RNCINvMsb_NtNtCs8RRi2RJs6bh_14vass_reach_lib9automaton9index_mapINtB8_14OptionIndexMapppE10map_optionppE0Bc_
FN:275,_RNCINvMsb_NtNtCs8RRi2RJs6bh_14vass_reach_lib9automaton9index_mapINtB8_14OptionIndexMapppE3mapppE0Bc_
FN:261,_RNCNCNvMsb_NtNtCs8RRi2RJs6bh_14vass_reach_lib9automaton9index_mapINtB9_14OptionIndexMapppE4iter00Bd_
FN:129,_RNCNvMs5_NtNtCs8RRi2RJs6bh_14vass_reach_lib9automaton9index_mapINtB7_8IndexMapppE4iter0Bb_
FN:261,_RNCNvMsb_NtNtCs8RRi2RJs6bh_14vass_reach_lib9automaton9index_mapINtB7_14OptionIndexMapppE4iter0Bb_
FN:396,_RNCNvMsh_NtNtCs8RRi2RJs6bh_14vass_reach_lib9automaton9index_mapINtB7_8IndexSetpE6to_vecs_0Bb_
FN:206,_RNCNvXININtNtCs8RRi2RJs6bh_14vass_reach_lib9automaton9index_maps9_0ppEINtB7_16IndexMapIntoIterppENtNtNtNtCs7xuAoyMVi4A_4core4iter6traits8iterator8Iterator4next0Bb_
FN:96,_RNvMs5_NtNtCs8RRi2RJs6bh_14vass_reach_lib9automaton9index_mapINtB5_8IndexMapppE10get_optionB9_
FN:90,_RNvMs5_NtNtCs8RRi2RJs6bh_14vass_reach_lib9automaton9index_mapINtB5_8IndexMapppE3getB9_
FN:69,_RNvMs5_NtNtCs8RRi2RJs6bh_14vass_reach_lib9automaton9index_mapINtB5_8IndexMapppE3newB9_
FN:128,_RNvMs5_NtNtCs8RRi2RJs6bh_14vass_reach_lib9automaton9index_mapINtB5_8IndexMapppE4iterB9_
FN:76,_RNvMs5_NtNtCs8RRi2RJs6bh_14vass_reach_lib9automaton9index_mapINtB5_8IndexMapppE4sizeB9_
FN:124,_RNvMs5_NtNtCs8RRi2RJs6bh_14vass_reach_lib9automaton9index_mapINtB5_8IndexMapppE6deleteB9_
FN:118,_RNvMs5_NtNtCs8RRi2RJs6bh_14vass_reach_lib9automaton9index_mapINtB5_8IndexMapppE6insertB9_
FN:111,_RNvMs5_NtNtCs8RRi2RJs6bh_14vass_reach_lib9automaton9index_mapINtB5_8IndexMapppE7get_mutB9_
FN:80,_RNvMs5_NtNtCs8RRi2RJs6bh_14vass_reach_lib9automaton9index_mapINtB5_8IndexMapppE7has_keyB9_
FN:194,_RNvMs8_NtNtCs8RRi2RJs6bh_14vass_reach_lib9automaton9index_mapINtB5_16IndexMapIntoIterppE3newB9_
FN:245,_RNvMsb_NtNtCs8RRi2RJs6bh_14vass_reach_lib9automaton9index_mapINtB5_14OptionIndexMapppE3getB9_
FN:228,_RNvMsb_NtNtCs8RRi2RJs6bh_14vass_reach_lib9automaton9index_mapINtB5_14OptionIndexMapppE3newB9_
FN:257,_RNvMsb_NtNtCs8RRi2RJs6bh_14vass_reach_lib9automaton9index_mapINtB5_14OptionIndexMapppE4iterB9_
FN:235,_RNvMsb_NtNtCs8RRi2RJs6bh_14vass_reach_lib9automaton9index_mapINtB5_14OptionIndexMapppE4sizeB9_
FN:264,_RNvMsb_NtNtCs8RRi2RJs6bh_14vass_reach_lib9automaton9index_mapINtB5_14OptionIndexMapppE6deleteB9_
FN:253,_RNvMsb_NtNtCs8RRi2RJs6bh_14vass_reach_lib9automaton9index_mapINtB5_14OptionIndexMapppE6insertB9_
FN:249,_RNvMsb_NtNtCs8RRi2RJs6bh_14vass_reach_lib9automaton9index_mapINtB5_14OptionIndexMapppE7get_mutB9_
FN:239,_RNvMsb_NtNtCs8RRi2RJs6bh_14vass_reach_lib9automaton9index_mapINtB5_14OptionIndexMapppE7has_keyB9_
FN:320,_RNvMse_NtNtCs8RRi2RJs6bh_14vass_reach_lib9automaton9index_mapINtB5_22OptionIndexMapIntoIterppE3newB9_
FN:359,_RNvMsh_NtNtCs8RRi2RJs6bh_14vass_reach_lib9automaton9index_mapINtB5_8IndexSetpE3newB9_
FN:366,_RNvMsh_NtNtCs8RRi2RJs6bh_14vass_reach_lib9automaton9index_mapINtB5_8IndexSetpE4sizeB9_
FN:376,_RNvMsh_NtNtCs8RRi2RJs6bh_14vass_reach_lib9automaton9index_mapINtB5_8IndexSetpE6insertB9_
FN:387,_RNvMsh_NtNtCs8RRi2RJs6bh_14vass_reach_lib9automaton9index_mapINtB5_8IndexSetpE6removeB9_
FN:391,_RNvMsh_NtNtCs8RRi2RJs6bh_14vass_reach_lib9automaton9index_mapINtB5_8IndexSetpE6to_vecB9_
FN:370,_RNvMsh_NtNtCs8RRi2RJs6bh_14vass_reach_lib9automaton9index_mapINtB5_8IndexSetpE8containsB9_
FN:18,_RNvXININtNtCs8RRi2RJs6bh_14vass_reach_lib9automaton9index_map0pEINtNtCs1EFbPCGXlWb_5alloc3vec3VecpENtB5_12IndexMapData5emptyB9_
FN:42,_RNvXININtNtCs8RRi2RJs6bh_14vass_reach_lib9automaton9index_maps2_0pEINtNtCsijRReng013a_8petgraph10graph_impl9NodeIndexpENtB5_12IndexMapData5emptyB9_
FN:48,_RNvXININtNtCs8RRi2RJs6bh_14vass_reach_lib9automaton9index_maps3_0pEINtNtCsijRReng013a_8petgraph10graph_impl9EdgeIndexpENtB5_12IndexMapData5emptyB9_
FN:177,_RNvXININtNtCs8RRi2RJs6bh_14vass_reach_lib9automaton9index_maps6_0ppEINtB5_8IndexMapppEINtNtNtCs7xuAoyMVi4A_4core3ops5index5IndexpE5indexB9_
FN:183,_RNvXININtNtCs8RRi2RJs6bh_14vass_reach_lib9automaton9index_maps7_0ppEINtB5_8IndexMapppEINtNtNtCs7xuAoyMVi4A_4core3ops5index8IndexMutpE9index_mutB9_
FN:205,_RNvXININtNtCs8RRi2RJs6bh_14vass_reach_lib9automaton9index_maps9_0ppEINtB5_16IndexMapIntoIterppENtNtNtNtCs7xuAoyMVi4A_4core4iter6traits8iterator8Iterator4nextB9_
FN:24,_RNvXININtNtCs8RRi2RJs6bh_14vass_reach_lib9automaton9index_maps_0pEINtNtCs1EFbPCGXlWb_5alloc5boxed3BoxSpENtB5_12IndexMapData5emptyB9_
FN:214,_RNvXININtNtCs8RRi2RJs6bh_14vass_reach_lib9automaton9index_mapsa_0ppEINtB5_8IndexMapppENtNtNtNtCs7xuAoyMVi4A_4core4iter6traits7collect12IntoIterator9into_iterB9_
FN:301,_RNvXININtNtCs8RRi2RJs6bh_14vass_reach_lib9automaton9index_mapsc_0ppEINtB5_14OptionIndexMapppEINtNtNtCs7xuAoyMVi4A_4core3ops5index5IndexpE5indexB9_
FN:309,_RNvXININtNtCs8RRi2RJs6bh_14vass_reach_lib9automaton9index_mapsd_0ppEINtB5_14OptionIndexMapppEINtNtNtCs7xuAoyMVi4A_4core3ops5index8IndexMutpE9index_mutB9_
FN:331,_RNvXININtNtCs8RRi2RJs6bh_14vass_reach_lib9automaton9index_mapsf_0ppEINtB5_22OptionIndexMapIntoIterppENtNtNtNtCs7xuAoyMVi4A_4core4iter6traits8iterator8Iterator4nextB9_
FN:345,_RNvXININtNtCs8RRi2RJs6bh_14vass_reach_lib9automaton9index_mapsg_0ppEINtB5_14OptionIndexMapppENtNtNtNtCs7xuAoyMVi4A_4core4iter6traits7collect12IntoIterator9into_iterB9_
FN:404,_RNvXININtNtCs8RRi2RJs6bh_14vass_reach_lib9automaton9index_mapsi_0pEINtB5_8IndexSetpEINtNtNtCs7xuAoyMVi4A_4core3ops5index5IndexpE5indexB9_
FN:410,_RNvXININtNtCs8RRi2RJs6bh_14vass_reach_lib9automaton9index_mapsj_0pEINtB5_8IndexSetpEINtNtNtCs7xuAoyMVi4A_4core3ops5index8IndexMutpE9index_mutB9_
FN:30,_RNvXs0_NtNtCs8RRi2RJs6bh_14vass_reach_lib9automaton9index_mapjNtB5_12IndexMapData5empty
FN:36,_RNvXs1_NtNtCs8RRi2RJs6bh_14vass_reach_lib9automaton9index_mapmNtB5_12IndexMapData5empty
FN:54,_RNvXs4_NtNtCs8RRi2RJs6bh_14vass_reach_lib9automaton9index_mapuNtB5_12IndexMapData5empty
FN:96,_RNvMs5_NtNtCs2hUxDLYgi0n_14vass_reach_lib9automaton9index_mapINtB5_8IndexMapNtNtCsijRReng013a_8petgraph10graph_impl9NodeIndexB1c_E10get_optionCseoIxkIhB6T8_12vass_z_reach
FN:376,_RNvMsh_NtNtCs2hUxDLYgi0n_14vass_reach_lib9automaton9index_mapINtB5_8IndexSetNtNtCsijRReng013a_8petgraph10graph_impl9NodeIndexE6insertCseoIxkIhB6T8_12vass_z_reach
FN:177,_RNvXs6_NtNtCs2hUxDLYgi0n_14vass_reach_lib9automaton9index_mapINtB5_8IndexMapNtNtCsijRReng013a_8petgraph10graph_impl9NodeIndexB1c_EINtNtNtCs7xuAoyMVi4A_4core3ops5index5IndexB1c_E5indexCseoIxkIhB6T8_12vass_z_reach
FNDA:77,_RNvMsh_NtNtCs2hUxDLYgi0n_14vass_reach_lib9automaton9index_mapINtB5_8IndexSetNtNtCsijRReng013a_8petgraph10graph_impl9NodeIndexE6insertCs43NobSSaLSd_3dfa
FNDA:64,_RNvXs6_NtNtCs2hUxDLYgi0n_14vass_reach_lib9automaton9index_mapINtB5_8IndexMapNtNtCsijRReng013a_8petgraph10graph_impl9NodeIndexB1c_EINtNtNtCs7xuAoyMVi4A_4core3ops5index5IndexB1c_E5indexCs43NobSSaLSd_3dfa
FNDA:14,_RINvMsb_NtNtCs2hUxDLYgi0n_14vass_reach_lib9automaton9index_mapINtB6_14OptionIndexMapNtNtCsijRReng013a_8petgraph10graph_impl9EdgeIndexNtNtNtCskqV1XosFXcP_2z33ast3int3IntE3mapNCINvNtNtBa_6solver5utils26parikh_image_from_edge_mapB1k_E0mEBa_
FNDA:382,_RNCINvMsb_NtNtCs2hUxDLYgi0n_14vass_reach_lib9automaton9index_mapINtB8_14OptionIndexMapNtNtCsijRReng013a_8petgraph10graph_impl9EdgeIndexNtNtNtCskqV1XosFXcP_2z33ast3int3IntE3mapNCINvNtNtBc_6solver5utils26parikh_image_from_edge_mapB1m_E0mE0Bc_
FNDA:2175,_RNCNvMs5_NtNtCs2hUxDLYgi0n_14vass_reach_lib9automaton9index_mapINtB7_8IndexMapNtNtCsijRReng013a_8petgraph10graph_impl9EdgeIndexmE4iter0Bb_
FNDA:846,_RNvMs5_NtNtCs2hUxDLYgi0n_14vass_reach_lib9automaton9index_mapINtB5_8IndexMapNtNtCsijRReng013a_8petgraph10graph_impl9EdgeIndexmE3getB9_
FNDA:49,_RNvMs5_NtNtCs2hUxDLYgi0n_14vass_reach_lib9automaton9index_mapINtB5_8IndexMapNtNtCsijRReng013a_8petgraph10graph_impl9EdgeIndexmE3newB9_
FNDA:84,_RNvMs5_NtNtCs2hUxDLYgi0n_14vass_reach_lib9automaton9index_mapINtB5_8IndexMapNtNtCsijRReng013a_8petgraph10graph_impl9EdgeIndexmE4iterB9_
FNDA:48,_RNvMs5_NtNtCs2hUxDLYgi0n_14vass_reach_lib9automaton9index_mapINtB5_8IndexMapNtNtCsijRReng013a_8petgraph10graph_impl9EdgeIndexmE4sizeB9_
FNDA:76,_RNvMs5_NtNtCs2hUxDLYgi0n_14vass_reach_lib9automaton9index_mapINtB5_8IndexMapNtNtCsijRReng013a_8petgraph10graph_impl9EdgeIndexmE6insertB9_
FNDA:49,_RNvMs5_NtNtCs2hUxDLYgi0n_14vass_reach_lib9automaton9index_mapINtB5_8IndexMapNtNtCsijRReng013a_8petgraph10graph_impl9EdgeIndexmE7get_mutB9_
FNDA:2613,_RNvMs5_NtNtCs2hUxDLYgi0n_14vass_reach_lib9automaton9index_mapINtB5_8IndexMapNtNtCsijRReng013a_8petgraph10graph_impl9NodeIndexB1c_E3getB9_
FNDA:62,_RNvMs5_NtNtCs2hUxDLYgi0n_14vass_reach_lib9automaton9index_mapINtB5_8IndexMapNtNtCsijRReng013a_8petgraph10graph_impl9NodeIndexB1c_E3newB9_
FNDA:288,_RNvMs5_NtNtCs2hUxDLYgi0n_14vass_reach_lib9automaton9index_mapINtB5_8IndexMapNtNtCsijRReng013a_8petgraph10graph_impl9NodeIndexB1c_E6insertB9_
FNDA:587,_RNvMsb_NtNtCs2hUxDLYgi0n_14vass_reach_lib9automaton9index_mapINtB5_14OptionIndexMapNtNtCsijRReng013a_8petgraph10graph_impl9EdgeIndexNtNtNtCskqV1XosFXcP_2z33ast3int3IntE3getB9_
FNDA:9,_RNvMsb_NtNtCs2hUxDLYgi0n_14vass_reach_lib9automaton9index_mapINtB5_14OptionIndexMapNtNtCsijRReng013a_8petgraph10graph_impl9EdgeIndexNtNtNtCskqV1XosFXcP_2z33ast3int3IntE3newB9_
FNDA:188,_RNvMsb_NtNtCs2hUxDLYgi0n_14vass_reach_lib9automaton9index_mapINtB5_14OptionIndexMapNtNtCsijRReng013a_8petgraph10graph_impl9EdgeIndexNtNtNtCskqV1XosFXcP_2z33ast3int3IntE6insertB9_
FNDA:30,_RNvMsh_NtNtCs2hUxDLYgi0n_14vass_reach_lib9automaton9index_mapINtB5_8IndexSetNtNtCsijRReng013a_8petgraph10graph_impl9NodeIndexE3newB9_
FNDA:376,_RNvXsc_NtNtCs2hUxDLYgi0n_14vass_reach_lib9automaton9index_mapINtB5_14OptionIndexMapNtNtCsijRReng013a_8petgraph10graph_impl9EdgeIndexNtNtNtCskqV1XosFXcP_2z33ast3int3IntEINtNtNtCs7xuAoyMVi4A_4core3ops5index5IndexB1j_E5indexB9_
FNDA:188,_RNvXsi_NtNtCs2hUxDLYgi0n_14vass_reach_lib9automaton9index_mapINtB5_8IndexSetNtNtCsijRReng013a_8petgraph10graph_impl9NodeIndexEINtNtNtCs7xuAoyMVi4A_4core3ops5index5IndexB1c_E5indexB9_
FNDA:71,_RNvXsj_NtNtCs2hUxDLYgi0n_14vass_reach_lib9automaton9index_mapINtB5_8IndexSetNtNtCsijRReng013a_8petgraph10graph_impl9NodeIndexEINtNtNtCs7xuAoyMVi4A_4core3ops5index8IndexMutB1c_E9index_mutB9_
FNDA:0,_RNvXs0_NtNtCs2hUxDLYgi0n_14vass_reach_lib9automaton9index_mapjNtB5_12IndexMapData5empty
FNDA:51,_RNvXs1_NtNtCs2hUxDLYgi0n_14vass_reach_lib9automaton9index_mapmNtB5_12IndexMapData5empty
FNDA:0,_RNvXs4_NtNtCs2hUxDLYgi0n_14vass_reach_lib9automaton9index_mapuNtB5_12IndexMapData5empty
FNDA:155,_RNvXs2_NtNtCs2hUxDLYgi0n_14vass_reach_lib9automaton9index_mapNtNtCsijRReng013a_8petgraph10graph_impl9NodeIndexNtB5_12IndexMapData5emptyB9_
FNDA:0,_RINvMs5_NtNtCs2hUxDLYgi0n_14vass_reach_lib9automaton9index_mapINtB6_8IndexMapppE10map_optionppEBa_
FNDA:0,_RINvMs5_NtNtCs2hUxDLYgi0n_14vass_reach_lib9automaton9index_mapINtB6_8IndexMapppE3mapppEBa_
FNDA:0,_RINvMsb_NtNtCs2hUxDLYgi0n_14vass_reach_lib9automaton9index_mapINtB6_14OptionIndexMapppE10map_optionppEBa_
FNDA:0,_RNCINvMs5_NtNtCs2hUxDLYgi0n_14vass_reach_lib9automaton9index_mapINtB8_8IndexMapppE10map_optionppE0Bc_
FNDA:0,_RNCINvMs5_NtNtCs2hUxDLYgi0n_14vass_reach_lib9automaton9index_mapINtB8_8IndexMapppE3mapppE0Bc_
FNDA:0,_RNCINvMsb_NtNtCs2hUxDLYgi0n_14vass_reach_lib9automaton9index_mapINtB8_14OptionIndexMapppE10map_optionppE0Bc_
FNDA:0,_RNCNCNvMsb_NtNtCs2hUxDLYgi0n_14vass_reach_lib9automaton9index_mapINtB9_14OptionIndexMapppE4iter00Bd_
FNDA:0,_RNCNvMsb_NtNtCs2hUxDLYgi0n_14vass_reach_lib9automaton9index_mapINtB7_14OptionIndexMapppE4iter0Bb_
FNDA:0,_RNCNvMsh_NtNtCs2hUxDLYgi0n_14vass_reach_lib9automaton9index_mapINtB7_8IndexSetpE6to_vecs_0Bb_
FNDA:0,_RNCNvXININtNtCs2hUxDLYgi0n_14vass_reach_lib9automaton9index_maps9_0ppEINtB7_16IndexMapIntoIterppENtNtNtNtCs7xuAoyMVi4A_4core4iter6traits8iterator8Iterator4next0Bb_
FNDA:0,_RNvMs5_NtNtCs2hUxDLYgi0n_14vass_reach_lib9automaton9index_mapINtB5_8IndexMapppE10get_optionB9_
FNDA:0,_RNvMs5_NtNtCs2hUxDLYgi0n_14vass_reach_lib9automaton9index_mapINtB5_8IndexMapppE6deleteB9_
FNDA:0,_RNvMs5_NtNtCs2hUxDLYgi0n_14vass_reach_lib9automaton9index_mapINtB5_8IndexMapppE7has_keyB9_
FNDA:0,_RNvMs8_NtNtCs2hUxDLYgi0n_14vass_reach_lib9automaton9index_mapINtB5_16IndexMapIntoIterppE3newB9_
FNDA:0,_RNvMsb_NtNtCs2hUxDLYgi0n_14vass_reach_lib9automaton9index_mapINtB5_14OptionIndexMapppE4iterB9_
FNDA:0,_RNvMsb_NtNtCs2hUxDLYgi0n_14vass_reach_lib9automaton9index_mapINtB5_14OptionIndexMapppE4sizeB9_
FNDA:0,_RNvMsb_NtNtCs2hUxDLYgi0n_14vass_reach_lib9automaton9index_mapINtB5_14OptionIndexMapppE6deleteB9_
FNDA:0,_RNvMsb_NtNtCs2hUxDLYgi0n_14vass_reach_lib9automaton9index_mapINtB5_14OptionIndexMapppE7get_mutB9_
FNDA:0,_RNvMsb_NtNtCs2hUxDLYgi0n_14vass_reach_lib9automaton9index_mapINtB5_14OptionIndexMapppE7has_keyB9_
FNDA:0,_RNvMse_NtNtCs2hUxDLYgi0n_14vass_reach_lib9automaton9index_mapINtB5_22OptionIndexMapIntoIterppE3newB9_
FNDA:0,_RNvMsh_NtNtCs2hUxDLYgi0n_14vass_reach_lib9automaton9index_mapINtB5_8IndexSetpE4sizeB9_
FNDA:0,_RNvMsh_NtNtCs2hUxDLYgi0n_14vass_reach_lib9automaton9index_mapINtB5_8IndexSetpE6insertB9_
FNDA:0,_RNvMsh_NtNtCs2hUxDLYgi0n_14vass_reach_lib9automaton9index_mapINtB5_8IndexSetpE6removeB9_
FNDA:0,_RNvMsh_NtNtCs2hUxDLYgi0n_14vass_reach_lib9automaton9index_mapINtB5_8IndexSetpE6to_vecB9_
FNDA:0,_RNvMsh_NtNtCs2hUxDLYgi0n_14vass_reach_lib9automaton9index_mapINtB5_8IndexSetpE8containsB9_
FNDA:0,_RNvXININtNtCs2hUxDLYgi0n_14vass_reach_lib9automaton9index_map0pEINtNtCs1EFbPCGXlWb_5alloc3vec3VecpENtB5_12IndexMapData5emptyB9_
FNDA:0,_RNvXININtNtCs2hUxDLYgi0n_14vass_reach_lib9automaton9index_maps3_0pEINtNtCsijRReng013a_8petgraph10graph_impl9EdgeIndexpENtB5_12IndexMapData5emptyB9_
FNDA:0,_RNvXININtNtCs2hUxDLYgi0n_14vass_reach_lib9automaton9index_maps6_0ppEINtB5_8IndexMapppEINtNtNtCs7xuAoyMVi4A_4core3ops5index5IndexpE5indexB9_
FNDA:0,_RNvXININtNtCs2hUxDLYgi0n_14vass_reach_lib9automaton9index_maps7_0ppEINtB5_8IndexMapppEINtNtNtCs7xuAoyMVi4A_4core3ops5index8IndexMutpE9index_mutB9_
FNDA:0,_RNvXININtNtCs2hUxDLYgi0n_14vass_reach_lib9automaton9index_maps9_0ppEINtB5_16IndexMapIntoIterppENtNtNtNtCs7xuAoyMVi4A_4core4iter6traits8iterator8Iterator4nextB9_
FNDA:0,_RNvXININtNtCs2hUxDLYgi0n_14vass_reach_lib9automaton9index_maps_0pEINtNtCs1EFbPCGXlWb_5alloc5boxed3BoxSpENtB5_12IndexMapData5emptyB9_
FNDA:0,_RNvXININtNtCs2hUxDLYgi0n_14vass_reach_lib9automaton9index_mapsa_0ppEINtB5_8IndexMapppENtNtNtNtCs7xuAoyMVi4A_4core4iter6traits7collect12IntoIterator9into_iterB9_
FNDA:0,_RNvXININtNtCs2hUxDLYgi0n_14vass_reach_lib9automaton9index_mapsd_0ppEINtB5_14OptionIndexMapppEINtNtNtCs7xuAoyMVi4A_4core3ops5index8IndexMutpE9index_mutB9_
FNDA:0,_RNvXININtNtCs2hUxDLYgi0n_14vass_reach_lib9automaton9index_mapsf_0ppEINtB5_22OptionIndexMapIntoIterppENtNtNtNtCs7xuAoyMVi4A_4core4iter6traits8iterator8Iterator4nextB9_
FNDA:0,_RNvXININtNtCs2hUxDLYgi0n_14vass_reach_lib9automaton9index_mapsg_0ppEINtB5_14OptionIndexMapppENtNtNtNtCs7xuAoyMVi4A_4core4iter6traits7collect12IntoIterator9into_iterB9_
FNDA:5,_RNCNvMsh_NtNtCs2hUxDLYgi0n_14vass_reach_lib9automaton9index_mapINtB7_8IndexSetNtNtCsijRReng013a_8petgraph10graph_impl9NodeIndexE6to_vecs_0CsjA5qX5JEwPT_16graph_algorithms
FNDA:10,_RNvMs5_NtNtCs2hUxDLYgi0n_14vass_reach_lib9automaton9index_mapINtB5_8IndexMapNtNtCsijRReng013a_8petgraph10graph_impl9NodeIndexB1c_E10get_optionCsjA5qX5JEwPT_16graph_algorithms
FNDA:20,_RNvMsh_NtNtCs2hUxDLYgi0n_14vass_reach_lib9automaton9index_mapINtB5_8IndexSetNtNtCsijRReng013a_8petgraph10graph_impl9NodeIndexE6insertCsjA5qX5JEwPT_16graph_algorithms
FNDA:1,_RNvMsh_NtNtCs2hUxDLYgi0n_14vass_reach_lib9automaton9index_mapINtB5_8IndexSetNtNtCsijRReng013a_8petgraph10graph_impl9NodeIndexE6to_vecCsjA5qX5JEwPT_16graph_algorithms
FNDA:44,_RNvMsh_NtNtCs2hUxDLYgi0n_14vass_reach_lib9automaton9index_mapINtB5_8IndexSetNtNtCsijRReng013a_8petgraph10graph_impl9NodeIndexE8containsCsjA5qX5JEwPT_16graph_algorithms
FNDA:10,_RNvMs5_NtNtCs2hUxDLYgi0n_14vass_reach_lib9automaton9index_mapINtB5_8IndexMapNtNtCsijRReng013a_8petgraph10graph_impl9NodeIndexB1c_E10get_optionCs3ATG82DPHTL_3lgs
FNDA:12,_RNvMs5_NtNtCs2hUxDLYgi0n_14vass_reach_lib9automaton9index_mapINtB5_8IndexMapNtNtCsijRReng013a_8petgraph10graph_impl9NodeIndexB1c_E10get_optionCsdx2WVSQjOLl_3ltc
FNDA:18,_RNCNvMs5_NtNtCs2hUxDLYgi0n_14vass_reach_lib9automaton9index_mapINtB7_8IndexMapjmE4iter0Cs9XXF3XtrrPR_4path
FNDA:6,_RNvMs5_NtNtCs2hUxDLYgi0n_14vass_reach_lib9automaton9index_mapINtB5_8IndexMapjmE3getCs9XXF3XtrrPR_4path
FNDA:2,_RNvMs5_NtNtCs2hUxDLYgi0n_14vass_reach_lib9automaton9index_mapINtB5_8IndexMapjmE3newCs9XXF3XtrrPR_4path
FNDA:5,_RNvMs5_NtNtCs2hUxDLYgi0n_14vass_reach_lib9automaton9index_mapINtB5_8IndexMapjmE4iterCs9XXF3XtrrPR_4path
FNDA:3,_RNvMs5_NtNtCs2hUxDLYgi0n_14vass_reach_lib9automaton9index_mapINtB5_8IndexMapjmE6insertCs9XXF3XtrrPR_4path
FNDA:5,_RNvMs5_NtNtCs2hUxDLYgi0n_14vass_reach_lib9automaton9index_mapINtB5_8IndexMapjmE7get_mutCs9XXF3XtrrPR_4path
FNDA:4,_RNvMs5_NtNtCs2hUxDLYgi0n_14vass_reach_lib9automaton9index_mapINtB5_8IndexMapNtNtCsijRReng013a_8petgraph10graph_impl9NodeIndexB1c_E10get_optionCsgHwEJVtWcfn_14petri_net_spec
FNDA:25,_RNvMsh_NtNtCs2hUxDLYgi0n_14vass_reach_lib9automaton9index_mapINtB5_8IndexSetNtNtCsijRReng013a_8petgraph10graph_impl9NodeIndexE6insertCsgHwEJVtWcfn_14petri_net_spec
FNDA:28,_RNvXs6_NtNtCs2hUxDLYgi0n_14vass_reach_lib9automaton9index_mapINtB5_8IndexMapNtNtCsijRReng013a_8petgraph10graph_impl9NodeIndexB1c_EINtNtNtCs7xuAoyMVi4A_4core3ops5index5IndexB1c_E5indexCsgHwEJVtWcfn_14petri_net_spec
FNDA:3,_RNvMs5_NtNtCs2hUxDLYgi0n_14vass_reach_lib9automaton9index_mapINtB5_8IndexMapNtNtCsijRReng013a_8petgraph10graph_impl9NodeIndexB1c_E10get_optionCsbhGvosVcoyU_4vass
FNDA:34,_RNvMs5_NtNtCs2hUxDLYgi0n_14vass_reach_lib9automaton9index_mapINtB5_8IndexMapNtNtCsijRReng013a_8petgraph10graph_impl9NodeIndexB1c_E10get_optionCsaYjQXJDQq9v_12vass_n_reach
FNDA:407,_RNvMsh_NtNtCs2hUxDLYgi0n_14vass_reach_lib9automaton9index_mapINtB5_8IndexSetNtNtCsijRReng013a_8petgraph10graph_impl9NodeIndexE6insertCsaYjQXJDQq9v_12vass_n_reach
FNDA:410,_RNvXs6_NtNtCs2hUxDLYgi0n_14vass_reach_lib9automaton9index_mapINtB5_8IndexMapNtNtCsijRReng013a_8petgraph10graph_impl9NodeIndexB1c_EINtNtNtCs7xuAoyMVi4A_4core3ops5index5IndexB1c_E5indexCsaYjQXJDQq9v_12vass_n_reach
FNDA:0,_RINvMs5_NtNtCs8RRi2RJs6bh_14vass_reach_lib9automaton9index_mapINtB6_8IndexMapppE10map_optionppEBa_
FNDA:0,_RINvMs5_NtNtCs8RRi2RJs6bh_14vass_reach_lib9automaton9index_mapINtB6_8IndexMapppE3mapppEBa_
FNDA:0,_RINvMsb_NtNtCs8RRi2RJs6bh_14vass_reach_lib9automaton9index_mapINtB6_14OptionIndexMapppE10map_optionppEBa_
FNDA:0,_RINvMsb_NtNtCs8RRi2RJs6bh_14vass_reach_lib9automaton9index_mapINtB6_14OptionIndexMapppE3mapppEBa_
FNDA:0,_RNCINvMs5_NtNtCs8RRi2RJs6bh_14vass_reach_lib9automaton9index_mapINtB8_8IndexMapppE10map_optionppE0Bc_
FNDA:0,_RNCINvMs5_NtNtCs8RRi2RJs6bh_14vass_reach_lib9automaton9index_mapINtB8_8IndexMapppE3mapppE0Bc_
FNDA:0,_RNCINvMsb_NtNtCs8RRi2RJs6bh_14vass_reach_lib9automaton9index_mapINtB8_14OptionIndexMapppE10map_optionppE0Bc_
FNDA:0,_RNCINvMsb_NtNtCs8RRi2RJs6bh_14vass_reach_lib9automaton9index_mapINtB8_14OptionIndexMapppE3mapppE0Bc_
FNDA:0,_RNCNCNvMsb_NtNtCs8RRi2RJs6bh_14vass_reach_lib9automaton9index_mapINtB9_14OptionIndexMapppE4iter00Bd_
FNDA:0,_RNCNvMs5_NtNtCs8RRi2RJs6bh_14vass_reach_lib9automaton9index_mapINtB7_8IndexMapppE4iter0Bb_
FNDA:0,_RNCNvMsb_NtNtCs8RRi2RJs6bh_14vass_reach_lib9automaton9index_mapINtB7_14OptionIndexMapppE4iter0Bb_
FNDA:0,_RNCNvMsh_NtNtCs8RRi2RJs6bh_14vass_reach_lib9automaton9index_mapINtB7_8IndexSetpE6to_vecs_0Bb_
FNDA:0,_RNCNvXININtNtCs8RRi2RJs6bh_14vass_reach_lib9automaton9index_maps9_0ppEINtB7_16IndexMapIntoIterppENtNtNtNtCs7xuAoyMVi4A_4core4iter6traits8iterator8Iterator4next0Bb_
FNDA:0,_RNvMs5_NtNtCs8RRi2RJs6bh_14vass_reach_lib9automaton9index_mapINtB5_8IndexMapppE10get_optionB9_
FNDA:0,_RNvMs5_NtNtCs8RRi2RJs6bh_14vass_reach_lib9automaton9index_mapINtB5_8IndexMapppE3getB9_
FNDA:0,_RNvMs5_NtNtCs8RRi2RJs6bh_14vass_reach_lib9automaton9index_mapINtB5_8IndexMapppE3newB9_
FNDA:0,_RNvMs5_NtNtCs8RRi2RJs6bh_14vass_reach_lib9automaton9index_mapINtB5_8IndexMapppE4iterB9_
FNDA:0,_RNvMs5_NtNtCs8RRi2RJs6bh_14vass_reach_lib9automaton9index_mapINtB5_8IndexMapppE4sizeB9_
FNDA:0,_RNvMs5_NtNtCs8RRi2RJs6bh_14vass_reach_lib9automaton9index_mapINtB5_8IndexMapppE6deleteB9_
FNDA:0,_RNvMs5_NtNtCs8RRi2RJs6bh_14vass_reach_lib9automaton9index_mapINtB5_8IndexMapppE6insertB9_
FNDA:0,_RNvMs5_NtNtCs8RRi2RJs6bh_14vass_reach_lib9automaton9index_mapINtB5_8IndexMapppE7get_mutB9_
FNDA:0,_RNvMs5_NtNtCs8RRi2RJs6bh_14vass_reach_lib9automaton9index_mapINtB5_8IndexMapppE7has_keyB9_
FNDA:0,_RNvMs8_NtNtCs8RRi2RJs6bh_14vass_reach_lib9automaton9index_mapINtB5_16IndexMapIntoIterppE3newB9_
FNDA:0,_RNvMsb_NtNtCs8RRi2RJs6bh_14vass_reach_lib9automaton9index_mapINtB5_14OptionIndexMapppE3getB9_
FNDA:0,_RNvMsb_NtNtCs8RRi2RJs6bh_14vass_reach_lib9automaton9index_mapINtB5_14OptionIndexMapppE3newB9_
FNDA:0,_RNvMsb_NtNtCs8RRi2RJs6bh_14vass_reach_lib9automaton9index_mapINtB5_14OptionIndexMapppE4iterB9_
FNDA:0,_RNvMsb_NtNtCs8RRi2RJs6bh_14vass_reach_lib9automaton9index_mapINtB5_14OptionIndexMapppE4sizeB9_
FNDA:0,_RNvMsb_NtNtCs8RRi2RJs6bh_14vass_reach_lib9automaton9index_mapINtB5_14OptionIndexMapppE6deleteB9_
FNDA:0,_RNvMsb_NtNtCs8RRi2RJs6bh_14vass_reach_lib9automaton9index_mapINtB5_14OptionIndexMapppE6insertB9_
FNDA:0,_RNvMsb_NtNtCs8RRi2RJs6bh_14vass_reach_lib9automaton9index_mapINtB5_14OptionIndexMapppE7get_mutB9_
FNDA:0,_RNvMsb_NtNtCs8RRi2RJs6bh_14vass_reach_lib9automaton9index_mapINtB5_14OptionIndexMapppE7has_keyB9_
FNDA:0,_RNvMse_NtNtCs8RRi2RJs6bh_14vass_reach_lib9automaton9index_mapINtB5_22OptionIndexMapIntoIterppE3newB9_
FNDA:0,_RNvMsh_NtNtCs8RRi2RJs6bh_14vass_reach_lib9automaton9index_mapINtB5_8IndexSetpE3newB9_
FNDA:0,_RNvMsh_NtNtCs8RRi2RJs6bh_14vass_reach_lib9automaton9index_mapINtB5_8IndexSetpE4sizeB9_
FNDA:0,_RNvMsh_NtNtCs8RRi2RJs6bh_14vass_reach_lib9automaton9index_mapINtB5_8IndexSetpE6insertB9_
FNDA:0,_RNvMsh_NtNtCs8RRi2RJs6bh_14vass_reach_lib9automaton9index_mapINtB5_8IndexSetpE6removeB9_
FNDA:0,_RNvMsh_NtNtCs8RRi2RJs6bh_14vass_reach_lib9automaton9index_mapINtB5_8IndexSetpE6to_vecB9_
FNDA:0,_RNvMsh_NtNtCs8RRi2RJs6bh_14vass_reach_lib9automaton9index_mapINtB5_8IndexSetpE8containsB9_
FNDA:0,_RNvXININtNtCs8RRi2RJs6bh_14vass_reach_lib9automaton9index_map0pEINtNtCs1EFbPCGXlWb_5alloc3vec3VecpENtB5_12IndexMapData5emptyB9_
FNDA:0,_RNvXININtNtCs8RRi2RJs6bh_14vass_reach_lib9automaton9index_maps2_0pEINtNtCsijRReng013a_8petgraph10graph_impl9NodeIndexpENtB5_12IndexMapData5emptyB9_
FNDA:0,_RNvXININtNtCs8RRi2RJs6bh_14vass_reach_lib9automaton9index_maps3_0pEINtNtCsijRReng013a_8petgraph10graph_impl9EdgeIndexpENtB5_12IndexMapData5emptyB9_
FNDA:0,_RNvXININtNtCs8RRi2RJs6bh_14vass_reach_lib9automaton9index_maps6_0ppEINtB5_8IndexMapppEINtNtNtCs7xuAoyMVi4A_4core3ops5index5IndexpE5indexB9_
FNDA:0,_RNvXININtNtCs8RRi2RJs6bh_14vass_reach_lib9automaton9index_maps7_0ppEINtB5_8IndexMapppEINtNtNtCs7xuAoyMVi4A_4core3ops5index8IndexMutpE9index_mutB9_
FNDA:0,_RNvXININtNtCs8RRi2RJs6bh_14vass_reach_lib9automaton9index_maps9_0ppEINtB5_16IndexMapIntoIterppENtNtNtNtCs7xuAoyMVi4A_4core4iter6traits8iterator8Iterator4nextB9_
FNDA:0,_RNvXININtNtCs8RRi2RJs6bh_14vass_reach_lib9automaton9index_maps_0pEINtNtCs1EFbPCGXlWb_5alloc5boxed3BoxSpENtB5_12IndexMapData5emptyB9_
FNDA:0,_RNvXININtNtCs8RRi2RJs6bh_14vass_reach_lib9automaton9index_mapsa_0ppEINtB5_8IndexMapppENtNtNtNtCs7xuAoyMVi4A_4core4iter6traits7collect12IntoIterator9into_iterB9_
FNDA:0,_RNvXININtNtCs8RRi2RJs6bh_14vass_reach_lib9automaton9index_mapsc_0ppEINtB5_14OptionIndexMapppEINtNtNtCs7xuAoyMVi4A_4core3ops5index5IndexpE5indexB9_
FNDA:0,_RNvXININtNtCs8RRi2RJs6bh_14vass_reach_lib9automaton9index_mapsd_0ppEINtB5_14OptionIndexMapppEINtNtNtCs7xuAoyMVi4A_4core3ops5index8IndexMutpE9index_mutB9_
FNDA:0,_RNvXININtNtCs8RRi2RJs6bh_14vass_reach_lib9automaton9index_mapsf_0ppEINtB5_22OptionIndexMapIntoIterppENtNtNtNtCs7xuAoyMVi4A_4core4iter6traits8iterator8Iterator4nextB9_
FNDA:0,_RNvXININtNtCs8RRi2RJs6bh_14vass_reach_lib9automaton9index_mapsg_0ppEINtB5_14OptionIndexMapppENtNtNtNtCs7xuAoyMVi4A_4core4iter6traits7collect12IntoIterator9into_iterB9_
FNDA:0,_RNvXININtNtCs8RRi2RJs6bh_14vass_reach_lib9automaton9index_mapsi_0pEINtB5_8IndexSetpEINtNtNtCs7xuAoyMVi4A_4core3ops5index5IndexpE5indexB9_
FNDA:0,_RNvXININtNtCs8RRi2RJs6bh_14vass_reach_lib9automaton9index_mapsj_0pEINtB5_8IndexSetpEINtNtNtCs7xuAoyMVi4A_4core3ops5index8IndexMutpE9index_mutB9_
FNDA:0,_RNvXs0_NtNtCs8RRi2RJs6bh_14vass_reach_lib9automaton9index_mapjNtB5_12IndexMapData5empty
FNDA:0,_RNvXs1_NtNtCs8RRi2RJs6bh_14vass_reach_lib9automaton9index_mapmNtB5_12IndexMapData5empty
FNDA:0,_RNvXs4_NtNtCs8RRi2RJs6bh_14vass_reach_lib9automaton9index_mapuNtB5_12IndexMapData5empty
FNDA:20,_RNvMs5_NtNtCs2hUxDLYgi0n_14vass_reach_lib9automaton9index_mapINtB5_8IndexMapNtNtCsijRReng013a_8petgraph10graph_impl9NodeIndexB1c_E10get_optionCseoIxkIhB6T8_12vass_z_reach
FNDA:97,_RNvMsh_NtNtCs2hUxDLYgi0n_14vass_reach_lib9automaton9index_mapINtB5_8IndexSetNtNtCsijRReng013a_8petgraph10graph_impl9NodeIndexE6insertCseoIxkIhB6T8_12vass_z_reach
FNDA:91,_RNvXs6_NtNtCs2hUxDLYgi0n_14vass_reach_lib9automaton9index_mapINtB5_8IndexMapNtNtCsijRReng013a_8petgraph10graph_impl9NodeIndexB1c_EINtNtNtCs7xuAoyMVi4A_4core3ops5index5IndexB1c_E5indexCseoIxkIhB6T8_12vass_z_reach
FNF:55
FNH:24
DA:18,0
DA:19,0
DA:20,0
DA:24,0
DA:25,0
DA:26,0
DA:30,0
DA:31,0
DA:32,0
DA:36,51
DA:37,51
DA:38,51
DA:42,155
DA:43,155
DA:44,155
DA:48,0
DA:49,0
DA:50,0
DA:54,0
DA:69,113
DA:70,113
DA:71,113
DA:72,113
DA:73,113
DA:74,113
DA:76,48
DA:77,48
DA:78,48
DA:80,0
DA:81,0
DA:83,0
DA:84,0
DA:90,3465
DA:91,3465
DA:92,3465
DA:96,93
DA:97,93
DA:99,93
DA:100,93
DA:101,93
DA:102,54
DA:103,39
DA:104,0
DA:106,39
DA:107,93
DA:111,54
DA:112,54
DA:113,54
DA:118,367
DA:119,367
DA:120,367
DA:124,0
DA:125,0
DA:126,0
DA:128,89
DA:129,2193
DA:130,89
DA:134,0
DA:135,0
DA:136,0
DA:138,0
DA:140,0
DA:141,0
DA:142,0
DA:143,0
DA:144,0
DA:146,0
DA:147,0
DA:148,0
DA:149,0
DA:150,0
DA:154,0
DA:155,0
DA:156,0
DA:157,0
DA:159,0
DA:161,0
DA:162,0
DA:163,0
DA:164,0
DA:165,0
DA:167,0
DA:168,0
DA:169,0
DA:170,0
DA:171,0
DA:177,593
DA:178,593
DA:179,593
DA:183,0
DA:184,0
DA:185,0
DA:194,0
DA:195,0
DA:196,0
DA:197,0
DA:198,0
DA:199,0
DA:205,0
DA:206,0
DA:207,0
DA:214,0
DA:215,0
DA:216,0
DA:228,9
DA:229,9
DA:230,9
DA:231,9
DA:232,9
DA:233,9
DA:235,0
DA:236,0
DA:237,0
DA:239,0
DA:240,0
DA:242,0
DA:243,0
DA:245,587
DA:246,587
DA:247,587
DA:249,0
DA:250,0
DA:251,0
DA:253,188
DA:254,188
DA:255,188
DA:257,0
DA:258,0
DA:259,0
DA:260,0
DA:261,0
DA:262,0
DA:264,0
DA:265,0
DA:266,0
DA:268,14
DA:269,14
DA:270,14
DA:272,14
DA:273,14
DA:274,14
DA:275,382
DA:276,14
DA:278,14
DA:279,14
DA:280,14
DA:281,14
DA:282,14
DA:284,0
DA:285,0
DA:286,0
DA:287,0
DA:289,0
DA:291,0
DA:292,0
DA:293,0
DA:294,0
DA:295,0
DA:301,376
DA:302,376
DA:303,376
DA:309,0
DA:310,0
DA:311,0
DA:320,0
DA:321,0
DA:322,0
DA:323,0
DA:324,0
DA:325,0
DA:331,0
DA:332,0
DA:333,0
DA:334,0
DA:335,0
DA:337,0
DA:338,0
DA:345,0
DA:346,0
DA:347,0
DA:359,30
DA:360,30
DA:361,30
DA:362,30
DA:363,30
DA:364,30
DA:366,0
DA:367,0
DA:368,0
DA:370,44
DA:371,44
DA:372,44
DA:376,626
DA:377,626
DA:379,626
DA:380,517
DA:382,109
DA:383,109
DA:385,626
DA:387,0
DA:388,0
DA:389,0
DA:391,1
DA:392,1
DA:393,1
DA:394,1
DA:395,1
DA:396,5
DA:397,1
DA:398,1
DA:404,188
DA:405,188
DA:406,188
DA:410,71
DA:411,71
DA:412,71
BRF:0
BRH:0
LF:225
LH:100
end_of_record
SF:/home/lemon/src/rust-automata/packages/vass-reach-lib/src/automaton/lsg/extender.rs
FN:236,_RNCNvXs1_NtNtNtCs2hUxDLYgi0n_14vass_reach_lib9automaton3lsg8extenderNtB7_18RandomNodeStrategyNtB7_17ExtensionStrategy6extend0Bd_
FN:287,_RNCNvXs3_NtNtNtCs2hUxDLYgi0n_14vass_reach_lib9automaton3lsg8extenderNtB7_17RandomSCCStrategyNtB7_17ExtensionStrategy6extend0Bd_
FN:68,_RNvMNtNtNtCs2hUxDLYgi0n_14vass_reach_lib9automaton3lsg8extenderNtB2_11LSGExtender16from_cfg_product
FN:45,_RNvMNtNtNtCs2hUxDLYgi0n_14vass_reach_lib9automaton3lsg8extenderNtB2_11LSGExtender3new
FN:88,_RNvMNtNtNtCs2hUxDLYgi0n_14vass_reach_lib9automaton3lsg8extenderNtB2_11LSGExtender3run
FN:214,_RNvMs0_NtNtNtCs2hUxDLYgi0n_14vass_reach_lib9automaton3lsg8extenderNtB5_18RandomNodeStrategy3new
FN:264,_RNvMs2_NtNtNtCs2hUxDLYgi0n_14vass_reach_lib9automaton3lsg8extenderNtB5_17RandomSCCStrategy3new
FN:174,_RNvMs_NtNtNtCs2hUxDLYgi0n_14vass_reach_lib9automaton3lsg8extenderNtB4_21ExtensionStrategyEnum11from_config
FN:196,_RNvMs_NtNtNtCs2hUxDLYgi0n_14vass_reach_lib9automaton3lsg8extenderNtB4_21ExtensionStrategyEnum11on_rollback
FN:185,_RNvMs_NtNtNtCs2hUxDLYgi0n_14vass_reach_lib9automaton3lsg8extenderNtB4_21ExtensionStrategyEnum6extend
FN:247,_RNvXs1_NtNtNtCs2hUxDLYgi0n_14vass_reach_lib9automaton3lsg8extenderNtB5_18RandomNodeStrategyNtB5_17ExtensionStrategy11on_rollback
FN:226,_RNvXs1_NtNtNtCs2hUxDLYgi0n_14vass_reach_lib9automaton3lsg8extenderNtB5_18RandomNodeStrategyNtB5_17ExtensionStrategy6extend
FN:321,_RNvXs3_NtNtNtCs2hUxDLYgi0n_14vass_reach_lib9automaton3lsg8extenderNtB5_17RandomSCCStrategyNtB5_17ExtensionStrategy11on_rollback
FN:281,_RNvXs3_NtNtNtCs2hUxDLYgi0n_14vass_reach_lib9automaton3lsg8extenderNtB5_17RandomSCCStrategyNtB5_17ExtensionStrategy6extend
FN:236,_RNCNvXs1_NtNtNtCs8RRi2RJs6bh_14vass_reach_lib9automaton3lsg8extenderNtB7_18RandomNodeStrategyNtB7_17ExtensionStrategy6extend0Bd_
FN:287,_RNCNvXs3_NtNtNtCs8RRi2RJs6bh_14vass_reach_lib9automaton3lsg8extenderNtB7_17RandomSCCStrategyNtB7_17ExtensionStrategy6extend0Bd_
FN:68,_RNvMNtNtNtCs8RRi2RJs6bh_14vass_reach_lib9automaton3lsg8extenderNtB2_11LSGExtender16from_cfg_product
FN:45,_RNvMNtNtNtCs8RRi2RJs6bh_14vass_reach_lib9automaton3lsg8extenderNtB2_11LSGExtender3new
FN:88,_RNvMNtNtNtCs8RRi2RJs6bh_14vass_reach_lib9automaton3lsg8extenderNtB2_11LSGExtender3run
FN:214,_RNvMs0_NtNtNtCs8RRi2RJs6bh_14vass_reach_lib9automaton3lsg8extenderNtB5_18RandomNodeStrategy3new
FN:264,_RNvMs2_NtNtNtCs8RRi2RJs6bh_14vass_reach_lib9automaton3lsg8extenderNtB5_17RandomSCCStrategy3new
FN:174,_RNvMs_NtNtNtCs8RRi2RJs6bh_14vass_reach_lib9automaton3lsg8extenderNtB4_21ExtensionStrategyEnum11from_config
FN:196,_RNvMs_NtNtNtCs8RRi2RJs6bh_14vass_reach_lib9automaton3lsg8extenderNtB4_21ExtensionStrategyEnum11on_rollback
FN:185,_RNvMs_NtNtNtCs8RRi2RJs6bh_14vass_reach_lib9automaton3lsg8extenderNtB4_21ExtensionStrategyEnum6extend
FN:247,_RNvXs1_NtNtNtCs8RRi2RJs6bh_14vass_reach_lib9automaton3lsg8extenderNtB5_18RandomNodeStrategyNtB5_17ExtensionStrategy11on_rollback
FN:226,_RNvXs1_NtNtNtCs8RRi2RJs6bh_14vass_reach_lib9automaton3lsg8extenderNtB5_18RandomNodeStrategyNtB5_17ExtensionStrategy6extend
FN:321,_RNvXs3_NtNtNtCs8RRi2RJs6bh_14vass_reach_lib9automaton3lsg8extenderNtB5_17RandomSCCStrategyNtB5_17ExtensionStrategy11on_rollback
FN:281,_RNvXs3_NtNtNtCs8RRi2RJs6bh_14vass_reach_lib9automaton3lsg8extenderNtB5_17RandomSCCStrategyNtB5_17ExtensionStrategy6extend
FNDA:0,_RNCNvXs1_NtNtNtCs2hUxDLYgi0n_14vass_reach_lib9automaton3lsg8extenderNtB7_18RandomNodeStrategyNtB7_17ExtensionStrategy6extend0Bd_
FNDA:0,_RNCNvXs3_NtNtNtCs2hUxDLYgi0n_14vass_reach_lib9automaton3lsg8extenderNtB7_17RandomSCCStrategyNtB7_17ExtensionStrategy6extend0Bd_
FNDA:0,_RNvMNtNtNtCs2hUxDLYgi0n_14vass_reach_lib9automaton3lsg8extenderNtB2_11LSGExtender16from_cfg_product
FNDA:0,_RNvMNtNtNtCs2hUxDLYgi0n_14vass_reach_lib9automaton3lsg8extenderNtB2_11LSGExtender3new
FNDA:0,_RNvMNtNtNtCs2hUxDLYgi0n_14vass_reach_lib9automaton3lsg8extenderNtB2_11LSGExtender3run
FNDA:0,_RNvMs0_NtNtNtCs2hUxDLYgi0n_14vass_reach_lib9automaton3lsg8extenderNtB5_18RandomNodeStrategy3new
FNDA:0,_RNvMs2_NtNtNtCs2hUxDLYgi0n_14vass_reach_lib9automaton3lsg8extenderNtB5_17RandomSCCStrategy3new
FNDA:0,_RNvMs_NtNtNtCs2hUxDLYgi0n_14vass_reach_lib9automaton3lsg8extenderNtB4_21ExtensionStrategyEnum11from_config
FNDA:0,_RNvMs_NtNtNtCs2hUxDLYgi0n_14vass_reach_lib9automaton3lsg8extenderNtB4_21ExtensionStrategyEnum11on_rollback
FNDA:0,_RNvMs_NtNtNtCs2hUxDLYgi0n_14vass_reach_lib9automaton3lsg8extenderNtB4_21ExtensionStrategyEnum6extend
FNDA:0,_RNvXs1_NtNtNtCs2hUxDLYgi0n_14vass_reach_lib9automaton3lsg8extenderNtB5_18RandomNodeStrategyNtB5_17ExtensionStrategy11on_rollback
FNDA:0,_RNvXs1_NtNtNtCs2hUxDLYgi0n_14vass_reach_lib9automaton3lsg8extenderNtB5_18RandomNodeStrategyNtB5_17ExtensionStrategy6extend
FNDA:0,_RNvXs3_NtNtNtCs2hUxDLYgi0n_14vass_reach_lib9automaton3lsg8extenderNtB5_17RandomSCCStrategyNtB5_17ExtensionStrategy11on_rollback
FNDA:0,_RNvXs3_NtNtNtCs2hUxDLYgi0n_14vass_reach_lib9automaton3lsg8extenderNtB5_17RandomSCCStrategyNtB5_17ExtensionStrategy6extend
FNDA:0,_RNCNvXs1_NtNtNtCs8RRi2RJs6bh_14vass_reach_lib9automaton3lsg8extenderNtB7_18RandomNodeStrategyNtB7_17ExtensionStrategy6extend0Bd_
FNDA:0,_RNCNvXs3_NtNtNtCs8RRi2RJs6bh_14vass_reach_lib9automaton3lsg8extenderNtB7_17RandomSCCStrategyNtB7_17ExtensionStrategy6extend0Bd_
FNDA:0,_RNvMNtNtNtCs8RRi2RJs6bh_14vass_reach_lib9automaton3lsg8extenderNtB2_11LSGExtender16from_cfg_product
FNDA:0,_RNvMNtNtNtCs8RRi2RJs6bh_14vass_reach_lib9automaton3lsg8extenderNtB2_11LSGExtender3new
FNDA:0,_RNvMNtNtNtCs8RRi2RJs6bh_14vass_reach_lib9automaton3lsg8extenderNtB2_11LSGExtender3run
FNDA:0,_RNvMs0_NtNtNtCs8RRi2RJs6bh_14vass_reach_lib9automaton3lsg8extenderNtB5_18RandomNodeStrategy3new
FNDA:0,_RNvMs2_NtNtNtCs8RRi2RJs6bh_14vass_reach_lib9automaton3lsg8extenderNtB5_17RandomSCCStrategy3new
FNDA:0,_RNvMs_NtNtNtCs8RRi2RJs6bh_14vass_reach_lib9automaton3lsg8extenderNtB4_21ExtensionStrategyEnum11from_config
FNDA:0,_RNvMs_NtNtNtCs8RRi2RJs6bh_14vass_reach_lib9automaton3lsg8extenderNtB4_21ExtensionStrategyEnum11on_rollback
FNDA:0,_RNvMs_NtNtNtCs8RRi2RJs6bh_14vass_reach_lib9automaton3lsg8extenderNtB4_21ExtensionStrategyEnum6extend
FNDA:0,_RNvXs1_NtNtNtCs8RRi2RJs6bh_14vass_reach_lib9automaton3lsg8extenderNtB5_18RandomNodeStrategyNtB5_17ExtensionStrategy11on_rollback
FNDA:0,_RNvXs1_NtNtNtCs8RRi2RJs6bh_14vass_reach_lib9automaton3lsg8extenderNtB5_18RandomNodeStrategyNtB5_17ExtensionStrategy6extend
FNDA:0,_RNvXs3_NtNtNtCs8RRi2RJs6bh_14vass_reach_lib9automaton3lsg8extenderNtB5_17RandomSCCStrategyNtB5_17ExtensionStrategy11on_rollback
FNDA:0,_RNvXs3_NtNtNtCs8RRi2RJs6bh_14vass_reach_lib9automaton3lsg8extenderNtB5_17RandomSCCStrategyNtB5_17ExtensionStrategy6extend
FNF:14
FNH:0
DA:45,0
DA:46,0
DA:47,0
DA:48,0
DA:49,0
DA:50,0
DA:51,0
DA:52,0
DA:53,0
DA:54,0
DA:56,0
DA:57,0
DA:58,0
DA:59,0
DA:60,0
DA:61,0
DA:62,0
DA:63,0
DA:64,0
DA:65,0
DA:66,0
DA:68,0
DA:69,0
DA:70,0
DA:71,0
DA:72,0
DA:73,0
DA:74,0
DA:75,0
DA:76,0
DA:77,0
DA:78,0
DA:79,0
DA:80,0
DA:81,0
DA:83,0
DA:88,0
DA:89,0
DA:91,0
DA:94,0
DA:95,0
DA:96,0
DA:98,0
DA:99,0
DA:100,0
DA:106,0
DA:107,0
DA:109,0
DA:112,0
DA:118,0
DA:119,0
DA:122,0
DA:125,0
DA:127,0
DA:133,0
DA:137,0
DA:143,0
DA:147,0
DA:148,0
DA:149,0
DA:153,0
DA:154,0
DA:157,0
DA:158,0
DA:174,0
DA:175,0
DA:177,0
DA:180,0
DA:183,0
DA:185,0
DA:186,0
DA:187,0
DA:188,0
DA:189,0
DA:190,0
DA:191,0
DA:192,0
DA:194,0
DA:196,0
DA:197,0
DA:198,0
DA:199,0
DA:201,0
DA:214,0
DA:215,0
DA:216,0
DA:217,0
DA:218,0
DA:219,0
DA:220,0
DA:221,0
DA:222,0
DA:226,0
DA:227,0
DA:228,0
DA:229,0
DA:230,0
DA:232,0
DA:234,0
DA:235,0
DA:236,0
DA:238,0
DA:239,0
DA:240,0
DA:241,0
DA:244,0
DA:245,0
DA:247,0
DA:248,0
DA:249,0
DA:250,0
DA:251,0
DA:264,0
DA:265,0
DA:266,0
DA:267,0
DA:268,0
DA:269,0
DA:270,0
DA:271,0
DA:272,0
DA:281,0
DA:282,0
DA:283,0
DA:284,0
DA:285,0
DA:286,0
DA:287,0
DA:288,0
DA:289,0
DA:290,0
DA:291,0
DA:292,0
DA:293,0
DA:294,0
DA:295,0
DA:296,0
DA:298,0
DA:299,0
DA:300,0
DA:302,0
DA:303,0
DA:304,0
DA:306,0
DA:307,0
DA:309,0
DA:310,0
DA:311,0
DA:313,0
DA:314,0
DA:318,0
DA:319,0
DA:321,0
DA:322,0
DA:323,0
DA:324,0
DA:325,0
BRF:0
BRH:0
LF:159
LH:0
end_of_record
SF:/home/lemon/src/rust-automata/packages/vass-reach-lib/src/automaton/lsg/mod.rs
FN:415,_RNvMNtNtCs2hUxDLYgi0n_14vass_reach_lib9automaton3lsgNtB2_14LinearSubGraph10iter_parts
FN:56,_RNvMNtNtCs2hUxDLYgi0n_14vass_reach_lib9automaton3lsgNtB2_14LinearSubGraph12add_subgraph
FN:322,_RNvMNtNtCs2hUxDLYgi0n_14vass_reach_lib9automaton3lsgNtB2_14LinearSubGraph14contains_state
FN:419,_RNvMNtNtCs2hUxDLYgi0n_14vass_reach_lib9automaton3lsgNtB2_14LinearSubGraph15iter_path_parts
FN:233,_RNvMNtNtCs2hUxDLYgi0n_14vass_reach_lib9automaton3lsgNtB2_14LinearSubGraph19add_scc_around_node
FN:426,_RNvMNtNtCs2hUxDLYgi0n_14vass_reach_lib9automaton3lsgNtB2_14LinearSubGraph19iter_subgraph_parts
FN:283,_RNvMNtNtCs2hUxDLYgi0n_14vass_reach_lib9automaton3lsgNtB2_14LinearSubGraph23add_scc_around_position
FN:72,_RNvMNtNtCs2hUxDLYgi0n_14vass_reach_lib9automaton3lsgNtB2_14LinearSubGraph4path
FN:332,_RNvMNtNtCs2hUxDLYgi0n_14vass_reach_lib9automaton3lsgNtB2_14LinearSubGraph4size
FN:46,_RNvMNtNtCs2hUxDLYgi0n_14vass_reach_lib9automaton3lsgNtB2_14LinearSubGraph5empty
FN:403,_RNvMNtNtCs2hUxDLYgi0n_14vass_reach_lib9automaton3lsgNtB2_14LinearSubGraph6to_cfg
FN:337,_RNvMNtNtCs2hUxDLYgi0n_14vass_reach_lib9automaton3lsgNtB2_14LinearSubGraph6to_nfa
FN:81,_RNvMNtNtCs2hUxDLYgi0n_14vass_reach_lib9automaton3lsgNtB2_14LinearSubGraph8add_node
FN:62,_RNvMNtNtCs2hUxDLYgi0n_14vass_reach_lib9automaton3lsgNtB2_14LinearSubGraph8add_path
FN:68,_RNvMNtNtCs2hUxDLYgi0n_14vass_reach_lib9automaton3lsgNtB2_14LinearSubGraph8subgraph
FN:36,_RNvMNtNtCs2hUxDLYgi0n_14vass_reach_lib9automaton3lsgNtB2_14LinearSubGraph9from_path
FN:493,_RNvXs_NtNtCs2hUxDLYgi0n_14vass_reach_lib9automaton3lsgNtB4_14LinearSubGraphNtB6_8Alphabet8alphabet
FN:253,_RNCNvMNtNtCs2hUxDLYgi0n_14vass_reach_lib9automaton3lsgNtB4_14LinearSubGraph19add_scc_around_node0B8_
FN:427,_RNCNvMNtNtCs2hUxDLYgi0n_14vass_reach_lib9automaton3lsgNtB4_14LinearSubGraph19iter_subgraph_parts0B8_
FN:333,_RNCNvMNtNtCs2hUxDLYgi0n_14vass_reach_lib9automaton3lsgNtB4_14LinearSubGraph4size0B8_
FN:101,_RNCNvMNtNtCs2hUxDLYgi0n_14vass_reach_lib9automaton3lsgNtB4_14LinearSubGraph8add_node0B8_
FN:434,_RINvNtNtCs2hUxDLYgi0n_14vass_reach_lib9automaton3lsg19partial_accept_pathpEB6_
FN:462,_RINvNtNtCs2hUxDLYgi0n_14vass_reach_lib9automaton3lsg23partial_accept_subgraphpEB6_
FN:499,_RINvXs0_NtNtCs2hUxDLYgi0n_14vass_reach_lib9automaton3lsgNtB6_14LinearSubGraphNtB8_8Language7acceptspEBa_
FN:420,_RNCNvMNtNtCs2hUxDLYgi0n_14vass_reach_lib9automaton3lsgNtB4_14LinearSubGraph15iter_path_parts0B8_
FN:434,_RINvNtNtCs2hUxDLYgi0n_14vass_reach_lib9automaton3lsg19partial_accept_pathINtNtNtCs7xuAoyMVi4A_4core5slice4iter4IterNtNtNtB4_3cfg6update16CFGCounterUpdateEECs3ATG82DPHTL_3lgs
FN:462,_RINvNtNtCs2hUxDLYgi0n_14vass_reach_lib9automaton3lsg23partial_accept_subgraphINtNtNtCs7xuAoyMVi4A_4core5slice4iter4IterNtNtNtB4_3cfg6update16CFGCounterUpdateEECs3ATG82DPHTL_3lgs
FN:499,_RINvXs0_NtNtCs2hUxDLYgi0n_14vass_reach_lib9automaton3lsgNtB6_14LinearSubGraphNtB8_8Language7acceptsINtNtNtCs7xuAoyMVi4A_4core5slice4iter4IterNtNtNtB8_3cfg6update16CFGCounterUpdateEECs3ATG82DPHTL_3lgs
FN:499,_RINvXs0_NtNtCs2hUxDLYgi0n_14vass_reach_lib9automaton3lsgNtB6_14LinearSubGraphNtB8_8Language7acceptsRANtNtNtB8_3cfg6update16CFGCounterUpdatej2_ECs3ATG82DPHTL_3lgs
FN:499,_RINvXs0_NtNtCs2hUxDLYgi0n_14vass_reach_lib9automaton3lsgNtB6_14LinearSubGraphNtB8_8Language7acceptsRANtNtNtB8_3cfg6update16CFGCounterUpdatej3_ECs3ATG82DPHTL_3lgs
FN:499,_RINvXs0_NtNtCs2hUxDLYgi0n_14vass_reach_lib9automaton3lsgNtB6_14LinearSubGraphNtB8_8Language7acceptsRANtNtNtB8_3cfg6update16CFGCounterUpdatej4_ECs3ATG82DPHTL_3lgs
FN:499,_RINvXs0_NtNtCs2hUxDLYgi0n_14vass_reach_lib9automaton3lsgNtB6_14LinearSubGraphNtB8_8Language7acceptsRANtNtNtB8_3cfg6update16CFGCounterUpdatej5_ECs3ATG82DPHTL_3lgs
FN:499,_RINvXs0_NtNtCs2hUxDLYgi0n_14vass_reach_lib9automaton3lsgNtB6_14LinearSubGraphNtB8_8Language7acceptsRANtNtNtB8_3cfg6update16CFGCounterUpdatej6_ECs3ATG82DPHTL_3lgs
FN:499,_RINvXs0_NtNtCs2hUxDLYgi0n_14vass_reach_lib9automaton3lsgNtB6_14LinearSubGraphNtB8_8Language7acceptsRANtNtNtB8_3cfg6update16CFGCounterUpdatej7_ECs3ATG82DPHTL_3lgs
FN:499,_RINvXs0_NtNtCs2hUxDLYgi0n_14vass_reach_lib9automaton3lsgNtB6_14LinearSubGraphNtB8_8Language7acceptsRANtNtNtB8_3cfg6update16CFGCounterUpdatej8_ECs3ATG82DPHTL_3lgs
FN:499,_RINvXs0_NtNtCs2hUxDLYgi0n_14vass_reach_lib9automaton3lsgNtB6_14LinearSubGraphNtB8_8Language7acceptsRINtNtCs1EFbPCGXlWb_5alloc3vec3VecNtNtNtB8_3cfg6update16CFGCounterUpdateEECs3ATG82DPHTL_3lgs
FN:434,_RINvNtNtCs8RRi2RJs6bh_14vass_reach_lib9automaton3lsg19partial_accept_pathpEB6_
FN:462,_RINvNtNtCs8RRi2RJs6bh_14vass_reach_lib9automaton3lsg23partial_accept_subgraphpEB6_
FN:499,_RINvXs0_NtNtCs8RRi2RJs6bh_14vass_reach_lib9automaton3lsgNtB6_14LinearSubGraphNtB8_8Language7acceptspEBa_
FN:420,_RNCNvMNtNtCs8RRi2RJs6bh_14vass_reach_lib9automaton3lsgNtB4_14LinearSubGraph15iter_path_parts0B8_
FN:253,_RNCNvMNtNtCs8RRi2RJs6bh_14vass_reach_lib9automaton3lsgNtB4_14LinearSubGraph19add_scc_around_node0B8_
FN:427,_RNCNvMNtNtCs8RRi2RJs6bh_14vass_reach_lib9automaton3lsgNtB4_14LinearSubGraph19iter_subgraph_parts0B8_
FN:333,_RNCNvMNtNtCs8RRi2RJs6bh_14vass_reach_lib9automaton3lsgNtB4_14LinearSubGraph4size0B8_
FN:101,_RNCNvMNtNtCs8RRi2RJs6bh_14vass_reach_lib9automaton3lsgNtB4_14LinearSubGraph8add_node0B8_
FN:415,_RNvMNtNtCs8RRi2RJs6bh_14vass_reach_lib9automaton3lsgNtB2_14LinearSubGraph10iter_parts
FN:56,_RNvMNtNtCs8RRi2RJs6bh_14vass_reach_lib9automaton3lsgNtB2_14LinearSubGraph12add_subgraph
FN:322,_RNvMNtNtCs8RRi2RJs6bh_14vass_reach_lib9automaton3lsgNtB2_14LinearSubGraph14contains_state
FN:419,_RNvMNtNtCs8RRi2RJs6bh_14vass_reach_lib9automaton3lsgNtB2_14LinearSubGraph15iter_path_parts
FN:233,_RNvMNtNtCs8RRi2RJs6bh_14vass_reach_lib9automaton3lsgNtB2_14LinearSubGraph19add_scc_around_node
FN:426,_RNvMNtNtCs8RRi2RJs6bh_14vass_reach_lib9automaton3lsgNtB2_14LinearSubGraph19iter_subgraph_parts
FN:283,_RNvMNtNtCs8RRi2RJs6bh_14vass_reach_lib9automaton3lsgNtB2_14LinearSubGraph23add_scc_around_position
FN:72,_RNvMNtNtCs8RRi2RJs6bh_14vass_reach_lib9automaton3lsgNtB2_14LinearSubGraph4path
FN:332,_RNvMNtNtCs8RRi2RJs6bh_14vass_reach_lib9automaton3lsgNtB2_14LinearSubGraph4size
FN:46,_RNvMNtNtCs8RRi2RJs6bh_14vass_reach_lib9automaton3lsgNtB2_14LinearSubGraph5empty
FN:403,_RNvMNtNtCs8RRi2RJs6bh_14vass_reach_lib9automaton3lsgNtB2_14LinearSubGraph6to_cfg
FN:337,_RNvMNtNtCs8RRi2RJs6bh_14vass_reach_lib9automaton3lsgNtB2_14LinearSubGraph6to_nfa
FN:81,_RNvMNtNtCs8RRi2RJs6bh_14vass_reach_lib9automaton3lsgNtB2_14LinearSubGraph8add_node
FN:62,_RNvMNtNtCs8RRi2RJs6bh_14vass_reach_lib9automaton3lsgNtB2_14LinearSubGraph8add_path
FN:68,_RNvMNtNtCs8RRi2RJs6bh_14vass_reach_lib9automaton3lsgNtB2_14LinearSubGraph8subgraph
FN:36,_RNvMNtNtCs8RRi2RJs6bh_14vass_reach_lib9automaton3lsgNtB2_14LinearSubGraph9from_path
FN:493,_RNvXs_NtNtCs8RRi2RJs6bh_14vass_reach_lib9automaton3lsgNtB4_14LinearSubGraphNtB6_8Alphabet8alphabet
FNDA:5,_RNvMNtNtCs2hUxDLYgi0n_14vass_reach_lib9automaton3lsgNtB2_14LinearSubGraph10iter_parts
FNDA:4,_RNvMNtNtCs2hUxDLYgi0n_14vass_reach_lib9automaton3lsgNtB2_14LinearSubGraph12add_subgraph
FNDA:0,_RNvMNtNtCs2hUxDLYgi0n_14vass_reach_lib9automaton3lsgNtB2_14LinearSubGraph14contains_state
FNDA:0,_RNvMNtNtCs2hUxDLYgi0n_14vass_reach_lib9automaton3lsgNtB2_14LinearSubGraph15iter_path_parts
FNDA:0,_RNvMNtNtCs2hUxDLYgi0n_14vass_reach_lib9automaton3lsgNtB2_14LinearSubGraph19add_scc_around_node
FNDA:5,_RNvMNtNtCs2hUxDLYgi0n_14vass_reach_lib9automaton3lsgNtB2_14LinearSubGraph19iter_subgraph_parts
FNDA:0,_RNvMNtNtCs2hUxDLYgi0n_14vass_reach_lib9automaton3lsgNtB2_14LinearSubGraph23add_scc_around_position
FNDA:1649,_RNvMNtNtCs2hUxDLYgi0n_14vass_reach_lib9automaton3lsgNtB2_14LinearSubGraph4path
FNDA:0,_RNvMNtNtCs2hUxDLYgi0n_14vass_reach_lib9automaton3lsgNtB2_14LinearSubGraph4size
FNDA:15,_RNvMNtNtCs2hUxDLYgi0n_14vass_reach_lib9automaton3lsgNtB2_14LinearSubGraph5empty
FNDA:5,_RNvMNtNtCs2hUxDLYgi0n_14vass_reach_lib9automaton3lsgNtB2_14LinearSubGraph6to_cfg
FNDA:7,_RNvMNtNtCs2hUxDLYgi0n_14vass_reach_lib9automaton3lsgNtB2_14LinearSubGraph6to_nfa
FNDA:8,_RNvMNtNtCs2hUxDLYgi0n_14vass_reach_lib9automaton3lsgNtB2_14LinearSubGraph8add_node
FNDA:33,_RNvMNtNtCs2hUxDLYgi0n_14vass_reach_lib9automaton3lsgNtB2_14LinearSubGraph8add_path
FNDA:415,_RNvMNtNtCs2hUxDLYgi0n_14vass_reach_lib9automaton3lsgNtB2_14LinearSubGraph8subgraph
FNDA:5,_RNvMNtNtCs2hUxDLYgi0n_14vass_reach_lib9automaton3lsgNtB2_14LinearSubGraph9from_path
FNDA:45,_RNvXs_NtNtCs2hUxDLYgi0n_14vass_reach_lib9automaton3lsgNtB4_14LinearSubGraphNtB6_8Alphabet8alphabet
FNDA:0,_RNCNvMNtNtCs2hUxDLYgi0n_14vass_reach_lib9automaton3lsgNtB4_14LinearSubGraph19add_scc_around_node0B8_
FNDA:6,_RNCNvMNtNtCs2hUxDLYgi0n_14vass_reach_lib9automaton3lsgNtB4_14LinearSubGraph19iter_subgraph_parts0B8_
FNDA:0,_RNCNvMNtNtCs2hUxDLYgi0n_14vass_reach_lib9automaton3lsgNtB4_14LinearSubGraph4size0B8_
FNDA:60,_RNCNvMNtNtCs2hUxDLYgi0n_14vass_reach_lib9automaton3lsgNtB4_14LinearSubGraph8add_node0B8_
FNDA:0,_RINvNtNtCs2hUxDLYgi0n_14vass_reach_lib9automaton3lsg19partial_accept_pathpEB6_
FNDA:0,_RINvNtNtCs2hUxDLYgi0n_14vass_reach_lib9automaton3lsg23partial_accept_subgraphpEB6_
FNDA:0,_RINvXs0_NtNtCs2hUxDLYgi0n_14vass_reach_lib9automaton3lsgNtB6_14LinearSubGraphNtB8_8Language7acceptspEBa_
FNDA:0,_RNCNvMNtNtCs2hUxDLYgi0n_14vass_reach_lib9automaton3lsgNtB4_14LinearSubGraph15iter_path_parts0B8_
FNDA:1522,_RINvNtNtCs2hUxDLYgi0n_14vass_reach_lib9automaton3lsg19partial_accept_pathINtNtNtCs7xuAoyMVi4A_4core5slice4iter4IterNtNtNtB4_3cfg6update16CFGCounterUpdateEECs3ATG82DPHTL_3lgs
FNDA:392,_RINvNtNtCs2hUxDLYgi0n_14vass_reach_lib9automaton3lsg23partial_accept_subgraphINtNtNtCs7xuAoyMVi4A_4core5slice4iter4IterNtNtNtB4_3cfg6update16CFGCounterUpdateEECs3ATG82DPHTL_3lgs
FNDA:1275,_RINvXs0_NtNtCs2hUxDLYgi0n_14vass_reach_lib9automaton3lsgNtB6_14LinearSubGraphNtB8_8Language7acceptsINtNtNtCs7xuAoyMVi4A_4core5slice4iter4IterNtNtNtB8_3cfg6update16CFGCounterUpdateEECs3ATG82DPHTL_3lgs
FNDA:5,_RINvXs0_NtNtCs2hUxDLYgi0n_14vass_reach_lib9automaton3lsgNtB6_14LinearSubGraphNtB8_8Language7acceptsRANtNtNtB8_3cfg6update16CFGCounterUpdatej2_ECs3ATG82DPHTL_3lgs
FNDA:2,_RINvXs0_NtNtCs2hUxDLYgi0n_14vass_reach_lib9automaton3lsgNtB6_14LinearSubGraphNtB8_8Language7acceptsRANtNtNtB8_3cfg6update16CFGCounterUpdatej3_ECs3ATG82DPHTL_3lgs
FNDA:3,_RINvXs0_NtNtCs2hUxDLYgi0n_14vass_reach_lib9automaton3lsgNtB6_14LinearSubGraphNtB8_8Language7acceptsRANtNtNtB8_3cfg6update16CFGCounterUpdatej4_ECs3ATG82DPHTL_3lgs
FNDA:2,_RINvXs0_NtNtCs2hUxDLYgi0n_14vass_reach_lib9automaton3lsgNtB6_14LinearSubGraphNtB8_8Language7acceptsRANtNtNtB8_3cfg6update16CFGCounterUpdatej5_ECs3ATG82DPHTL_3lgs
FNDA:1,_RINvXs0_NtNtCs2hUxDLYgi0n_14vass_reach_lib9automaton3lsgNtB6_14LinearSubGraphNtB8_8Language7acceptsRANtNtNtB8_3cfg6update16CFGCounterUpdatej6_ECs3ATG82DPHTL_3lgs
FNDA:1,_RINvXs0_NtNtCs2hUxDLYgi0n_14vass_reach_lib9automaton3lsgNtB6_14LinearSubGraphNtB8_8Language7acceptsRANtNtNtB8_3cfg6update16CFGCounterUpdatej7_ECs3ATG82DPHTL_3lgs
FNDA:1,_RINvXs0_NtNtCs2hUxDLYgi0n_14vass_reach_lib9automaton3lsgNtB6_14LinearSubGraphNtB8_8Language7acceptsRANtNtNtB8_3cfg6update16CFGCounterUpdatej8_ECs3ATG82DPHTL_3lgs
FNDA:1,_RINvXs0_NtNtCs2hUxDLYgi0n_14vass_reach_lib9automaton3lsgNtB6_14LinearSubGraphNtB8_8Language7acceptsRINtNtCs1EFbPCGXlWb_5alloc3vec3VecNtNtNtB8_3cfg6update16CFGCounterUpdateEECs3ATG82DPHTL_3lgs
FNDA:0,_RINvNtNtCs8RRi2RJs6bh_14vass_reach_lib9automaton3lsg19partial_accept_pathpEB6_
FNDA:0,_RINvNtNtCs8RRi2RJs6bh_14vass_reach_lib9automaton3lsg23partial_accept_subgraphpEB6_
FNDA:0,_RINvXs0_NtNtCs8RRi2RJs6bh_14vass_reach_lib9automaton3lsgNtB6_14LinearSubGraphNtB8_8Language7acceptspEBa_
FNDA:0,_RNCNvMNtNtCs8RRi2RJs6bh_14vass_reach_lib9automaton3lsgNtB4_14LinearSubGraph15iter_path_parts0B8_
FNDA:0,_RNCNvMNtNtCs8RRi2RJs6bh_14vass_reach_lib9automaton3lsgNtB4_14LinearSubGraph19add_scc_around_node0B8_
FNDA:0,_RNCNvMNtNtCs8RRi2RJs6bh_14vass_reach_lib9automaton3lsgNtB4_14LinearSubGraph19iter_subgraph_parts0B8_
FNDA:0,_RNCNvMNtNtCs8RRi2RJs6bh_14vass_reach_lib9automaton3lsgNtB4_14LinearSubGraph4size0B8_
FNDA:0,_RNCNvMNtNtCs8RRi2RJs6bh_14vass_reach_lib9automaton3lsgNtB4_14LinearSubGraph8add_node0B8_
FNDA:0,_RNvMNtNtCs8RRi2RJs6bh_14vass_reach_lib9automaton3lsgNtB2_14LinearSubGraph10iter_parts
FNDA:0,_RNvMNtNtCs8RRi2RJs6bh_14vass_reach_lib9automaton3lsgNtB2_14LinearSubGraph12add_subgraph
FNDA:0,_RNvMNtNtCs8RRi2RJs6bh_14vass_reach_lib9automaton3lsgNtB2_14LinearSubGraph14contains_state
FNDA:0,_RNvMNtNtCs8RRi2RJs6bh_14vass_reach_lib9automaton3lsgNtB2_14LinearSubGraph15iter_path_parts
FNDA:0,_RNvMNtNtCs8RRi2RJs6bh_14vass_reach_lib9automaton3lsgNtB2_14LinearSubGraph19add_scc_around_node
FNDA:0,_RNvMNtNtCs8RRi2RJs6bh_14vass_reach_lib9automaton3lsgNtB2_14LinearSubGraph19iter_subgraph_parts
FNDA:0,_RNvMNtNtCs8RRi2RJs6bh_14vass_reach_lib9automaton3lsgNtB2_14LinearSubGraph23add_scc_around_position
FNDA:0,_RNvMNtNtCs8RRi2RJs6bh_14vass_reach_lib9automaton3lsgNtB2_14LinearSubGraph4path
FNDA:0,_RNvMNtNtCs8RRi2RJs6bh_14vass_reach_lib9automaton3lsgNtB2_14LinearSubGraph4size
FNDA:0,_RNvMNtNtCs8RRi2RJs6bh_14vass_reach_lib9automaton3lsgNtB2_14LinearSubGraph5empty
FNDA:0,_RNvMNtNtCs8RRi2RJs6bh_14vass_reach_lib9automaton3lsgNtB2_14LinearSubGraph6to_cfg
FNDA:0,_RNvMNtNtCs8RRi2RJs6bh_14vass_reach_lib9automaton3lsgNtB2_14LinearSubGraph6to_nfa
FNDA:0,_RNvMNtNtCs8RRi2RJs6bh_14vass_reach_lib9automaton3lsgNtB2_14LinearSubGraph8add_node
FNDA:0,_RNvMNtNtCs8RRi2RJs6bh_14vass_reach_lib9automaton3lsgNtB2_14LinearSubGraph8add_path
FNDA:0,_RNvMNtNtCs8RRi2RJs6bh_14vass_reach_lib9automaton3lsgNtB2_14LinearSubGraph8subgraph
FNDA:0,_RNvMNtNtCs8RRi2RJs6bh_14vass_reach_lib9automaton3lsgNtB2_14LinearSubGraph9from_path
FNDA:0,_RNvXs_NtNtCs8RRi2RJs6bh_14vass_reach_lib9automaton3lsgNtB4_14LinearSubGraphNtB6_8Alphabet8alphabet
FNF:25
FNH:17
DA:36,5
DA:37,5
DA:38,5
DA:39,5
DA:40,5
DA:41,5
DA:42,5
DA:43,5
DA:44,5
DA:46,15
DA:47,15
DA:48,15
DA:49,15
DA:50,15
DA:51,15
DA:52,15
DA:53,15
DA:54,15
DA:56,4
DA:57,4
DA:58,4
DA:59,4
DA:60,4
DA:62,33
DA:63,33
DA:64,33
DA:65,33
DA:66,33
DA:68,415
DA:69,415
DA:70,415
DA:72,1649
DA:73,1649
DA:74,1649
DA:81,8
DA:93,8
DA:94,8
DA:97,12
DA:98,12
DA:99,10
DA:100,10
DA:101,60
DA:102,28
DA:103,28
DA:105,2
DA:106,2
DA:107,2
DA:114,8
DA:116,30
DA:117,41
DA:118,41
DA:120,2
DA:121,2
DA:122,2
DA:123,0
DA:125,0
DA:126,0
DA:127,0
DA:128,0
DA:133,39
DA:134,28
DA:135,28
DA:136,11
DA:143,8
DA:144,0
DA:145,8
DA:148,8
DA:149,8
DA:153,8
DA:154,8
DA:156,8
DA:157,8
DA:159,8
DA:160,8
DA:161,8
DA:162,8
DA:164,8
DA:165,5
DA:167,5
DA:168,5
DA:169,5
DA:170,5
DA:171,3
DA:173,8
DA:174,8
DA:177,19
DA:178,38
DA:180,38
DA:181,24
DA:182,14
DA:184,14
DA:185,14
DA:190,8
DA:191,8
DA:194,21
DA:195,56
DA:196,56
DA:197,8
DA:200,48
DA:201,23
DA:202,25
DA:206,8
DA:207,8
DA:208,8
DA:209,8
DA:210,8
DA:211,8
DA:214,8
DA:215,8
DA:216,8
DA:217,8
DA:218,8
DA:221,8
DA:222,8
DA:223,8
DA:224,8
DA:225,8
DA:227,8
DA:228,8
DA:233,0
DA:234,0
DA:235,0
DA:239,0
DA:240,0
DA:242,0
DA:243,0
DA:245,0
DA:246,0
DA:249,0
DA:250,0
DA:251,0
DA:252,0
DA:253,0
DA:254,0
DA:255,0
DA:257,0
DA:258,0
DA:259,0
DA:263,0
DA:264,0
DA:265,0
DA:267,0
DA:268,0
DA:270,0
DA:271,0
DA:273,0
DA:274,0
DA:275,0
DA:276,0
DA:277,0
DA:280,0
DA:281,0
DA:283,0
DA:284,0
DA:285,0
DA:287,0
DA:289,0
DA:290,0
DA:292,0
DA:293,0
DA:295,0
DA:297,0
DA:298,0
DA:299,0
DA:300,0
DA:301,0
DA:302,0
DA:303,0
DA:304,0
DA:305,0
DA:306,0
DA:307,0
DA:308,0
DA:309,0
DA:311,0
DA:312,0
DA:313,0
DA:318,0
DA:319,0
DA:322,0
DA:323,0
DA:324,0
DA:325,0
DA:326,0
DA:329,0
DA:330,0
DA:332,0
DA:333,0
DA:334,0
DA:337,7
DA:338,7
DA:339,7
DA:340,7
DA:341,7
DA:343,7
DA:345,13
DA:346,13
DA:347,8
DA:348,8
DA:349,10
DA:350,10
DA:351,10
DA:352,10
DA:353,10
DA:354,10
DA:356,5
DA:357,5
DA:359,5
DA:362,11
DA:363,11
DA:364,11
DA:367,11
DA:368,11
DA:369,5
DA:370,5
DA:371,5
DA:372,5
DA:373,5
DA:374,5
DA:375,6
DA:379,11
DA:380,11
DA:381,5
DA:382,5
DA:383,6
DA:387,10
DA:388,10
DA:389,10
DA:390,10
DA:391,10
DA:392,10
DA:393,10
DA:398,7
DA:400,7
DA:401,7
DA:403,5
DA:404,5
DA:405,5
DA:407,5
DA:409,0
DA:410,0
DA:412,5
DA:413,5
DA:415,5
DA:416,5
DA:417,5
DA:419,0
DA:420,0
DA:421,0
DA:422,0
DA:423,0
DA:424,0
DA:426,5
DA:427,6
DA:428,3
DA:429,3
DA:430,6
DA:431,5
DA:434,1522
DA:435,1522
DA:436,1522
DA:437,1522
DA:438,1522
DA:440,1522
DA:441,0
DA:442,1522
DA:444,1803
DA:445,1786
DA:447,1786
DA:448,1023
DA:449,1023
DA:450,1023
DA:451,763
DA:454,1023
DA:455,742
DA:456,281
DA:459,17
DA:460,1522
DA:462,392
DA:463,392
DA:464,392
DA:465,392
DA:466,392
DA:468,724
DA:469,704
DA:470,704
DA:471,704
DA:472,704
DA:474,642
DA:475,332
DA:476,332
DA:477,332
DA:478,332
DA:479,310
DA:482,704
DA:483,372
DA:484,332
DA:487,392
DA:488,392
DA:493,45
DA:494,45
DA:495,45
DA:499,1291
DA:500,1291
DA:501,1291
DA:503,1291
DA:504,1914
DA:505,1914
DA:506,1522
DA:507,392
DA:510,1914
DA:511,941
DA:512,973
DA:516,350
DA:517,1291
BRF:0
BRH:0
LF:320
LH:232
end_of_record
SF:/home/lemon/src/rust-automata/packages/vass-reach-lib/src/automaton/lsg/part.rs
FN:60,_RNvMNtNtNtCs2hUxDLYgi0n_14vass_reach_lib9automaton3lsg4partNtB2_8LSGGraph11from_subset
FN:112,_RNvMNtNtNtCs2hUxDLYgi0n_14vass_reach_lib9automaton3lsg4partNtB2_8LSGGraph11product_end
FN:108,_RNvMNtNtNtCs2hUxDLYgi0n_14vass_reach_lib9automaton3lsg4partNtB2_8LSGGraph13product_start
FN:128,_RNvMNtNtNtCs2hUxDLYgi0n_14vass_reach_lib9automaton3lsg4partNtB2_8LSGGraph19map_node_to_product
FN:117,_RNvMNtNtNtCs2hUxDLYgi0n_14vass_reach_lib9automaton3lsg4partNtB2_8LSGGraph19map_path_to_product
FN:32,_RNvMNtNtNtCs2hUxDLYgi0n_14vass_reach_lib9automaton3lsg4partNtB2_8LSGGraph3new
FN:290,_RNvMs7_NtNtNtCs2hUxDLYgi0n_14vass_reach_lib9automaton3lsg4partNtB5_7LSGPath3new
FN:331,_RNvMs9_NtNtNtCs2hUxDLYgi0n_14vass_reach_lib9automaton3lsg4partNtB5_7LSGPart10iter_nodes
FN:400,_RNvMs9_NtNtNtCs2hUxDLYgi0n_14vass_reach_lib9automaton3lsg4partNtB5_7LSGPart11as_subgraph
FN:389,_RNvMs9_NtNtNtCs2hUxDLYgi0n_14vass_reach_lib9automaton3lsg4partNtB5_7LSGPart11is_subgraph
FN:407,_RNvMs9_NtNtNtCs2hUxDLYgi0n_14vass_reach_lib9automaton3lsg4partNtB5_7LSGPart11unwrap_path
FN:310,_RNvMs9_NtNtNtCs2hUxDLYgi0n_14vass_reach_lib9automaton3lsg4partNtB5_7LSGPart13contains_node
FN:414,_RNvMs9_NtNtNtCs2hUxDLYgi0n_14vass_reach_lib9automaton3lsg4partNtB5_7LSGPart15unwrap_subgraph
FN:318,_RNvMs9_NtNtNtCs2hUxDLYgi0n_14vass_reach_lib9automaton3lsg4partNtB5_7LSGPart20has_node_as_extremal
FN:352,_RNvMs9_NtNtNtCs2hUxDLYgi0n_14vass_reach_lib9automaton3lsg4partNtB5_7LSGPart3end
FN:378,_RNvMs9_NtNtNtCs2hUxDLYgi0n_14vass_reach_lib9automaton3lsg4partNtB5_7LSGPart4size
FN:343,_RNvMs9_NtNtNtCs2hUxDLYgi0n_14vass_reach_lib9automaton3lsg4partNtB5_7LSGPart5start
FN:393,_RNvMs9_NtNtNtCs2hUxDLYgi0n_14vass_reach_lib9automaton3lsg4partNtB5_7LSGPart7as_path
FN:385,_RNvMs9_NtNtNtCs2hUxDLYgi0n_14vass_reach_lib9automaton3lsg4partNtB5_7LSGPart7is_path
FN:145,_RNvXs0_NtNtNtCs2hUxDLYgi0n_14vass_reach_lib9automaton3lsg4partNtB5_8LSGGraphINtB9_9AutomatonNtB9_13DeterministicE10node_count
FN:153,_RNvXs0_NtNtNtCs2hUxDLYgi0n_14vass_reach_lib9automaton3lsg4partNtB5_8LSGGraphINtB9_9AutomatonNtB9_13DeterministicE18get_node_unchecked
FN:149,_RNvXs0_NtNtNtCs2hUxDLYgi0n_14vass_reach_lib9automaton3lsg4partNtB5_8LSGGraphINtB9_9AutomatonNtB9_13DeterministicE8get_node
FN:162,_RNvXs1_NtNtNtCs2hUxDLYgi0n_14vass_reach_lib9automaton3lsg4partNtB5_8LSGGraphINtB9_21ExplicitEdgeAutomatonNtB9_13DeterministicE10edge_count
FN:174,_RNvXs1_NtNtNtCs2hUxDLYgi0n_14vass_reach_lib9automaton3lsg4partNtB5_8LSGGraphINtB9_21ExplicitEdgeAutomatonNtB9_13DeterministicE14edge_endpoints
FN:170,_RNvXs1_NtNtNtCs2hUxDLYgi0n_14vass_reach_lib9automaton3lsg4partNtB5_8LSGGraphINtB9_21ExplicitEdgeAutomatonNtB9_13DeterministicE18get_edge_unchecked
FN:188,_RNvXs1_NtNtNtCs2hUxDLYgi0n_14vass_reach_lib9automaton3lsg4partNtB5_8LSGGraphINtB9_21ExplicitEdgeAutomatonNtB9_13DeterministicE21incoming_edge_indices
FN:182,_RNvXs1_NtNtNtCs2hUxDLYgi0n_14vass_reach_lib9automaton3lsg4partNtB5_8LSGGraphINtB9_21ExplicitEdgeAutomatonNtB9_13DeterministicE21outgoing_edge_indices
FN:194,_RNvXs1_NtNtNtCs2hUxDLYgi0n_14vass_reach_lib9automaton3lsg4partNtB5_8LSGGraphINtB9_21ExplicitEdgeAutomatonNtB9_13DeterministicE23connecting_edge_indices
FN:178,_RNvXs1_NtNtNtCs2hUxDLYgi0n_14vass_reach_lib9automaton3lsg4partNtB5_8LSGGraphINtB9_21ExplicitEdgeAutomatonNtB9_13DeterministicE24edge_endpoints_unchecked
FN:166,_RNvXs1_NtNtNtCs2hUxDLYgi0n_14vass_reach_lib9automaton3lsg4partNtB5_8LSGGraphINtB9_21ExplicitEdgeAutomatonNtB9_13DeterministicE8get_edge
FN:237,_RNvXs2_NtNtNtCs2hUxDLYgi0n_14vass_reach_lib9automaton3lsg4partNtB5_8LSGGraphINtB9_19ModifiableAutomatonNtB9_13DeterministicE11remove_edge
FN:233,_RNvXs2_NtNtNtCs2hUxDLYgi0n_14vass_reach_lib9automaton3lsg4partNtB5_8LSGGraphINtB9_19ModifiableAutomatonNtB9_13DeterministicE11remove_node
FN:210,_RNvXs2_NtNtNtCs2hUxDLYgi0n_14vass_reach_lib9automaton3lsg4partNtB5_8LSGGraphINtB9_19ModifiableAutomatonNtB9_13DeterministicE8add_edge
FN:206,_RNvXs2_NtNtNtCs2hUxDLYgi0n_14vass_reach_lib9automaton3lsg4partNtB5_8LSGGraphINtB9_19ModifiableAutomatonNtB9_13DeterministicE8add_node
FN:254,_RNvXs3_NtNtNtCs2hUxDLYgi0n_14vass_reach_lib9automaton3lsg4partNtB5_8LSGGraphINtB9_20InitializedAutomatonNtB9_13DeterministicE11get_initial
FN:258,_RNvXs3_NtNtNtCs2hUxDLYgi0n_14vass_reach_lib9automaton3lsg4partNtB5_8LSGGraphINtB9_20InitializedAutomatonNtB9_13DeterministicE12is_accepting
FN:264,_RNvXs4_NtNtNtCs2hUxDLYgi0n_14vass_reach_lib9automaton3lsg4partNtB5_8LSGGraphINtB9_25SingleFinalStateAutomatonNtB9_13DeterministicE9get_final
FN:268,_RNvXs4_NtNtNtCs2hUxDLYgi0n_14vass_reach_lib9automaton3lsg4partNtB5_8LSGGraphINtB9_25SingleFinalStateAutomatonNtB9_13DeterministicE9set_final
FN:296,_RNvXs8_NtNtNtCs2hUxDLYgi0n_14vass_reach_lib9automaton3lsg4partNtB5_7LSGPathINtNtCs7xuAoyMVi4A_4core7convert4FromINtNtB9_4path4PathNtNtNtB9_20implicit_cfg_product5state15MultiGraphStateNtNtNtB9_3cfg6update16CFGCounterUpdateEE4from
FN:136,_RNvXs_NtNtNtCs2hUxDLYgi0n_14vass_reach_lib9automaton3lsg4partNtB4_8LSGGraphNtB8_8Alphabet8alphabet
FN:359,_RINvMs9_NtNtNtCs2hUxDLYgi0n_14vass_reach_lib9automaton3lsg4partNtB6_7LSGPart11random_nodeNtNtNtCseaSD3gBw7sb_4rand4rngs3std6StdRngEBc_
FN:312,_RNCNvMs9_NtNtNtCs2hUxDLYgi0n_14vass_reach_lib9automaton3lsg4partNtB7_7LSGPart13contains_node0Bd_
FN:191,_RNCNvXs1_NtNtNtCs2hUxDLYgi0n_14vass_reach_lib9automaton3lsg4partNtB7_8LSGGraphINtBb_21ExplicitEdgeAutomatonNtBb_13DeterministicE21incoming_edge_indices0Bd_
FN:185,_RNCNvXs1_NtNtNtCs2hUxDLYgi0n_14vass_reach_lib9automaton3lsg4partNtB7_8LSGGraphINtBb_21ExplicitEdgeAutomatonNtBb_13DeterministicE21outgoing_edge_indices0Bd_
FN:219,_RNCNvXs2_NtNtNtCs2hUxDLYgi0n_14vass_reach_lib9automaton3lsg4partNtB7_8LSGGraphINtBb_19ModifiableAutomatonNtBb_13DeterministicE8add_edge0Bd_
FN:241,_RINvXs2_NtNtNtCs2hUxDLYgi0n_14vass_reach_lib9automaton3lsg4partNtB6_8LSGGraphINtBa_19ModifiableAutomatonNtBa_13DeterministicE12retain_nodespEBc_
FN:274,_RINvXs5_NtNtNtCs2hUxDLYgi0n_14vass_reach_lib9automaton3lsg4partNtB6_8LSGGraphNtBa_8Language7acceptspEBc_
FN:201,_RNCNvXs1_NtNtNtCs2hUxDLYgi0n_14vass_reach_lib9automaton3lsg4partNtB7_8LSGGraphINtBb_21ExplicitEdgeAutomatonNtBb_13DeterministicE23connecting_edge_indices0Bd_
FN:359,_RINvMs9_NtNtNtCs8RRi2RJs6bh_14vass_reach_lib9automaton3lsg4partNtB6_7LSGPart11random_nodepEBc_
FN:241,_RINvXs2_NtNtNtCs8RRi2RJs6bh_14vass_reach_lib9automaton3lsg4partNtB6_8LSGGraphINtBa_19ModifiableAutomatonNtBa_13DeterministicE12retain_nodespEBc_
FN:274,_RINvXs5_NtNtNtCs8RRi2RJs6bh_14vass_reach_lib9automaton3lsg4partNtB6_8LSGGraphNtBa_8Language7acceptspEBc_
FN:312,_RNCNvMs9_NtNtNtCs8RRi2RJs6bh_14vass_reach_lib9automaton3lsg4partNtB7_7LSGPart13contains_node0Bd_
FN:191,_RNCNvXs1_NtNtNtCs8RRi2RJs6bh_14vass_reach_lib9automaton3lsg4partNtB7_8LSGGraphINtBb_21ExplicitEdgeAutomatonNtBb_13DeterministicE21incoming_edge_indices0Bd_
FN:185,_RNCNvXs1_NtNtNtCs8RRi2RJs6bh_14vass_reach_lib9automaton3lsg4partNtB7_8LSGGraphINtBb_21ExplicitEdgeAutomatonNtBb_13DeterministicE21outgoing_edge_indices0Bd_
FN:201,_RNCNvXs1_NtNtNtCs8RRi2RJs6bh_14vass_reach_lib9automaton3lsg4partNtB7_8LSGGraphINtBb_21ExplicitEdgeAutomatonNtBb_13DeterministicE23connecting_edge_indices0Bd_
FN:219,_RNCNvXs2_NtNtNtCs8RRi2RJs6bh_14vass_reach_lib9automaton3lsg4partNtB7_8LSGGraphINtBb_19ModifiableAutomatonNtBb_13DeterministicE8add_edge0Bd_
FN:60,_RNvMNtNtNtCs8RRi2RJs6bh_14vass_reach_lib9automaton3lsg4partNtB2_8LSGGraph11from_subset
FN:112,_RNvMNtNtNtCs8RRi2RJs6bh_14vass_reach_lib9automaton3lsg4partNtB2_8LSGGraph11product_end
FN:108,_RNvMNtNtNtCs8RRi2RJs6bh_14vass_reach_lib9automaton3lsg4partNtB2_8LSGGraph13product_start
FN:128,_RNvMNtNtNtCs8RRi2RJs6bh_14vass_reach_lib9automaton3lsg4partNtB2_8LSGGraph19map_node_to_product
FN:117,_RNvMNtNtNtCs8RRi2RJs6bh_14vass_reach_lib9automaton3lsg4partNtB2_8LSGGraph19map_path_to_product
FN:32,_RNvMNtNtNtCs8RRi2RJs6bh_14vass_reach_lib9automaton3lsg4partNtB2_8LSGGraph3new
FN:290,_RNvMs7_NtNtNtCs8RRi2RJs6bh_14vass_reach_lib9automaton3lsg4partNtB5_7LSGPath3new
FN:331,_RNvMs9_NtNtNtCs8RRi2RJs6bh_14vass_reach_lib9automaton3lsg4partNtB5_7LSGPart10iter_nodes
FN:400,_RNvMs9_NtNtNtCs8RRi2RJs6bh_14vass_reach_lib9automaton3lsg4partNtB5_7LSGPart11as_subgraph
FN:389,_RNvMs9_NtNtNtCs8RRi2RJs6bh_14vass_reach_lib9automaton3lsg4partNtB5_7LSGPart11is_subgraph
FN:407,_RNvMs9_NtNtNtCs8RRi2RJs6bh_14vass_reach_lib9automaton3lsg4partNtB5_7LSGPart11unwrap_path
FN:310,_RNvMs9_NtNtNtCs8RRi2RJs6bh_14vass_reach_lib9automaton3lsg4partNtB5_7LSGPart13contains_node
FN:414,_RNvMs9_NtNtNtCs8RRi2RJs6bh_14vass_reach_lib9automaton3lsg4partNtB5_7LSGPart15unwrap_subgraph
FN:318,_RNvMs9_NtNtNtCs8RRi2RJs6bh_14vass_reach_lib9automaton3lsg4partNtB5_7LSGPart20has_node_as_extremal
FN:352,_RNvMs9_NtNtNtCs8RRi2RJs6bh_14vass_reach_lib9automaton3lsg4partNtB5_7LSGPart3end
FN:378,_RNvMs9_NtNtNtCs8RRi2RJs6bh_14vass_reach_lib9automaton3lsg4partNtB5_7LSGPart4size
FN:343,_RNvMs9_NtNtNtCs8RRi2RJs6bh_14vass_reach_lib9automaton3lsg4partNtB5_7LSGPart5start
FN:393,_RNvMs9_NtNtNtCs8RRi2RJs6bh_14vass_reach_lib9automaton3lsg4partNtB5_7LSGPart7as_path
FN:385,_RNvMs9_NtNtNtCs8RRi2RJs6bh_14vass_reach_lib9automaton3lsg4partNtB5_7LSGPart7is_path
FN:145,_RNvXs0_NtNtNtCs8RRi2RJs6bh_14vass_reach_lib9automaton3lsg4partNtB5_8LSGGraphINtB9_9AutomatonNtB9_13DeterministicE10node_count
FN:153,_RNvXs0_NtNtNtCs8RRi2RJs6bh_14vass_reach_lib9automaton3lsg4partNtB5_8LSGGraphINtB9_9AutomatonNtB9_13DeterministicE18get_node_unchecked
FN:149,_RNvXs0_NtNtNtCs8RRi2RJs6bh_14vass_reach_lib9automaton3lsg4partNtB5_8LSGGraphINtB9_9AutomatonNtB9_13DeterministicE8get_node
FN:162,_RNvXs1_NtNtNtCs8RRi2RJs6bh_14vass_reach_lib9automaton3lsg4partNtB5_8LSGGraphINtB9_21ExplicitEdgeAutomatonNtB9_13DeterministicE10edge_count
FN:174,_RNvXs1_NtNtNtCs8RRi2RJs6bh_14vass_reach_lib9automaton3lsg4partNtB5_8LSGGraphINtB9_21ExplicitEdgeAutomatonNtB9_13DeterministicE14edge_endpoints
FN:170,_RNvXs1_NtNtNtCs8RRi2RJs6bh_14vass_reach_lib9automaton3lsg4partNtB5_8LSGGraphINtB9_21ExplicitEdgeAutomatonNtB9_13DeterministicE18get_edge_unchecked
FN:188,_RNvXs1_NtNtNtCs8RRi2RJs6bh_14vass_reach_lib9automaton3lsg4partNtB5_8LSGGraphINtB9_21ExplicitEdgeAutomatonNtB9_13DeterministicE21incoming_edge_indices
FN:182,_RNvXs1_NtNtNtCs8RRi2RJs6bh_14vass_reach_lib9automaton3lsg4partNtB5_8LSGGraphINtB9_21ExplicitEdgeAutomatonNtB9_13DeterministicE21outgoing_edge_indices
FN:194,_RNvXs1_NtNtNtCs8RRi2RJs6bh_14vass_reach_lib9automaton3lsg4partNtB5_8LSGGraphINtB9_21ExplicitEdgeAutomatonNtB9_13DeterministicE23connecting_edge_indices
FN:178,_RNvXs1_NtNtNtCs8RRi2RJs6bh_14vass_reach_lib9automaton3lsg4partNtB5_8LSGGraphINtB9_21ExplicitEdgeAutomatonNtB9_13DeterministicE24edge_endpoints_unchecked
FN:166,_RNvXs1_NtNtNtCs8RRi2RJs6bh_14vass_reach_lib9automaton3lsg4partNtB5_8LSGGraphINtB9_21ExplicitEdgeAutomatonNtB9_13DeterministicE8get_edge
FN:237,_RNvXs2_NtNtNtCs8RRi2RJs6bh_14vass_reach_lib9automaton3lsg4partNtB5_8LSGGraphINtB9_19ModifiableAutomatonNtB9_13DeterministicE11remove_edge
FN:233,_RNvXs2_NtNtNtCs8RRi2RJs6bh_14vass_reach_lib9automaton3lsg4partNtB5_8LSGGraphINtB9_19ModifiableAutomatonNtB9_13DeterministicE11remove_node
FN:210,_RNvXs2_NtNtNtCs8RRi2RJs6bh_14vass_reach_lib9automaton3lsg4partNtB5_8LSGGraphINtB9_19ModifiableAutomatonNtB9_13DeterministicE8add_edge
FN:206,_RNvXs2_NtNtNtCs8RRi2RJs6bh_14vass_reach_lib9automaton3lsg4partNtB5_8LSGGraphINtB9_19ModifiableAutomatonNtB9_13DeterministicE8add_node
FN:254,_RNvXs3_NtNtNtCs8RRi2RJs6bh_14vass_reach_lib9automaton3lsg4partNtB5_8LSGGraphINtB9_20InitializedAutomatonNtB9_13DeterministicE11get_initial
FN:258,_RNvXs3_NtNtNtCs8RRi2RJs6bh_14vass_reach_lib9automaton3lsg4partNtB5_8LSGGraphINtB9_20InitializedAutomatonNtB9_13DeterministicE12is_accepting
FN:264,_RNvXs4_NtNtNtCs8RRi2RJs6bh_14vass_reach_lib9automaton3lsg4partNtB5_8LSGGraphINtB9_25SingleFinalStateAutomatonNtB9_13DeterministicE9get_final
FN:268,_RNvXs4_NtNtNtCs8RRi2RJs6bh_14vass_reach_lib9automaton3lsg4partNtB5_8LSGGraphINtB9_25SingleFinalStateAutomatonNtB9_13DeterministicE9set_final
FN:296,_RNvXs8_NtNtNtCs8RRi2RJs6bh_14vass_reach_lib9automaton3lsg4partNtB5_7LSGPathINtNtCs7xuAoyMVi4A_4core7convert4FromINtNtB9_4path4PathNtNtNtB9_20implicit_cfg_product5state15MultiGraphStateNtNtNtB9_3cfg6update16CFGCounterUpdateEE4from
FN:136,_RNvXs_NtNtNtCs8RRi2RJs6bh_14vass_reach_lib9automaton3lsg4partNtB4_8LSGGraphNtB8_8Alphabet8alphabet
FNDA:2,_RNvMNtNtNtCs2hUxDLYgi0n_14vass_reach_lib9automaton3lsg4partNtB2_8LSGGraph11from_subset
FNDA:2,_RNvMNtNtNtCs2hUxDLYgi0n_14vass_reach_lib9automaton3lsg4partNtB2_8LSGGraph11product_end
FNDA:2,_RNvMNtNtNtCs2hUxDLYgi0n_14vass_reach_lib9automaton3lsg4partNtB2_8LSGGraph13product_start
FNDA:6,_RNvMNtNtNtCs2hUxDLYgi0n_14vass_reach_lib9automaton3lsg4partNtB2_8LSGGraph19map_node_to_product
FNDA:3,_RNvMNtNtNtCs2hUxDLYgi0n_14vass_reach_lib9automaton3lsg4partNtB2_8LSGGraph19map_path_to_product
FNDA:8,_RNvMNtNtNtCs2hUxDLYgi0n_14vass_reach_lib9automaton3lsg4partNtB2_8LSGGraph3new
FNDA:38,_RNvMs7_NtNtNtCs2hUxDLYgi0n_14vass_reach_lib9automaton3lsg4partNtB5_7LSGPath3new
FNDA:19,_RNvMs9_NtNtNtCs2hUxDLYgi0n_14vass_reach_lib9automaton3lsg4partNtB5_7LSGPart10iter_nodes
FNDA:0,_RNvMs9_NtNtNtCs2hUxDLYgi0n_14vass_reach_lib9automaton3lsg4partNtB5_7LSGPart11as_subgraph
FNDA:3,_RNvMs9_NtNtNtCs2hUxDLYgi0n_14vass_reach_lib9automaton3lsg4partNtB5_7LSGPart11is_subgraph
FNDA:8,_RNvMs9_NtNtNtCs2hUxDLYgi0n_14vass_reach_lib9automaton3lsg4partNtB5_7LSGPart11unwrap_path
FNDA:0,_RNvMs9_NtNtNtCs2hUxDLYgi0n_14vass_reach_lib9automaton3lsg4partNtB5_7LSGPart13contains_node
FNDA:3,_RNvMs9_NtNtNtCs2hUxDLYgi0n_14vass_reach_lib9automaton3lsg4partNtB5_7LSGPart15unwrap_subgraph
FNDA:0,_RNvMs9_NtNtNtCs2hUxDLYgi0n_14vass_reach_lib9automaton3lsg4partNtB5_7LSGPart20has_node_as_extremal
FNDA:27,_RNvMs9_NtNtNtCs2hUxDLYgi0n_14vass_reach_lib9automaton3lsg4partNtB5_7LSGPart3end
FNDA:0,_RNvMs9_NtNtNtCs2hUxDLYgi0n_14vass_reach_lib9automaton3lsg4partNtB5_7LSGPart4size
FNDA:49,_RNvMs9_NtNtNtCs2hUxDLYgi0n_14vass_reach_lib9automaton3lsg4partNtB5_7LSGPart5start
FNDA:0,_RNvMs9_NtNtNtCs2hUxDLYgi0n_14vass_reach_lib9automaton3lsg4partNtB5_7LSGPart7as_path
FNDA:8,_RNvMs9_NtNtNtCs2hUxDLYgi0n_14vass_reach_lib9automaton3lsg4partNtB5_7LSGPart7is_path
FNDA:10,_RNvXs0_NtNtNtCs2hUxDLYgi0n_14vass_reach_lib9automaton3lsg4partNtB5_8LSGGraphINtB9_9AutomatonNtB9_13DeterministicE10node_count
FNDA:4,_RNvXs0_NtNtNtCs2hUxDLYgi0n_14vass_reach_lib9automaton3lsg4partNtB5_8LSGGraphINtB9_9AutomatonNtB9_13DeterministicE18get_node_unchecked
FNDA:0,_RNvXs0_NtNtNtCs2hUxDLYgi0n_14vass_reach_lib9automaton3lsg4partNtB5_8LSGGraphINtB9_9AutomatonNtB9_13DeterministicE8get_node
FNDA:8,_RNvXs1_NtNtNtCs2hUxDLYgi0n_14vass_reach_lib9automaton3lsg4partNtB5_8LSGGraphINtB9_21ExplicitEdgeAutomatonNtB9_13DeterministicE10edge_count
FNDA:0,_RNvXs1_NtNtNtCs2hUxDLYgi0n_14vass_reach_lib9automaton3lsg4partNtB5_8LSGGraphINtB9_21ExplicitEdgeAutomatonNtB9_13DeterministicE14edge_endpoints
FNDA:11,_RNvXs1_NtNtNtCs2hUxDLYgi0n_14vass_reach_lib9automaton3lsg4partNtB5_8LSGGraphINtB9_21ExplicitEdgeAutomatonNtB9_13DeterministicE18get_edge_unchecked
FNDA:10,_RNvXs1_NtNtNtCs2hUxDLYgi0n_14vass_reach_lib9automaton3lsg4partNtB5_8LSGGraphINtB9_21ExplicitEdgeAutomatonNtB9_13DeterministicE21incoming_edge_indices
FNDA:21,_RNvXs1_NtNtNtCs2hUxDLYgi0n_14vass_reach_lib9automaton3lsg4partNtB5_8LSGGraphINtB9_21ExplicitEdgeAutomatonNtB9_13DeterministicE21outgoing_edge_indices
FNDA:0,_RNvXs1_NtNtNtCs2hUxDLYgi0n_14vass_reach_lib9automaton3lsg4partNtB5_8LSGGraphINtB9_21ExplicitEdgeAutomatonNtB9_13DeterministicE23connecting_edge_indices
FNDA:6,_RNvXs1_NtNtNtCs2hUxDLYgi0n_14vass_reach_lib9automaton3lsg4partNtB5_8LSGGraphINtB9_21ExplicitEdgeAutomatonNtB9_13DeterministicE24edge_endpoints_unchecked
FNDA:10,_RNvXs1_NtNtNtCs2hUxDLYgi0n_14vass_reach_lib9automaton3lsg4partNtB5_8LSGGraphINtB9_21ExplicitEdgeAutomatonNtB9_13DeterministicE8get_edge
FNDA:0,_RNvXs2_NtNtNtCs2hUxDLYgi0n_14vass_reach_lib9automaton3lsg4partNtB5_8LSGGraphINtB9_19ModifiableAutomatonNtB9_13DeterministicE11remove_edge
FNDA:0,_RNvXs2_NtNtNtCs2hUxDLYgi0n_14vass_reach_lib9automaton3lsg4partNtB5_8LSGGraphINtB9_19ModifiableAutomatonNtB9_13DeterministicE11remove_node
FNDA:0,_RNvXs2_NtNtNtCs2hUxDLYgi0n_14vass_reach_lib9automaton3lsg4partNtB5_8LSGGraphINtB9_19ModifiableAutomatonNtB9_13DeterministicE8add_edge
FNDA:0,_RNvXs2_NtNtNtCs2hUxDLYgi0n_14vass_reach_lib9automaton3lsg4partNtB5_8LSGGraphINtB9_19ModifiableAutomatonNtB9_13DeterministicE8add_node
FNDA:9,_RNvXs3_NtNtNtCs2hUxDLYgi0n_14vass_reach_lib9automaton3lsg4partNtB5_8LSGGraphINtB9_20InitializedAutomatonNtB9_13DeterministicE11get_initial
FNDA:3,_RNvXs3_NtNtNtCs2hUxDLYgi0n_14vass_reach_lib9automaton3lsg4partNtB5_8LSGGraphINtB9_20InitializedAutomatonNtB9_13DeterministicE12is_accepting
FNDA:0,_RNvXs4_NtNtNtCs2hUxDLYgi0n_14vass_reach_lib9automaton3lsg4partNtB5_8LSGGraphINtB9_25SingleFinalStateAutomatonNtB9_13DeterministicE9get_final
FNDA:0,_RNvXs4_NtNtNtCs2hUxDLYgi0n_14vass_reach_lib9automaton3lsg4partNtB5_8LSGGraphINtB9_25SingleFinalStateAutomatonNtB9_13DeterministicE9set_final
FNDA:38,_RNvXs8_NtNtNtCs2hUxDLYgi0n_14vass_reach_lib9automaton3lsg4partNtB5_7LSGPathINtNtCs7xuAoyMVi4A_4core7convert4FromINtNtB9_4path4PathNtNtNtB9_20implicit_cfg_product5state15MultiGraphStateNtNtNtB9_3cfg6update16CFGCounterUpdateEE4from
FNDA:0,_RNvXs_NtNtNtCs2hUxDLYgi0n_14vass_reach_lib9automaton3lsg4partNtB4_8LSGGraphNtB8_8Alphabet8alphabet
FNDA:0,_RINvMs9_NtNtNtCs2hUxDLYgi0n_14vass_reach_lib9automaton3lsg4partNtB6_7LSGPart11random_nodeNtNtNtCseaSD3gBw7sb_4rand4rngs3std6StdRngEBc_
FNDA:0,_RNCNvMs9_NtNtNtCs2hUxDLYgi0n_14vass_reach_lib9automaton3lsg4partNtB7_7LSGPart13contains_node0Bd_
FNDA:10,_RNCNvXs1_NtNtNtCs2hUxDLYgi0n_14vass_reach_lib9automaton3lsg4partNtB7_8LSGGraphINtBb_21ExplicitEdgeAutomatonNtBb_13DeterministicE21incoming_edge_indices0Bd_
FNDA:21,_RNCNvXs1_NtNtNtCs2hUxDLYgi0n_14vass_reach_lib9automaton3lsg4partNtB7_8LSGGraphINtBb_21ExplicitEdgeAutomatonNtBb_13DeterministicE21outgoing_edge_indices0Bd_
FNDA:0,_RNCNvXs2_NtNtNtCs2hUxDLYgi0n_14vass_reach_lib9automaton3lsg4partNtB7_8LSGGraphINtBb_19ModifiableAutomatonNtBb_13DeterministicE8add_edge0Bd_
FNDA:0,_RINvXs2_NtNtNtCs2hUxDLYgi0n_14vass_reach_lib9automaton3lsg4partNtB6_8LSGGraphINtBa_19ModifiableAutomatonNtBa_13DeterministicE12retain_nodespEBc_
FNDA:0,_RINvXs5_NtNtNtCs2hUxDLYgi0n_14vass_reach_lib9automaton3lsg4partNtB6_8LSGGraphNtBa_8Language7acceptspEBc_
FNDA:0,_RNCNvXs1_NtNtNtCs2hUxDLYgi0n_14vass_reach_lib9automaton3lsg4partNtB7_8LSGGraphINtBb_21ExplicitEdgeAutomatonNtBb_13DeterministicE23connecting_edge_indices0Bd_
FNDA:0,_RINvMs9_NtNtNtCs8RRi2RJs6bh_14vass_reach_lib9automaton3lsg4partNtB6_7LSGPart11random_nodepEBc_
FNDA:0,_RINvXs2_NtNtNtCs8RRi2RJs6bh_14vass_reach_lib9automaton3lsg4partNtB6_8LSGGraphINtBa_19ModifiableAutomatonNtBa_13DeterministicE12retain_nodespEBc_
FNDA:0,_RINvXs5_NtNtNtCs8RRi2RJs6bh_14vass_reach_lib9automaton3lsg4partNtB6_8LSGGraphNtBa_8Language7acceptspEBc_
FNDA:0,_RNCNvMs9_NtNtNtCs8RRi2RJs6bh_14vass_reach_lib9automaton3lsg4partNtB7_7LSGPart13contains_node0Bd_
FNDA:0,_RNCNvXs1_NtNtNtCs8RRi2RJs6bh_14vass_reach_lib9automaton3lsg4partNtB7_8LSGGraphINtBb_21ExplicitEdgeAutomatonNtBb_13DeterministicE21incoming_edge_indices0Bd_
FNDA:0,_RNCNvXs1_NtNtNtCs8RRi2RJs6bh_14vass_reach_lib9automaton3lsg4partNtB7_8LSGGraphINtBb_21ExplicitEdgeAutomatonNtBb_13DeterministicE21outgoing_edge_indices0Bd_
FNDA:0,_RNCNvXs1_NtNtNtCs8RRi2RJs6bh_14vass_reach_lib9automaton3lsg4partNtB7_8LSGGraphINtBb_21ExplicitEdgeAutomatonNtBb_13DeterministicE23connecting_edge_indices0Bd_
FNDA:0,_RNCNvXs2_NtNtNtCs8RRi2RJs6bh_14vass_reach_lib9automaton3lsg4partNtB7_8LSGGraphINtBb_19ModifiableAutomatonNtBb_13DeterministicE8add_edge0Bd_
FNDA:0,_RNvMNtNtNtCs8RRi2RJs6bh_14vass_reach_lib9automaton3lsg4partNtB2_8LSGGraph11from_subset
FNDA:0,_RNvMNtNtNtCs8RRi2RJs6bh_14vass_reach_lib9automaton3lsg4partNtB2_8LSGGraph11product_end
FNDA:0,_RNvMNtNtNtCs8RRi2RJs6bh_14vass_reach_lib9automaton3lsg4partNtB2_8LSGGraph13product_start
FNDA:0,_RNvMNtNtNtCs8RRi2RJs6bh_14vass_reach_lib9automaton3lsg4partNtB2_8LSGGraph19map_node_to_product
FNDA:0,_RNvMNtNtNtCs8RRi2RJs6bh_14vass_reach_lib9automaton3lsg4partNtB2_8LSGGraph19map_path_to_product
FNDA:0,_RNvMNtNtNtCs8RRi2RJs6bh_14vass_reach_lib9automaton3lsg4partNtB2_8LSGGraph3new
FNDA:0,_RNvMs7_NtNtNtCs8RRi2RJs6bh_14vass_reach_lib9automaton3lsg4partNtB5_7LSGPath3new
FNDA:0,_RNvMs9_NtNtNtCs8RRi2RJs6bh_14vass_reach_lib9automaton3lsg4partNtB5_7LSGPart10iter_nodes
FNDA:0,_RNvMs9_NtNtNtCs8RRi2RJs6bh_14vass_reach_lib9automaton3lsg4partNtB5_7LSGPart11as_subgraph
FNDA:0,_RNvMs9_NtNtNtCs8RRi2RJs6bh_14vass_reach_lib9automaton3lsg4partNtB5_7LSGPart11is_subgraph
FNDA:0,_RNvMs9_NtNtNtCs8RRi2RJs6bh_14vass_reach_lib9automaton3lsg4partNtB5_7LSGPart11unwrap_path
FNDA:0,_RNvMs9_NtNtNtCs8RRi2RJs6bh_14vass_reach_lib9automaton3lsg4partNtB5_7LSGPart13contains_node
FNDA:0,_RNvMs9_NtNtNtCs8RRi2RJs6bh_14vass_reach_lib9automaton3lsg4partNtB5_7LSGPart15unwrap_subgraph
FNDA:0,_RNvMs9_NtNtNtCs8RRi2RJs6bh_14vass_reach_lib9automaton3lsg4partNtB5_7LSGPart20has_node_as_extremal
FNDA:0,_RNvMs9_NtNtNtCs8RRi2RJs6bh_14vass_reach_lib9automaton3lsg4partNtB5_7LSGPart3end
FNDA:0,_RNvMs9_NtNtNtCs8RRi2RJs6bh_14vass_reach_lib9automaton3lsg4partNtB5_7LSGPart4size
FNDA:0,_RNvMs9_NtNtNtCs8RRi2RJs6bh_14vass_reach_lib9automaton3lsg4partNtB5_7LSGPart5start
FNDA:0,_RNvMs9_NtNtNtCs8RRi2RJs6bh_14vass_reach_lib9automaton3lsg4partNtB5_7LSGPart7as_path
FNDA:0,_RNvMs9_NtNtNtCs8RRi2RJs6bh_14vass_reach_lib9automaton3lsg4partNtB5_7LSGPart7is_path
FNDA:0,_RNvXs0_NtNtNtCs8RRi2RJs6bh_14vass_reach_lib9automaton3lsg4partNtB5_8LSGGraphINtB9_9AutomatonNtB9_13DeterministicE10node_count
FNDA:0,_RNvXs0_NtNtNtCs8RRi2RJs6bh_14vass_reach_lib9automaton3lsg4partNtB5_8LSGGraphINtB9_9AutomatonNtB9_13DeterministicE18get_node_unchecked
FNDA:0,_RNvXs0_NtNtNtCs8RRi2RJs6bh_14vass_reach_lib9automaton3lsg4partNtB5_8LSGGraphINtB9_9AutomatonNtB9_13DeterministicE8get_node
FNDA:0,_RNvXs1_NtNtNtCs8RRi2RJs6bh_14vass_reach_lib9automaton3lsg4partNtB5_8LSGGraphINtB9_21ExplicitEdgeAutomatonNtB9_13DeterministicE10edge_count
FNDA:0,_RNvXs1_NtNtNtCs8RRi2RJs6bh_14vass_reach_lib9automaton3lsg4partNtB5_8LSGGraphINtB9_21ExplicitEdgeAutomatonNtB9_13DeterministicE14edge_endpoints
FNDA:0,_RNvXs1_NtNtNtCs8RRi2RJs6bh_14vass_reach_lib9automaton3lsg4partNtB5_8LSGGraphINtB9_21ExplicitEdgeAutomatonNtB9_13DeterministicE18get_edge_unchecked
FNDA:0,_RNvXs1_NtNtNtCs8RRi2RJs6bh_14vass_reach_lib9automaton3lsg4partNtB5_8LSGGraphINtB9_21ExplicitEdgeAutomatonNtB9_13DeterministicE21incoming_edge_indices
FNDA:0,_RNvXs1_NtNtNtCs8RRi2RJs6bh_14vass_reach_lib9automaton3lsg4partNtB5_8LSGGraphINtB9_21ExplicitEdgeAutomatonNtB9_13DeterministicE21outgoing_edge_indices
FNDA:0,_RNvXs1_NtNtNtCs8RRi2RJs6bh_14vass_reach_lib9automaton3lsg4partNtB5_8LSGGraphINtB9_21ExplicitEdgeAutomatonNtB9_13DeterministicE23connecting_edge_indices
FNDA:0,_RNvXs1_NtNtNtCs8RRi2RJs6bh_14vass_reach_lib9automaton3lsg4partNtB5_8LSGGraphINtB9_21ExplicitEdgeAutomatonNtB9_13DeterministicE24edge_endpoints_unchecked
FNDA:0,_RNvXs1_NtNtNtCs8RRi2RJs6bh_14vass_reach_lib9automaton3lsg4partNtB5_8LSGGraphINtB9_21ExplicitEdgeAutomatonNtB9_13DeterministicE8get_edge
FNDA:0,_RNvXs2_NtNtNtCs8RRi2RJs6bh_14vass_reach_lib9automaton3lsg4partNtB5_8LSGGraphINtB9_19ModifiableAutomatonNtB9_13DeterministicE11remove_edge
FNDA:0,_RNvXs2_NtNtNtCs8RRi2RJs6bh_14vass_reach_lib9automaton3lsg4partNtB5_8LSGGraphINtB9_19ModifiableAutomatonNtB9_13DeterministicE11remove_node
FNDA:0,_RNvXs2_NtNtNtCs8RRi2RJs6bh_14vass_reach_lib9automaton3lsg4partNtB5_8LSGGraphINtB9_19ModifiableAutomatonNtB9_13DeterministicE8add_edge
FNDA:0,_RNvXs2_NtNtNtCs8RRi2RJs6bh_14vass_reach_lib9automaton3lsg4partNtB5_8LSGGraphINtB9_19ModifiableAutomatonNtB9_13DeterministicE8add_node
FNDA:0,_RNvXs3_NtNtNtCs8RRi2RJs6bh_14vass_reach_lib9automaton3lsg4partNtB5_8LSGGraphINtB9_20InitializedAutomatonNtB9_13DeterministicE11get_initial
FNDA:0,_RNvXs3_NtNtNtCs8RRi2RJs6bh_14vass_reach_lib9automaton3lsg4partNtB5_8LSGGraphINtB9_20InitializedAutomatonNtB9_13DeterministicE12is_accepting
FNDA:0,_RNvXs4_NtNtNtCs8RRi2RJs6bh_14vass_reach_lib9automaton3lsg4partNtB5_8LSGGraphINtB9_25SingleFinalStateAutomatonNtB9_13DeterministicE9get_final
FNDA:0,_RNvXs4_NtNtNtCs8RRi2RJs6bh_14vass_reach_lib9automaton3lsg4partNtB5_8LSGGraphINtB9_25SingleFinalStateAutomatonNtB9_13DeterministicE9set_final
FNDA:0,_RNvXs8_NtNtNtCs8RRi2RJs6bh_14vass_reach_lib9automaton3lsg4partNtB5_7LSGPathINtNtCs7xuAoyMVi4A_4core7convert4FromINtNtB9_4path4PathNtNtNtB9_20implicit_cfg_product5state15MultiGraphStateNtNtNtB9_3cfg6update16CFGCounterUpdateEE4from
FNDA:0,_RNvXs_NtNtNtCs8RRi2RJs6bh_14vass_reach_lib9automaton3lsg4partNtB4_8LSGGraphNtB8_8Alphabet8alphabet
FNF:48
FNH:27
DA:32,8
DA:33,8
DA:34,8
DA:35,8
DA:36,8
DA:37,8
DA:38,8
DA:39,8
DA:43,8
DA:44,8
DA:49,8
DA:50,8
DA:51,8
DA:52,8
DA:53,8
DA:54,8
DA:55,8
DA:60,2
DA:61,2
DA:62,2
DA:63,2
DA:64,2
DA:65,2
DA:66,2
DA:67,2
DA:71,2
DA:72,2
DA:77,2
DA:78,2
DA:81,4
DA:82,4
DA:83,4
DA:84,4
DA:87,4
DA:88,4
DA:89,8
DA:90,8
DA:91,8
DA:92,6
DA:93,4
DA:94,4
DA:95,4
DA:96,4
DA:100,2
DA:101,2
DA:102,2
DA:103,2
DA:104,2
DA:105,2
DA:106,2
DA:108,2
DA:109,2
DA:110,2
DA:112,2
DA:113,2
DA:114,2
DA:117,3
DA:118,3
DA:120,3
DA:121,3
DA:122,3
DA:123,3
DA:125,3
DA:126,3
DA:128,6
DA:129,6
DA:130,6
DA:136,0
DA:137,0
DA:138,0
DA:145,10
DA:146,10
DA:147,10
DA:149,0
DA:150,0
DA:151,0
DA:153,4
DA:154,4
DA:155,4
DA:162,8
DA:163,8
DA:164,8
DA:166,10
DA:167,10
DA:168,10
DA:170,11
DA:171,11
DA:172,11
DA:174,0
DA:175,0
DA:176,0
DA:178,6
DA:179,6
DA:180,6
DA:182,21
DA:183,21
DA:184,21
DA:185,21
DA:186,21
DA:188,10
DA:189,10
DA:190,10
DA:191,10
DA:192,10
DA:194,0
DA:195,0
DA:196,0
DA:197,0
DA:198,0
DA:199,0
DA:200,0
DA:201,0
DA:202,0
DA:206,0
DA:207,0
DA:208,0
DA:210,0
DA:211,0
DA:212,0
DA:213,0
DA:214,0
DA:215,0
DA:216,0
DA:217,0
DA:218,0
DA:219,0
DA:220,0
DA:221,0
DA:222,0
DA:223,0
DA:227,0
DA:228,0
DA:230,0
DA:231,0
DA:233,0
DA:234,0
DA:235,0
DA:237,0
DA:238,0
DA:239,0
DA:241,0
DA:242,0
DA:243,0
DA:245,0
DA:246,0
DA:247,0
DA:248,0
DA:250,0
DA:254,9
DA:255,9
DA:256,9
DA:258,3
DA:259,3
DA:260,3
DA:264,0
DA:265,0
DA:266,0
DA:268,0
DA:269,0
DA:270,0
DA:274,0
DA:275,0
DA:276,0
DA:278,0
DA:290,38
DA:291,38
DA:292,38
DA:296,38
DA:297,38
DA:298,38
DA:310,0
DA:311,0
DA:312,0
DA:313,0
DA:315,0
DA:318,0
DA:319,0
DA:320,0
DA:321,0
DA:323,0
DA:324,0
DA:327,0
DA:331,19
DA:332,19
DA:333,19
DA:334,19
DA:335,19
DA:336,2
DA:337,17
DA:339,19
DA:343,49
DA:344,49
DA:345,2
DA:346,47
DA:348,49
DA:352,27
DA:353,27
DA:354,2
DA:355,25
DA:357,27
DA:359,0
DA:360,0
DA:361,0
DA:362,0
DA:363,0
DA:364,0
DA:365,0
DA:366,0
DA:367,0
DA:368,0
DA:370,0
DA:371,0
DA:372,0
DA:373,0
DA:376,0
DA:378,0
DA:379,0
DA:380,0
DA:381,0
DA:383,0
DA:385,8
DA:386,8
DA:387,8
DA:389,3
DA:390,3
DA:391,3
DA:393,0
DA:394,0
DA:395,0
DA:396,0
DA:398,0
DA:400,0
DA:401,0
DA:402,0
DA:403,0
DA:405,0
DA:407,8
DA:408,8
DA:409,8
DA:410,0
DA:412,8
DA:414,3
DA:415,3
DA:416,3
DA:417,0
DA:419,3
BRF:0
BRH:0
LF:251
LH:141
end_of_record
SF:/home/lemon/src/rust-automata/packages/vass-reach-lib/src/automaton/ltc/mod.rs
FN:160,_RNCNvMNtNtCs2hUxDLYgi0n_14vass_reach_lib9automaton3ltcNtB4_3LTC11reach_inner0B8_
FN:171,_RNCNvMNtNtCs2hUxDLYgi0n_14vass_reach_lib9automaton3ltcNtB4_3LTC11reach_inners_0B8_
FN:148,_RNvMNtNtCs2hUxDLYgi0n_14vass_reach_lib9automaton3ltcNtB2_3LTC11reach_inner
FN:72,_RNvMNtNtCs2hUxDLYgi0n_14vass_reach_lib9automaton3ltcNtB2_3LTC14add_transition
FN:118,_RNvMNtNtCs2hUxDLYgi0n_14vass_reach_lib9automaton3ltcNtB2_3LTC15reach_n_relaxed
FN:94,_RNvMNtNtCs2hUxDLYgi0n_14vass_reach_lib9automaton3ltcNtB2_3LTC3add
FN:38,_RNvMNtNtCs2hUxDLYgi0n_14vass_reach_lib9automaton3ltcNtB2_3LTC3new
FN:126,_RNvMNtNtCs2hUxDLYgi0n_14vass_reach_lib9automaton3ltcNtB2_3LTC5reach
FN:110,_RNvMNtNtCs2hUxDLYgi0n_14vass_reach_lib9automaton3ltcNtB2_3LTC7reach_n
FN:100,_RNvMNtNtCs2hUxDLYgi0n_14vass_reach_lib9automaton3ltcNtB2_3LTC7reach_z
FN:45,_RNvMNtNtCs2hUxDLYgi0n_14vass_reach_lib9automaton3ltcNtB2_3LTC8add_loop
FN:303,_RNvMs_NtNtCs2hUxDLYgi0n_14vass_reach_lib9automaton3ltcNtB4_15LTCSolverResult10is_failure
FN:299,_RNvMs_NtNtCs2hUxDLYgi0n_14vass_reach_lib9automaton3ltcNtB4_15LTCSolverResult10is_success
FN:295,_RNvMs_NtNtCs2hUxDLYgi0n_14vass_reach_lib9automaton3ltcNtB4_15LTCSolverResult3new
FN:160,_RNCNvMNtNtCs8RRi2RJs6bh_14vass_reach_lib9automaton3ltcNtB4_3LTC11reach_inner0B8_
FN:171,_RNCNvMNtNtCs8RRi2RJs6bh_14vass_reach_lib9automaton3ltcNtB4_3LTC11reach_inners_0B8_
FN:148,_RNvMNtNtCs8RRi2RJs6bh_14vass_reach_lib9automaton3ltcNtB2_3LTC11reach_inner
FN:72,_RNvMNtNtCs8RRi2RJs6bh_14vass_reach_lib9automaton3ltcNtB2_3LTC14add_transition
FN:118,_RNvMNtNtCs8RRi2RJs6bh_14vass_reach_lib9automaton3ltcNtB2_3LTC15reach_n_relaxed
FN:94,_RNvMNtNtCs8RRi2RJs6bh_14vass_reach_lib9automaton3ltcNtB2_3LTC3add
FN:38,_RNvMNtNtCs8RRi2RJs6bh_14vass_reach_lib9automaton3ltcNtB2_3LTC3new
FN:126,_RNvMNtNtCs8RRi2RJs6bh_14vass_reach_lib9automaton3ltcNtB2_3LTC5reach
FN:110,_RNvMNtNtCs8RRi2RJs6bh_14vass_reach_lib9automaton3ltcNtB2_3LTC7reach_n
FN:100,_RNvMNtNtCs8RRi2RJs6bh_14vass_reach_lib9automaton3ltcNtB2_3LTC7reach_z
FN:45,_RNvMNtNtCs8RRi2RJs6bh_14vass_reach_lib9automaton3ltcNtB2_3LTC8add_loop
FN:303,_RNvMs_NtNtCs8RRi2RJs6bh_14vass_reach_lib9automaton3ltcNtB4_15LTCSolverResult10is_failure
FN:299,_RNvMs_NtNtCs8RRi2RJs6bh_14vass_reach_lib9automaton3ltcNtB4_15LTCSolverResult10is_success
FN:295,_RNvMs_NtNtCs8RRi2RJs6bh_14vass_reach_lib9automaton3ltcNtB4_15LTCSolverResult3new
FNDA:16,_RNCNvMNtNtCs2hUxDLYgi0n_14vass_reach_lib9automaton3ltcNtB4_3LTC11reach_inner0B8_
FNDA:8,_RNCNvMNtNtCs2hUxDLYgi0n_14vass_reach_lib9automaton3ltcNtB4_3LTC11reach_inners_0B8_
FNDA:10,_RNvMNtNtCs2hUxDLYgi0n_14vass_reach_lib9automaton3ltcNtB2_3LTC11reach_inner
FNDA:5,_RNvMNtNtCs2hUxDLYgi0n_14vass_reach_lib9automaton3ltcNtB2_3LTC14add_transition
FNDA:0,_RNvMNtNtCs2hUxDLYgi0n_14vass_reach_lib9automaton3ltcNtB2_3LTC15reach_n_relaxed
FNDA:0,_RNvMNtNtCs2hUxDLYgi0n_14vass_reach_lib9automaton3ltcNtB2_3LTC3add
FNDA:5,_RNvMNtNtCs2hUxDLYgi0n_14vass_reach_lib9automaton3ltcNtB2_3LTC3new
FNDA:10,_RNvMNtNtCs2hUxDLYgi0n_14vass_reach_lib9automaton3ltcNtB2_3LTC5reach
FNDA:5,_RNvMNtNtCs2hUxDLYgi0n_14vass_reach_lib9automaton3ltcNtB2_3LTC7reach_n
FNDA:5,_RNvMNtNtCs2hUxDLYgi0n_14vass_reach_lib9automaton3ltcNtB2_3LTC7reach_z
FNDA:4,_RNvMNtNtCs2hUxDLYgi0n_14vass_reach_lib9automaton3ltcNtB2_3LTC8add_loop
FNDA:0,_RNvMs_NtNtCs2hUxDLYgi0n_14vass_reach_lib9automaton3ltcNtB4_15LTCSolverResult10is_failure
FNDA:0,_RNvMs_NtNtCs2hUxDLYgi0n_14vass_reach_lib9automaton3ltcNtB4_15LTCSolverResult10is_success
FNDA:10,_RNvMs_NtNtCs2hUxDLYgi0n_14vass_reach_lib9automaton3ltcNtB4_15LTCSolverResult3new
FNDA:0,_RNCNvMNtNtCs8RRi2RJs6bh_14vass_reach_lib9automaton3ltcNtB4_3LTC11reach_inner0B8_
FNDA:0,_RNCNvMNtNtCs8RRi2RJs6bh_14vass_reach_lib9automaton3ltcNtB4_3LTC11reach_inners_0B8_
FNDA:0,_RNvMNtNtCs8RRi2RJs6bh_14vass_reach_lib9automaton3ltcNtB2_3LTC11reach_inner
FNDA:0,_RNvMNtNtCs8RRi2RJs6bh_14vass_reach_lib9automaton3ltcNtB2_3LTC14add_transition
FNDA:0,_RNvMNtNtCs8RRi2RJs6bh_14vass_reach_lib9automaton3ltcNtB2_3LTC15reach_n_relaxed
FNDA:0,_RNvMNtNtCs8RRi2RJs6bh_14vass_reach_lib9automaton3ltcNtB2_3LTC3add
FNDA:0,_RNvMNtNtCs8RRi2RJs6bh_14vass_reach_lib9automaton3ltcNtB2_3LTC3new
FNDA:0,_RNvMNtNtCs8RRi2RJs6bh_14vass_reach_lib9automaton3ltcNtB2_3LTC5reach
FNDA:0,_RNvMNtNtCs8RRi2RJs6bh_14vass_reach_lib9automaton3ltcNtB2_3LTC7reach_n
FNDA:0,_RNvMNtNtCs8RRi2RJs6bh_14vass_reach_lib9automaton3ltcNtB2_3LTC7reach_z
FNDA:0,_RNvMNtNtCs8RRi2RJs6bh_14vass_reach_lib9automaton3ltcNtB2_3LTC8add_loop
FNDA:0,_RNvMs_NtNtCs8RRi2RJs6bh_14vass_reach_lib9automaton3ltcNtB4_15LTCSolverResult10is_failure
FNDA:0,_RNvMs_NtNtCs8RRi2RJs6bh_14vass_reach_lib9automaton3ltcNtB4_15LTCSolverResult10is_success
FNDA:0,_RNvMs_NtNtCs8RRi2RJs6bh_14vass_reach_lib9automaton3ltcNtB4_15LTCSolverResult3new
FNF:14
FNH:10
DA:38,5
DA:39,5
DA:40,5
DA:41,5
DA:42,5
DA:43,5
DA:45,4
DA:46,4
DA:47,4
DA:51,4
DA:52,4
DA:61,4
DA:62,0
DA:63,0
DA:64,0
DA:65,4
DA:66,4
DA:67,4
DA:68,4
DA:70,4
DA:72,5
DA:73,5
DA:74,5
DA:75,5
DA:76,5
DA:77,5
DA:78,5
DA:82,5
DA:83,5
DA:88,5
DA:89,5
DA:90,5
DA:91,5
DA:92,5
DA:94,0
DA:95,0
DA:96,0
DA:100,5
DA:101,5
DA:102,5
DA:103,5
DA:104,5
DA:105,5
DA:106,5
DA:110,5
DA:111,5
DA:112,5
DA:113,5
DA:114,5
DA:115,5
DA:116,5
DA:118,0
DA:119,0
DA:120,0
DA:121,0
DA:122,0
DA:123,0
DA:124,0
DA:126,10
DA:127,10
DA:128,10
DA:129,10
DA:130,10
DA:131,10
DA:132,10
DA:133,10
DA:135,10
DA:137,10
DA:138,10
DA:139,10
DA:140,10
DA:141,10
DA:142,10
DA:145,10
DA:146,10
DA:148,10
DA:149,10
DA:150,10
DA:151,10
DA:152,10
DA:153,10
DA:154,10
DA:155,10
DA:156,10
DA:158,10
DA:159,10
DA:160,16
DA:161,10
DA:163,10
DA:165,18
DA:166,18
DA:167,8
DA:168,8
DA:169,8
DA:170,8
DA:171,8
DA:172,8
DA:173,8
DA:174,8
DA:175,8
DA:177,12
DA:178,12
DA:179,6
DA:180,6
DA:181,6
DA:182,6
DA:183,6
DA:184,6
DA:185,6
DA:186,6
DA:187,6
DA:188,6
DA:189,6
DA:190,6
DA:191,6
DA:192,6
DA:193,6
DA:194,6
DA:195,6
DA:196,6
DA:197,6
DA:199,0
DA:200,0
DA:202,0
DA:203,0
DA:204,0
DA:205,0
DA:207,0
DA:209,0
DA:210,0
DA:212,0
DA:213,0
DA:214,0
DA:215,0
DA:216,0
DA:217,0
DA:218,0
DA:219,0
DA:222,0
DA:223,0
DA:225,0
DA:226,0
DA:229,0
DA:230,0
DA:232,0
DA:233,0
DA:235,0
DA:236,0
DA:237,0
DA:238,0
DA:239,0
DA:240,0
DA:241,0
DA:244,6
DA:245,6
DA:246,6
DA:247,6
DA:248,6
DA:249,6
DA:250,6
DA:254,8
DA:256,10
DA:259,20
DA:260,20
DA:264,20
DA:265,10
DA:266,10
DA:268,20
DA:274,16
DA:275,16
DA:276,16
DA:280,10
DA:281,5
DA:282,5
DA:283,0
DA:285,10
DA:295,10
DA:296,10
DA:297,10
DA:299,0
DA:300,0
DA:301,0
DA:303,0
DA:304,0
DA:305,0
BRF:0
BRH:0
LF:187
LH:135
end_of_record
SF:/home/lemon/src/rust-automata/packages/vass-reach-lib/src/automaton/ltc/translation.rs
FN:37,_RNCNvMNtNtNtCs2hUxDLYgi0n_14vass_reach_lib9automaton3ltc11translationINtB4_21LTCTranslationElementNtNtCsijRReng013a_8petgraph10graph_impl9NodeIndexE14to_ltc_element0Ba_
FN:235,_RNCNvXs0_NtNtNtCs2hUxDLYgi0n_14vass_reach_lib9automaton3ltc11translationINtB7_14LTCTranslationNtNtCsijRReng013a_8petgraph10graph_impl9NodeIndexEINtNtCs7xuAoyMVi4A_4core7convert4FromRINtNtBb_4path4PathB1u_NtNtNtBb_3cfg6update16CFGCounterUpdateEE4from0Bd_
FN:27,_RNvMNtNtNtCs2hUxDLYgi0n_14vass_reach_lib9automaton3ltc11translationINtB2_21LTCTranslationElementNtNtCsijRReng013a_8petgraph10graph_impl9NodeIndexE14to_ltc_elementB8_
FN:130,_RNvMs_NtNtNtCs2hUxDLYgi0n_14vass_reach_lib9automaton3ltc11translationINtB4_14LTCTranslationNtNtCsijRReng013a_8petgraph10graph_impl9NodeIndexE6to_dfaBa_
FN:192,_RNvMs_NtNtNtCs2hUxDLYgi0n_14vass_reach_lib9automaton3ltc11translationINtB4_14LTCTranslationNtNtCsijRReng013a_8petgraph10graph_impl9NodeIndexE6to_ltcBa_
FN:212,_RNvXs0_NtNtNtCs2hUxDLYgi0n_14vass_reach_lib9automaton3ltc11translationINtB5_14LTCTranslationNtNtCsijRReng013a_8petgraph10graph_impl9NodeIndexEINtNtCs7xuAoyMVi4A_4core7convert4FromRINtNtB9_4path4PathB1s_NtNtNtB9_3cfg6update16CFGCounterUpdateEE4fromBb_
FN:281,_RNvXs1_NtNtNtCs2hUxDLYgi0n_14vass_reach_lib9automaton3ltc11translationINtB5_14LTCTranslationNtNtCsijRReng013a_8petgraph10graph_impl9NodeIndexEINtNtCs7xuAoyMVi4A_4core7convert4FromINtNtB9_4path4PathB1s_NtNtNtB9_3cfg6update16CFGCounterUpdateEE4fromBb_
FN:60,_RNCNvMNtNtNtCs2hUxDLYgi0n_14vass_reach_lib9automaton3ltc11translationINtB4_21LTCTranslationElementpE15to_fancy_string0Ba_
FN:205,_RNCNvMs_NtNtNtCs2hUxDLYgi0n_14vass_reach_lib9automaton3ltc11translationINtB6_14LTCTranslationpE15to_fancy_string0Bc_
FN:68,_RNvMNtNtNtCs2hUxDLYgi0n_14vass_reach_lib9automaton3ltc11translationINtB2_21LTCTranslationElementpE11unwrap_pathB8_
FN:75,_RNvMNtNtNtCs2hUxDLYgi0n_14vass_reach_lib9automaton3ltc11translationINtB2_21LTCTranslationElementpE12unwrap_loopsB8_
FN:50,_RNvMNtNtNtCs2hUxDLYgi0n_14vass_reach_lib9automaton3ltc11translationINtB2_21LTCTranslationElementpE15to_fancy_stringB8_
FN:202,_RNvMs_NtNtNtCs2hUxDLYgi0n_14vass_reach_lib9automaton3ltc11translationINtB4_14LTCTranslationpE15to_fancy_stringBa_
FN:89,_RNvMs_NtNtNtCs2hUxDLYgi0n_14vass_reach_lib9automaton3ltc11translationINtB4_14LTCTranslationpE3newBa_
FN:293,_RNvXININtNtNtCs2hUxDLYgi0n_14vass_reach_lib9automaton3ltc11translations3_0pEINtB5_14LTCTranslationpENtNtCs7xuAoyMVi4A_4core7default7Default7defaultBb_
FN:287,_RNvMs2_NtNtNtCs2hUxDLYgi0n_14vass_reach_lib9automaton3ltc11translationINtB5_14LTCTranslationNtNtCsijRReng013a_8petgraph10graph_impl9NodeIndexE21from_multi_graph_path
FN:37,_RNCNvMNtNtNtCs8RRi2RJs6bh_14vass_reach_lib9automaton3ltc11translationINtB4_21LTCTranslationElementpE14to_ltc_element0Ba_
FN:60,_RNCNvMNtNtNtCs8RRi2RJs6bh_14vass_reach_lib9automaton3ltc11translationINtB4_21LTCTranslationElementpE15to_fancy_string0Ba_
FN:205,_RNCNvMs_NtNtNtCs8RRi2RJs6bh_14vass_reach_lib9automaton3ltc11translationINtB6_14LTCTranslationpE15to_fancy_string0Bc_
FN:235,_RNCNvXININtNtNtCs8RRi2RJs6bh_14vass_reach_lib9automaton3ltc11translations0_0pEINtB7_14LTCTranslationpEINtNtCs7xuAoyMVi4A_4core7convert4FromRINtNtBb_4path4PathpNtNtNtBb_3cfg6update16CFGCounterUpdateEE4from0Bd_
FN:68,_RNvMNtNtNtCs8RRi2RJs6bh_14vass_reach_lib9automaton3ltc11translationINtB2_21LTCTranslationElementpE11unwrap_pathB8_
FN:75,_RNvMNtNtNtCs8RRi2RJs6bh_14vass_reach_lib9automaton3ltc11translationINtB2_21LTCTranslationElementpE12unwrap_loopsB8_
FN:27,_RNvMNtNtNtCs8RRi2RJs6bh_14vass_reach_lib9automaton3ltc11translationINtB2_21LTCTranslationElementpE14to_ltc_elementB8_
FN:50,_RNvMNtNtNtCs8RRi2RJs6bh_14vass_reach_lib9automaton3ltc11translationINtB2_21LTCTranslationElementpE15to_fancy_stringB8_
FN:287,_RNvMs2_NtNtNtCs8RRi2RJs6bh_14vass_reach_lib9automaton3ltc11translationINtB5_14LTCTranslationNtNtCsijRReng013a_8petgraph10graph_impl9NodeIndexE21from_multi_graph_path
FN:202,_RNvMs_NtNtNtCs8RRi2RJs6bh_14vass_reach_lib9automaton3ltc11translationINtB4_14LTCTranslationpE15to_fancy_stringBa_
FN:89,_RNvMs_NtNtNtCs8RRi2RJs6bh_14vass_reach_lib9automaton3ltc11translationINtB4_14LTCTranslationpE3newBa_
FN:130,_RNvMs_NtNtNtCs8RRi2RJs6bh_14vass_reach_lib9automaton3ltc11translationINtB4_14LTCTranslationpE6to_dfaBa_
FN:192,_RNvMs_NtNtNtCs8RRi2RJs6bh_14vass_reach_lib9automaton3ltc11translationINtB4_14LTCTranslationpE6to_ltcBa_
FN:212,_RNvXININtNtNtCs8RRi2RJs6bh_14vass_reach_lib9automaton3ltc11translations0_0pEINtB5_14LTCTranslationpEINtNtCs7xuAoyMVi4A_4core7convert4FromRINtNtB9_4path4PathpNtNtNtB9_3cfg6update16CFGCounterUpdateEE4fromBb_
FN:281,_RNvXININtNtNtCs8RRi2RJs6bh_14vass_reach_lib9automaton3ltc11translations1_0pEINtB5_14LTCTranslationpEINtNtCs7xuAoyMVi4A_4core7convert4FromINtNtB9_4path4PathpNtNtNtB9_3cfg6update16CFGCounterUpdateEE4fromBb_
FN:293,_RNvXININtNtNtCs8RRi2RJs6bh_14vass_reach_lib9automaton3ltc11translations3_0pEINtB5_14LTCTranslationpENtNtCs7xuAoyMVi4A_4core7default7Default7defaultBb_
FNDA:0,_RNCNvMNtNtNtCs2hUxDLYgi0n_14vass_reach_lib9automaton3ltc11translationINtB4_21LTCTranslationElementNtNtCsijRReng013a_8petgraph10graph_impl9NodeIndexE14to_ltc_element0Ba_
FNDA:366,_RNCNvXs0_NtNtNtCs2hUxDLYgi0n_14vass_reach_lib9automaton3ltc11translationINtB7_14LTCTranslationNtNtCsijRReng013a_8petgraph10graph_impl9NodeIndexEINtNtCs7xuAoyMVi4A_4core7convert4FromRINtNtBb_4path4PathB1u_NtNtNtBb_3cfg6update16CFGCounterUpdateEE4from0Bd_
FNDA:0,_RNvMNtNtNtCs2hUxDLYgi0n_14vass_reach_lib9automaton3ltc11translationINtB2_21LTCTranslationElementNtNtCsijRReng013a_8petgraph10graph_impl9NodeIndexE14to_ltc_elementB8_
FNDA:2,_RNvMs_NtNtNtCs2hUxDLYgi0n_14vass_reach_lib9automaton3ltc11translationINtB4_14LTCTranslationNtNtCsijRReng013a_8petgraph10graph_impl9NodeIndexE6to_dfaBa_
FNDA:0,_RNvMs_NtNtNtCs2hUxDLYgi0n_14vass_reach_lib9automaton3ltc11translationINtB4_14LTCTranslationNtNtCsijRReng013a_8petgraph10graph_impl9NodeIndexE6to_ltcBa_
FNDA:2,_RNvXs0_NtNtNtCs2hUxDLYgi0n_14vass_reach_lib9automaton3ltc11translationINtB5_14LTCTranslationNtNtCsijRReng013a_8petgraph10graph_impl9NodeIndexEINtNtCs7xuAoyMVi4A_4core7convert4FromRINtNtB9_4path4PathB1s_NtNtNtB9_3cfg6update16CFGCounterUpdateEE4fromBb_
FNDA:0,_RNvXs1_NtNtNtCs2hUxDLYgi0n_14vass_reach_lib9automaton3ltc11translationINtB5_14LTCTranslationNtNtCsijRReng013a_8petgraph10graph_impl9NodeIndexEINtNtCs7xuAoyMVi4A_4core7convert4FromINtNtB9_4path4PathB1s_NtNtNtB9_3cfg6update16CFGCounterUpdateEE4fromBb_
FNDA:0,_RNCNvMNtNtNtCs2hUxDLYgi0n_14vass_reach_lib9automaton3ltc11translationINtB4_21LTCTranslationElementpE15to_fancy_string0Ba_
FNDA:0,_RNCNvMs_NtNtNtCs2hUxDLYgi0n_14vass_reach_lib9automaton3ltc11translationINtB6_14LTCTranslationpE15to_fancy_string0Bc_
FNDA:0,_RNvMNtNtNtCs2hUxDLYgi0n_14vass_reach_lib9automaton3ltc11translationINtB2_21LTCTranslationElementpE11unwrap_pathB8_
FNDA:0,_RNvMNtNtNtCs2hUxDLYgi0n_14vass_reach_lib9automaton3ltc11translationINtB2_21LTCTranslationElementpE12unwrap_loopsB8_
FNDA:0,_RNvMNtNtNtCs2hUxDLYgi0n_14vass_reach_lib9automaton3ltc11translationINtB2_21LTCTranslationElementpE15to_fancy_stringB8_
FNDA:0,_RNvMs_NtNtNtCs2hUxDLYgi0n_14vass_reach_lib9automaton3ltc11translationINtB4_14LTCTranslationpE15to_fancy_stringBa_
FNDA:0,_RNvMs_NtNtNtCs2hUxDLYgi0n_14vass_reach_lib9automaton3ltc11translationINtB4_14LTCTranslationpE3newBa_
FNDA:0,_RNvXININtNtNtCs2hUxDLYgi0n_14vass_reach_lib9automaton3ltc11translations3_0pEINtB5_14LTCTranslationpENtNtCs7xuAoyMVi4A_4core7default7Default7defaultBb_
FNDA:0,_RNvMs2_NtNtNtCs2hUxDLYgi0n_14vass_reach_lib9automaton3ltc11translationINtB5_14LTCTranslationNtNtCsijRReng013a_8petgraph10graph_impl9NodeIndexE21from_multi_graph_path
FNDA:0,_RNCNvMNtNtNtCs8RRi2RJs6bh_14vass_reach_lib9automaton3ltc11translationINtB4_21LTCTranslationElementpE14to_ltc_element0Ba_
FNDA:0,_RNCNvMNtNtNtCs8RRi2RJs6bh_14vass_reach_lib9automaton3ltc11translationINtB4_21LTCTranslationElementpE15to_fancy_string0Ba_
FNDA:0,_RNCNvMs_NtNtNtCs8RRi2RJs6bh_14vass_reach_lib9automaton3ltc11translationINtB6_14LTCTranslationpE15to_fancy_string0Bc_
FNDA:0,_RNCNvXININtNtNtCs8RRi2RJs6bh_14vass_reach_lib9automaton3ltc11translations0_0pEINtB7_14LTCTranslationpEINtNtCs7xuAoyMVi4A_4core7convert4FromRINtNtBb_4path4PathpNtNtNtBb_3cfg6update16CFGCounterUpdateEE4from0Bd_
FNDA:0,_RNvMNtNtNtCs8RRi2RJs6bh_14vass_reach_lib9automaton3ltc11translationINtB2_21LTCTranslationElementpE11unwrap_pathB8_
FNDA:0,_RNvMNtNtNtCs8RRi2RJs6bh_14vass_reach_lib9automaton3ltc11translationINtB2_21LTCTranslationElementpE12unwrap_loopsB8_
FNDA:0,_RNvMNtNtNtCs8RRi2RJs6bh_14vass_reach_lib9automaton3ltc11translationINtB2_21LTCTranslationElementpE14to_ltc_elementB8_
FNDA:0,_RNvMNtNtNtCs8RRi2RJs6bh_14vass_reach_lib9automaton3ltc11translationINtB2_21LTCTranslationElementpE15to_fancy_stringB8_
FNDA:0,_RNvMs2_NtNtNtCs8RRi2RJs6bh_14vass_reach_lib9automaton3ltc11translationINtB5_14LTCTranslationNtNtCsijRReng013a_8petgraph10graph_impl9NodeIndexE21from_multi_graph_path
FNDA:0,_RNvMs_NtNtNtCs8RRi2RJs6bh_14vass_reach_lib9automaton3ltc11translationINtB4_14LTCTranslationpE15to_fancy_stringBa_
FNDA:0,_RNvMs_NtNtNtCs8RRi2RJs6bh_14vass_reach_lib9automaton3ltc11translationINtB4_14LTCTranslationpE3newBa_
FNDA:0,_RNvMs_NtNtNtCs8RRi2RJs6bh_14vass_reach_lib9automaton3ltc11translationINtB4_14LTCTranslationpE6to_dfaBa_
FNDA:0,_RNvMs_NtNtNtCs8RRi2RJs6bh_14vass_reach_lib9automaton3ltc11translationINtB4_14LTCTranslationpE6to_ltcBa_
FNDA:0,_RNvXININtNtNtCs8RRi2RJs6bh_14vass_reach_lib9automaton3ltc11translations0_0pEINtB5_14LTCTranslationpEINtNtCs7xuAoyMVi4A_4core7convert4FromRINtNtB9_4path4PathpNtNtNtB9_3cfg6update16CFGCounterUpdateEE4fromBb_
FNDA:0,_RNvXININtNtNtCs8RRi2RJs6bh_14vass_reach_lib9automaton3ltc11translations1_0pEINtB5_14LTCTranslationpEINtNtCs7xuAoyMVi4A_4core7convert4FromINtNtB9_4path4PathpNtNtNtB9_3cfg6update16CFGCounterUpdateEE4fromBb_
FNDA:0,_RNvXININtNtNtCs8RRi2RJs6bh_14vass_reach_lib9automaton3ltc11translations3_0pEINtB5_14LTCTranslationpENtNtCs7xuAoyMVi4A_4core7default7Default7defaultBb_
FNF:16
FNH:3
DA:27,0
DA:28,0
DA:29,0
DA:30,0
DA:31,0
DA:32,0
DA:34,0
DA:35,0
DA:36,0
DA:37,0
DA:38,0
DA:39,0
DA:40,0
DA:41,0
DA:42,0
DA:43,0
DA:44,0
DA:45,0
DA:48,0
DA:50,0
DA:51,0
DA:52,0
DA:53,0
DA:55,0
DA:56,0
DA:58,0
DA:59,0
DA:60,0
DA:61,0
DA:62,0
DA:66,0
DA:68,0
DA:69,0
DA:70,0
DA:71,0
DA:73,0
DA:75,0
DA:76,0
DA:77,0
DA:78,0
DA:80,0
DA:89,0
DA:90,0
DA:91,0
DA:130,2
DA:131,2
DA:133,2
DA:134,2
DA:135,2
DA:137,2
DA:138,2
DA:139,0
DA:140,0
DA:141,0
DA:142,0
DA:143,0
DA:144,0
DA:146,2
DA:147,6
DA:148,6
DA:151,0
DA:156,6
DA:157,6
DA:158,6
DA:159,6
DA:162,6
DA:163,0
DA:164,6
DA:166,30
DA:167,30
DA:168,30
DA:169,30
DA:170,30
DA:172,6
DA:173,6
DA:175,6
DA:181,2
DA:185,2
DA:187,2
DA:189,2
DA:190,2
DA:192,0
DA:193,0
DA:195,0
DA:196,0
DA:197,0
DA:199,0
DA:200,0
DA:202,0
DA:203,0
DA:204,0
DA:205,0
DA:206,0
DA:207,0
DA:208,0
DA:212,2
DA:213,2
DA:214,2
DA:216,116
DA:217,116
DA:218,0
DA:220,0
DA:221,0
DA:222,0
DA:223,0
DA:224,0
DA:226,0
DA:227,0
DA:228,0
DA:231,0
DA:232,0
DA:233,116
DA:235,366
DA:237,116
DA:239,116
DA:240,18
DA:242,18
DA:243,0
DA:244,18
DA:246,18
DA:247,18
DA:248,16
DA:249,16
DA:250,4
DA:251,12
DA:253,2
DA:254,2
DA:255,2
DA:256,2
DA:258,0
DA:260,18
DA:261,98
DA:264,2
DA:265,0
DA:266,0
DA:267,0
DA:268,0
DA:269,0
DA:270,0
DA:271,0
DA:272,2
DA:274,2
DA:275,2
DA:276,2
DA:277,2
DA:281,0
DA:282,0
DA:283,0
DA:287,0
DA:288,0
DA:289,0
DA:293,0
DA:294,0
DA:295,0
BRF:0
BRH:0
LF:158
LH:60
end_of_record
SF:/home/lemon/src/rust-automata/packages/vass-reach-lib/src/automaton/mod.rs
FN:88,_RNvXs1_NtCs2hUxDLYgi0n_14vass_reach_lib9automatonINtNtB5_3nfa7NFAEdgecENtB5_13AutomatonEdge7matchesCs43NobSSaLSd_3dfa
FN:122,_RNvXs4_NtCs2hUxDLYgi0n_14vass_reach_lib9automatonNtNtCsijRReng013a_8petgraph10graph_impl9NodeIndexNtB5_13CompactGIndex3new
FN:130,_RNvXs4_NtCs2hUxDLYgi0n_14vass_reach_lib9automatonNtNtCsijRReng013a_8petgraph10graph_impl9NodeIndexNtB5_13CompactGIndex5empty
FN:126,_RNvXs4_NtCs2hUxDLYgi0n_14vass_reach_lib9automatonNtNtCsijRReng013a_8petgraph10graph_impl9NodeIndexNtB5_13CompactGIndex5index
FN:136,_RNvXs5_NtCs2hUxDLYgi0n_14vass_reach_lib9automatonNtNtCsijRReng013a_8petgraph10graph_impl9EdgeIndexNtB5_13CompactGIndex3new
FN:144,_RNvXs5_NtCs2hUxDLYgi0n_14vass_reach_lib9automatonNtNtCsijRReng013a_8petgraph10graph_impl9EdgeIndexNtB5_13CompactGIndex5empty
FN:140,_RNvXs5_NtCs2hUxDLYgi0n_14vass_reach_lib9automatonNtNtCsijRReng013a_8petgraph10graph_impl9EdgeIndexNtB5_13CompactGIndex5index
FN:80,_RNvXs0_NtCs2hUxDLYgi0n_14vass_reach_lib9automatonNtNtCs1EFbPCGXlWb_5alloc6string6StringNtB5_10FromLetter11from_letter
FN:75,_RNvXs_NtCs2hUxDLYgi0n_14vass_reach_lib9automatonNtNtCs1EFbPCGXlWb_5alloc6string6StringNtB4_13AutomatonEdge7matches
FN:297,_RNvXsf_NtCs2hUxDLYgi0n_14vass_reach_lib9automatonINtNtB5_3dfa3DFAuNtNtNtB5_3cfg6update16CFGCounterUpdateEINtB5_18AutomatonIteratorsNtB5_13DeterministicE17iter_node_indicesB7_
FN:366,_RNvXsi_NtCs2hUxDLYgi0n_14vass_reach_lib9automatonINtNtB5_3dfa3DFAuNtNtNtB5_3cfg6update16CFGCounterUpdateEINtB5_16TransitionSystemNtB5_13DeterministicE9successorB7_
FN:279,_RNvYINtNtNtCs2hUxDLYgi0n_14vass_reach_lib9automaton3dfa3DFAuNtNtNtB7_3cfg6update16CFGCounterUpdateEINtB7_18AutomatonIteratorsNtB7_13DeterministicE10iter_nodesB9_
FN:484,_RNvYINtNtNtCs2hUxDLYgi0n_14vass_reach_lib9automaton3dfa3DFAuNtNtNtB7_3cfg6update16CFGCounterUpdateEINtB7_21ExplicitEdgeAutomatonNtB7_13DeterministicE10iter_edgesB9_
FN:478,_RNvYINtNtNtCs2hUxDLYgi0n_14vass_reach_lib9automaton3dfa3DFAuNtNtNtB7_3cfg6update16CFGCounterUpdateEINtB7_21ExplicitEdgeAutomatonNtB7_13DeterministicE17iter_edge_indicesB9_
FN:468,_RNvYINtNtNtCs2hUxDLYgi0n_14vass_reach_lib9automaton3dfa3DFAuNtNtNtB7_3cfg6update16CFGCounterUpdateEINtB7_21ExplicitEdgeAutomatonNtB7_13DeterministicE21edge_source_uncheckedB9_
FN:473,_RNvYINtNtNtCs2hUxDLYgi0n_14vass_reach_lib9automaton3dfa3DFAuNtNtNtB7_3cfg6update16CFGCounterUpdateEINtB7_21ExplicitEdgeAutomatonNtB7_13DeterministicE21edge_target_uncheckedB9_
FN:512,_RNvYINtNtNtCs2hUxDLYgi0n_14vass_reach_lib9automaton3dfa3DFAuNtNtNtB7_3cfg6update16CFGCounterUpdateEINtB7_21ExplicitEdgeAutomatonNtB7_13DeterministicE35connecting_edge_indices_with_letterB9_
FN:285,_RNCNCNvYINtNtNtCs2hUxDLYgi0n_14vass_reach_lib9automaton3dfa3DFAuNtNtNtBb_3cfg6update16CFGCounterUpdateEINtBb_18AutomatonIteratorsNtBb_13DeterministicE10iter_nodes00Bd_
FN:489,_RNCNCNvYINtNtNtCs2hUxDLYgi0n_14vass_reach_lib9automaton3dfa3DFAuNtNtNtBb_3cfg6update16CFGCounterUpdateEINtBb_21ExplicitEdgeAutomatonNtBb_13DeterministicE10iter_edges00Bd_
FN:489,_RNCNCNvYNtNtNtNtCs2hUxDLYgi0n_14vass_reach_lib9automaton3lsg4part8LSGGraphINtBc_21ExplicitEdgeAutomatonNtBc_13DeterministicE10iter_edges00Be_
FN:368,_RNCNvXsi_NtCs2hUxDLYgi0n_14vass_reach_lib9automatonINtNtB7_3dfa3DFAuNtNtNtB7_3cfg6update16CFGCounterUpdateEINtB7_16TransitionSystemNtB7_13DeterministicE9successor0B9_
FN:369,_RNCNvXsi_NtCs2hUxDLYgi0n_14vass_reach_lib9automatonINtNtB7_3dfa3DFAuNtNtNtB7_3cfg6update16CFGCounterUpdateEINtB7_16TransitionSystemNtB7_13DeterministicE9successors_0B9_
FN:285,_RNCNvYINtNtNtCs2hUxDLYgi0n_14vass_reach_lib9automaton3dfa3DFAuNtNtNtB9_3cfg6update16CFGCounterUpdateEINtB9_18AutomatonIteratorsNtB9_13DeterministicE10iter_nodes0Bb_
FN:489,_RNCNvYINtNtNtCs2hUxDLYgi0n_14vass_reach_lib9automaton3dfa3DFAuNtNtNtB9_3cfg6update16CFGCounterUpdateEINtB9_21ExplicitEdgeAutomatonNtB9_13DeterministicE10iter_edges0Bb_
FN:519,_RNCNvYINtNtNtCs2hUxDLYgi0n_14vass_reach_lib9automaton3dfa3DFAuNtNtNtB9_3cfg6update16CFGCounterUpdateEINtB9_21ExplicitEdgeAutomatonNtB9_13DeterministicE35connecting_edge_indices_with_letter0Bb_
FN:489,_RNCNvYNtNtNtNtCs2hUxDLYgi0n_14vass_reach_lib9automaton3lsg4part8LSGGraphINtBa_21ExplicitEdgeAutomatonNtBa_13DeterministicE10iter_edges0Bc_
FN:186,_RNvMs8_NtCs2hUxDLYgi0n_14vass_reach_lib9automatonINtB5_14GIndexIteratorNtNtCsijRReng013a_8petgraph10graph_impl9EdgeIndexE3newB7_
FN:198,_RNvXs9_NtCs2hUxDLYgi0n_14vass_reach_lib9automatonINtB5_14GIndexIteratorNtNtCsijRReng013a_8petgraph10graph_impl9EdgeIndexENtNtNtNtCs7xuAoyMVi4A_4core4iter6traits8iterator8Iterator4nextB7_
FN:150,_RNvXs6_NtCs2hUxDLYgi0n_14vass_reach_lib9automatonjNtB5_13CompactGIndex3new
FN:158,_RNvXs6_NtCs2hUxDLYgi0n_14vass_reach_lib9automatonjNtB5_13CompactGIndex5empty
FN:154,_RNvXs6_NtCs2hUxDLYgi0n_14vass_reach_lib9automatonjNtB5_13CompactGIndex5index
FN:164,_RNvXs7_NtCs2hUxDLYgi0n_14vass_reach_lib9automatonmNtB5_13CompactGIndex3new
FN:172,_RNvXs7_NtCs2hUxDLYgi0n_14vass_reach_lib9automatonmNtB5_13CompactGIndex5empty
FN:168,_RNvXs7_NtCs2hUxDLYgi0n_14vass_reach_lib9automatonmNtB5_13CompactGIndex5index
FN:50,_RNvXsk_NtCs2hUxDLYgi0n_14vass_reach_lib9automatonuNtB5_13AutomatonEdge7matches
FN:55,_RNvXsl_NtCs2hUxDLYgi0n_14vass_reach_lib9automatonuNtB5_10FromLetter11from_letter
FN:50,_RNvXsm_NtCs2hUxDLYgi0n_14vass_reach_lib9automatonmNtB5_13AutomatonEdge7matches
FN:55,_RNvXsn_NtCs2hUxDLYgi0n_14vass_reach_lib9automatonmNtB5_10FromLetter11from_letter
FN:50,_RNvXso_NtCs2hUxDLYgi0n_14vass_reach_lib9automatonlNtB5_13AutomatonEdge7matches
FN:55,_RNvXsp_NtCs2hUxDLYgi0n_14vass_reach_lib9automatonlNtB5_10FromLetter11from_letter
FN:50,_RNvXsq_NtCs2hUxDLYgi0n_14vass_reach_lib9automatonyNtB5_13AutomatonEdge7matches
FN:55,_RNvXsr_NtCs2hUxDLYgi0n_14vass_reach_lib9automatonyNtB5_10FromLetter11from_letter
FN:50,_RNvXss_NtCs2hUxDLYgi0n_14vass_reach_lib9automatonxNtB5_13AutomatonEdge7matches
FN:55,_RNvXst_NtCs2hUxDLYgi0n_14vass_reach_lib9automatonxNtB5_10FromLetter11from_letter
FN:50,_RNvXsu_NtCs2hUxDLYgi0n_14vass_reach_lib9automatonjNtB5_13AutomatonEdge7matches
FN:55,_RNvXsv_NtCs2hUxDLYgi0n_14vass_reach_lib9automatonjNtB5_10FromLetter11from_letter
FN:50,_RNvXsw_NtCs2hUxDLYgi0n_14vass_reach_lib9automatoncNtB5_13AutomatonEdge7matches
FN:55,_RNvXsx_NtCs2hUxDLYgi0n_14vass_reach_lib9automatoncNtB5_10FromLetter11from_letter
FN:297,_RNvXsf_NtCs2hUxDLYgi0n_14vass_reach_lib9automatonNtNtNtB5_3lsg4part8LSGGraphINtB5_18AutomatonIteratorsNtB5_13DeterministicE17iter_node_indicesB7_
FN:484,_RNvYNtNtNtNtCs2hUxDLYgi0n_14vass_reach_lib9automaton3lsg4part8LSGGraphINtB8_21ExplicitEdgeAutomatonNtB8_13DeterministicE10iter_edgesBa_
FN:478,_RNvYNtNtNtNtCs2hUxDLYgi0n_14vass_reach_lib9automaton3lsg4part8LSGGraphINtB8_21ExplicitEdgeAutomatonNtB8_13DeterministicE17iter_edge_indicesBa_
FN:468,_RNvYNtNtNtNtCs2hUxDLYgi0n_14vass_reach_lib9automaton3lsg4part8LSGGraphINtB8_21ExplicitEdgeAutomatonNtB8_13DeterministicE21edge_source_uncheckedBa_
FN:473,_RNvYNtNtNtNtCs2hUxDLYgi0n_14vass_reach_lib9automaton3lsg4part8LSGGraphINtB8_21ExplicitEdgeAutomatonNtB8_13DeterministicE21edge_target_uncheckedBa_
FN:354,_RNvYNtNtNtCs2hUxDLYgi0n_14vass_reach_lib9automaton20implicit_cfg_product18ImplicitCFGProductINtB6_16TransitionSystemNtB6_13DeterministicE20undirected_neighborsB8_
FN:378,_RNCNvXININtCs2hUxDLYgi0n_14vass_reach_lib9automatonsi_0pEpINtB7_16TransitionSystemNtB7_13DeterministicE10successors0B9_
FN:388,_RNCNvXININtCs2hUxDLYgi0n_14vass_reach_lib9automatonsi_0pEpINtB7_16TransitionSystemNtB7_13DeterministicE12predecessors0B9_
FN:407,_RNCNvXININtCs2hUxDLYgi0n_14vass_reach_lib9automatonsj_0pEpINtB7_16TransitionSystemNtB7_16NonDeterministicE10successors0B9_
FN:417,_RNCNvXININtCs2hUxDLYgi0n_14vass_reach_lib9automatonsj_0pEpINtB7_16TransitionSystemNtB7_16NonDeterministicE12predecessors0B9_
FN:396,_RNCNvXININtCs2hUxDLYgi0n_14vass_reach_lib9automatonsj_0pEpINtB7_16TransitionSystemNtB7_16NonDeterministicE9successor0B9_
FN:397,_RNCNvXININtCs2hUxDLYgi0n_14vass_reach_lib9automatonsj_0pEpINtB7_16TransitionSystemNtB7_16NonDeterministicE9successors_0B9_
FN:99,_RNvXININtCs2hUxDLYgi0n_14vass_reach_lib9automatons2_0pEINtNtB5_4vass8VASSEdgepENtB5_13AutomatonEdge7matchesB7_
FN:210,_RNvXININtCs2hUxDLYgi0n_14vass_reach_lib9automatonsa_0pEINtB5_14GIndexIteratorpENtNtNtNtCs7xuAoyMVi4A_4core4iter6traits10exact_size17ExactSizeIterator3lenB7_
FN:216,_RNvXININtCs2hUxDLYgi0n_14vass_reach_lib9automatonsb_0pEINtB5_14GIndexIteratorpENtNtNtNtCs7xuAoyMVi4A_4core4iter6traits12double_ended19DoubleEndedIterator9next_backB7_
FN:234,_RNvXININtCs2hUxDLYgi0n_14vass_reach_lib9automatonsc_0pEINtB5_6FrozenpENtNtNtCs7xuAoyMVi4A_4core3ops5deref5Deref5derefB7_
FN:240,_RNvXININtCs2hUxDLYgi0n_14vass_reach_lib9automatonsd_0pEINtB5_6FrozenpEINtNtCs7xuAoyMVi4A_4core7convert4FromQpE4fromB7_
FN:372,_RNvXININtCs2hUxDLYgi0n_14vass_reach_lib9automatonsi_0pEpINtB5_16TransitionSystemNtB5_13DeterministicE10successorsB7_
FN:382,_RNvXININtCs2hUxDLYgi0n_14vass_reach_lib9automatonsi_0pEpINtB5_16TransitionSystemNtB5_13DeterministicE12predecessorsB7_
FN:401,_RNvXININtCs2hUxDLYgi0n_14vass_reach_lib9automatonsj_0pEpINtB5_16TransitionSystemNtB5_16NonDeterministicE10successorsB7_
FN:411,_RNvXININtCs2hUxDLYgi0n_14vass_reach_lib9automatonsj_0pEpINtB5_16TransitionSystemNtB5_16NonDeterministicE12predecessorsB7_
FN:394,_RNvXININtCs2hUxDLYgi0n_14vass_reach_lib9automatonsj_0pEpINtB5_16TransitionSystemNtB5_16NonDeterministicE9successorB7_
FN:457,_RNvYpINtNtCs2hUxDLYgi0n_14vass_reach_lib9automaton21ExplicitEdgeAutomatonpE11edge_sourceB8_
FN:462,_RNvYpINtNtCs2hUxDLYgi0n_14vass_reach_lib9automaton21ExplicitEdgeAutomatonpE11edge_targetB8_
FN:497,_RNvYpINtNtCs2hUxDLYgi0n_14vass_reach_lib9automaton21ExplicitEdgeAutomatonpE23undirected_edge_indicesB8_
FN:88,_RNvXs1_NtCs2hUxDLYgi0n_14vass_reach_lib9automatonINtNtB5_3nfa7NFAEdgeNtNtNtB5_3cfg6update16CFGCounterUpdateENtB5_13AutomatonEdge7matchesB7_
FN:50,_RNvXsy_NtCs2hUxDLYgi0n_14vass_reach_lib9automatonNtNtNtB5_3cfg6update16CFGCounterUpdateNtB5_13AutomatonEdge7matches
FN:55,_RNvXsz_NtCs2hUxDLYgi0n_14vass_reach_lib9automatonNtNtNtB5_3cfg6update16CFGCounterUpdateNtB5_10FromLetter11from_letter
FN:473,_RNvYINtNtNtNtCs2hUxDLYgi0n_14vass_reach_lib9automaton4vass11initialized15InitializedVASSulEINtB9_21ExplicitEdgeAutomatonNtB9_13DeterministicE21edge_target_uncheckedCsjA5qX5JEwPT_16graph_algorithms
FN:378,_RNCNvXsi_NtCs2hUxDLYgi0n_14vass_reach_lib9automatonINtNtB7_3dfa3DFAuNtNtNtB7_3cfg6update16CFGCounterUpdateEINtB7_16TransitionSystemNtB7_13DeterministicE10successors0CsjA5qX5JEwPT_16graph_algorithms
FN:372,_RNvXsi_NtCs2hUxDLYgi0n_14vass_reach_lib9automatonINtNtB5_3dfa3DFAuNtNtNtB5_3cfg6update16CFGCounterUpdateEINtB5_16TransitionSystemNtB5_13DeterministicE10successorsCsjA5qX5JEwPT_16graph_algorithms
FN:473,_RNvYINtNtNtNtCs2hUxDLYgi0n_14vass_reach_lib9automaton4vass11initialized15InitializedVASSulEINtB9_21ExplicitEdgeAutomatonNtB9_13DeterministicE21edge_target_uncheckedCs3ATG82DPHTL_3lgs
FN:473,_RNvYINtNtNtNtCs2hUxDLYgi0n_14vass_reach_lib9automaton4vass11initialized15InitializedVASSjjEINtB9_21ExplicitEdgeAutomatonNtB9_13DeterministicE21edge_target_uncheckedCsdx2WVSQjOLl_3ltc
FN:88,_RNvXs1_NtCs2hUxDLYgi0n_14vass_reach_lib9automatonINtNtB5_3nfa7NFAEdgecENtB5_13AutomatonEdge7matchesCsbz10sC9QTBK_3nfa
FN:88,_RNvXs1_NtCs2hUxDLYgi0n_14vass_reach_lib9automatonINtNtB5_3nfa7NFAEdgecENtB5_13AutomatonEdge7matchesCs5AE6hNTjqZK_13nfa_invariant
FN:368,_RNCNvXsi_NtCs2hUxDLYgi0n_14vass_reach_lib9automatonINtNtB7_3dfa3DFAucEINtB7_16TransitionSystemNtB7_13DeterministicE9successor0Cs9XXF3XtrrPR_4path
FN:369,_RNCNvXsi_NtCs2hUxDLYgi0n_14vass_reach_lib9automatonINtNtB7_3dfa3DFAucEINtB7_16TransitionSystemNtB7_13DeterministicE9successors_0Cs9XXF3XtrrPR_4path
FN:366,_RNvXsi_NtCs2hUxDLYgi0n_14vass_reach_lib9automatonINtNtB5_3dfa3DFAucEINtB5_16TransitionSystemNtB5_13DeterministicE9successorCs9XXF3XtrrPR_4path
FN:473,_RNvYINtNtNtCs2hUxDLYgi0n_14vass_reach_lib9automaton3dfa3DFAucEINtB7_21ExplicitEdgeAutomatonNtB7_13DeterministicE21edge_target_uncheckedCs9XXF3XtrrPR_4path
FN:473,_RNvYINtNtNtNtCs2hUxDLYgi0n_14vass_reach_lib9automaton4vass11initialized15InitializedVASSjjEINtB9_21ExplicitEdgeAutomatonNtB9_13DeterministicE21edge_target_uncheckedCsgHwEJVtWcfn_14petri_net_spec
FN:473,_RNvYINtNtNtNtCs2hUxDLYgi0n_14vass_reach_lib9automaton4vass11initialized15InitializedVASSmcEINtB9_21ExplicitEdgeAutomatonNtB9_13DeterministicE21edge_target_uncheckedCsbhGvosVcoyU_4vass
FN:99,_RNvXs2_NtCs2hUxDLYgi0n_14vass_reach_lib9automatonINtNtB5_4vass8VASSEdgecENtB5_13AutomatonEdge7matchesCsbhGvosVcoyU_4vass
FN:473,_RNvYINtNtNtNtCs2hUxDLYgi0n_14vass_reach_lib9automaton4vass11initialized15InitializedVASSjjEINtB9_21ExplicitEdgeAutomatonNtB9_13DeterministicE21edge_target_uncheckedCsaYjQXJDQq9v_12vass_n_reach
FN:473,_RNvYINtNtNtNtCs2hUxDLYgi0n_14vass_reach_lib9automaton4vass11initialized15InitializedVASSmcEINtB9_21ExplicitEdgeAutomatonNtB9_13DeterministicE21edge_target_uncheckedCsaYjQXJDQq9v_12vass_n_reach
FN:285,_RNCNCNvYpINtNtCs8RRi2RJs6bh_14vass_reach_lib9automaton18AutomatonIteratorspE10iter_nodes00Bc_
FN:489,_RNCNCNvYpINtNtCs8RRi2RJs6bh_14vass_reach_lib9automaton21ExplicitEdgeAutomatonpE10iter_edges00Bc_
FN:378,_RNCNvXININtCs8RRi2RJs6bh_14vass_reach_lib9automatonsi_0pEpINtB7_16TransitionSystemNtB7_13DeterministicE10successors0B9_
FN:388,_RNCNvXININtCs8RRi2RJs6bh_14vass_reach_lib9automatonsi_0pEpINtB7_16TransitionSystemNtB7_13DeterministicE12predecessors0B9_
FN:368,_RNCNvXININtCs8RRi2RJs6bh_14vass_reach_lib9automatonsi_0pEpINtB7_16TransitionSystemNtB7_13DeterministicE9successor0B9_
FN:369,_RNCNvXININtCs8RRi2RJs6bh_14vass_reach_lib9automatonsi_0pEpINtB7_16TransitionSystemNtB7_13DeterministicE9successors_0B9_
FN:407,_RNCNvXININtCs8RRi2RJs6bh_14vass_reach_lib9automatonsj_0pEpINtB7_16TransitionSystemNtB7_16NonDeterministicE10successors0B9_
FN:417,_RNCNvXININtCs8RRi2RJs6bh_14vass_reach_lib9automatonsj_0pEpINtB7_16TransitionSystemNtB7_16NonDeterministicE12predecessors0B9_
FN:396,_RNCNvXININtCs8RRi2RJs6bh_14vass_reach_lib9automatonsj_0pEpINtB7_16TransitionSystemNtB7_16NonDeterministicE9successor0B9_
FN:397,_RNCNvXININtCs8RRi2RJs6bh_14vass_reach_lib9automatonsj_0pEpINtB7_16TransitionSystemNtB7_16NonDeterministicE9successors_0B9_
FN:285,_RNCNvYpINtNtCs8RRi2RJs6bh_14vass_reach_lib9automaton18AutomatonIteratorspE10iter_nodes0Ba_
FN:489,_RNCNvYpINtNtCs8RRi2RJs6bh_14vass_reach_lib9automaton21ExplicitEdgeAutomatonpE10iter_edges0Ba_
FN:519,_RNCNvYpINtNtCs8RRi2RJs6bh_14vass_reach_lib9automaton21ExplicitEdgeAutomatonpE35connecting_edge_indices_with_letter0Ba_
FN:186,_RNvMs8_NtCs8RRi2RJs6bh_14vass_reach_lib9automatonINtB5_14GIndexIteratorpE3newB7_
FN:88,_RNvXININtCs8RRi2RJs6bh_14vass_reach_lib9automatons1_0pEINtNtB5_3nfa7NFAEdgepENtB5_13AutomatonEdge7matchesB7_
FN:99,_RNvXININtCs8RRi2RJs6bh_14vass_reach_lib9automatons2_0pEINtNtB5_4vass8VASSEdgepENtB5_13AutomatonEdge7matchesB7_
FN:198,_RNvXININtCs8RRi2RJs6bh_14vass_reach_lib9automatons9_0pEINtB5_14GIndexIteratorpENtNtNtNtCs7xuAoyMVi4A_4core4iter6traits8iterator8Iterator4nextB7_
FN:210,_RNvXININtCs8RRi2RJs6bh_14vass_reach_lib9automatonsa_0pEINtB5_14GIndexIteratorpENtNtNtNtCs7xuAoyMVi4A_4core4iter6traits10exact_size17ExactSizeIterator3lenB7_
FN:216,_RNvXININtCs8RRi2RJs6bh_14vass_reach_lib9automatonsb_0pEINtB5_14GIndexIteratorpENtNtNtNtCs7xuAoyMVi4A_4core4iter6traits12double_ended19DoubleEndedIterator9next_backB7_
FN:234,_RNvXININtCs8RRi2RJs6bh_14vass_reach_lib9automatonsc_0pEINtB5_6FrozenpENtNtNtCs7xuAoyMVi4A_4core3ops5deref5Deref5derefB7_
FN:240,_RNvXININtCs8RRi2RJs6bh_14vass_reach_lib9automatonsd_0pEINtB5_6FrozenpEINtNtCs7xuAoyMVi4A_4core7convert4FromQpE4fromB7_
FN:297,_RNvXININtCs8RRi2RJs6bh_14vass_reach_lib9automatonsf_0ppEpINtB5_18AutomatonIteratorspE17iter_node_indicesB7_
FN:372,_RNvXININtCs8RRi2RJs6bh_14vass_reach_lib9automatonsi_0pEpINtB5_16TransitionSystemNtB5_13DeterministicE10successorsB7_
FN:382,_RNvXININtCs8RRi2RJs6bh_14vass_reach_lib9automatonsi_0pEpINtB5_16TransitionSystemNtB5_13DeterministicE12predecessorsB7_
FN:366,_RNvXININtCs8RRi2RJs6bh_14vass_reach_lib9automatonsi_0pEpINtB5_16TransitionSystemNtB5_13DeterministicE9successorB7_
FN:401,_RNvXININtCs8RRi2RJs6bh_14vass_reach_lib9automatonsj_0pEpINtB5_16TransitionSystemNtB5_16NonDeterministicE10successorsB7_
FN:411,_RNvXININtCs8RRi2RJs6bh_14vass_reach_lib9automatonsj_0pEpINtB5_16TransitionSystemNtB5_16NonDeterministicE12predecessorsB7_
FN:394,_RNvXININtCs8RRi2RJs6bh_14vass_reach_lib9automatonsj_0pEpINtB5_16TransitionSystemNtB5_16NonDeterministicE9successorB7_
FN:80,_RNvXs0_NtCs8RRi2RJs6bh_14vass_reach_lib9automatonNtNtCs1EFbPCGXlWb_5alloc6string6StringNtB5_10FromLetter11from_letter
FN:122,_RNvXs4_NtCs8RRi2RJs6bh_14vass_reach_lib9automatonNtNtCsijRReng013a_8petgraph10graph_impl9NodeIndexNtB5_13CompactGIndex3new
FN:130,_RNvXs4_NtCs8RRi2RJs6bh_14vass_reach_lib9automatonNtNtCsijRReng013a_8petgraph10graph_impl9NodeIndexNtB5_13CompactGIndex5empty
FN:126,_RNvXs4_NtCs8RRi2RJs6bh_14vass_reach_lib9automatonNtNtCsijRReng013a_8petgraph10graph_impl9NodeIndexNtB5_13CompactGIndex5index
FN:136,_RNvXs5_NtCs8RRi2RJs6bh_14vass_reach_lib9automatonNtNtCsijRReng013a_8petgraph10graph_impl9EdgeIndexNtB5_13CompactGIndex3new
FN:144,_RNvXs5_NtCs8RRi2RJs6bh_14vass_reach_lib9automatonNtNtCsijRReng013a_8petgraph10graph_impl9EdgeIndexNtB5_13CompactGIndex5empty
FN:140,_RNvXs5_NtCs8RRi2RJs6bh_14vass_reach_lib9automatonNtNtCsijRReng013a_8petgraph10graph_impl9EdgeIndexNtB5_13CompactGIndex5index
FN:150,_RNvXs6_NtCs8RRi2RJs6bh_14vass_reach_lib9automatonjNtB5_13CompactGIndex3new
FN:158,_RNvXs6_NtCs8RRi2RJs6bh_14vass_reach_lib9automatonjNtB5_13CompactGIndex5empty
FN:154,_RNvXs6_NtCs8RRi2RJs6bh_14vass_reach_lib9automatonjNtB5_13CompactGIndex5index
FN:164,_RNvXs7_NtCs8RRi2RJs6bh_14vass_reach_lib9automatonmNtB5_13CompactGIndex3new
FN:172,_RNvXs7_NtCs8RRi2RJs6bh_14vass_reach_lib9automatonmNtB5_13CompactGIndex5empty
FN:168,_RNvXs7_NtCs8RRi2RJs6bh_14vass_reach_lib9automatonmNtB5_13CompactGIndex5index
FN:75,_RNvXs_NtCs8RRi2RJs6bh_14vass_reach_lib9automatonNtNtCs1EFbPCGXlWb_5alloc6string6StringNtB4_13AutomatonEdge7matches
FN:50,_RNvXsk_NtCs8RRi2RJs6bh_14vass_reach_lib9automatonuNtB5_13AutomatonEdge7matches
FN:55,_RNvXsl_NtCs8RRi2RJs6bh_14vass_reach_lib9automatonuNtB5_10FromLetter11from_letter
FN:50,_RNvXsm_NtCs8RRi2RJs6bh_14vass_reach_lib9automatonmNtB5_13AutomatonEdge7matches
FN:55,_RNvXsn_NtCs8RRi2RJs6bh_14vass_reach_lib9automatonmNtB5_10FromLetter11from_letter
FN:50,_RNvXso_NtCs8RRi2RJs6bh_14vass_reach_lib9automatonlNtB5_13AutomatonEdge7matches
FN:55,_RNvXsp_NtCs8RRi2RJs6bh_14vass_reach_lib9automatonlNtB5_10FromLetter11from_letter
FN:50,_RNvXsq_NtCs8RRi2RJs6bh_14vass_reach_lib9automatonyNtB5_13AutomatonEdge7matches
FN:55,_RNvXsr_NtCs8RRi2RJs6bh_14vass_reach_lib9automatonyNtB5_10FromLetter11from_letter
FN:50,_RNvXss_NtCs8RRi2RJs6bh_14vass_reach_lib9automatonxNtB5_13AutomatonEdge7matches
FN:55,_RNvXst_NtCs8RRi2RJs6bh_14vass_reach_lib9automatonxNtB5_10FromLetter11from_letter
FN:50,_RNvXsu_NtCs8RRi2RJs6bh_14vass_reach_lib9automatonjNtB5_13AutomatonEdge7matches
FN:55,_RNvXsv_NtCs8RRi2RJs6bh_14vass_reach_lib9automatonjNtB5_10FromLetter11from_letter
FN:50,_RNvXsw_NtCs8RRi2RJs6bh_14vass_reach_lib9automatoncNtB5_13AutomatonEdge7matches
FN:55,_RNvXsx_NtCs8RRi2RJs6bh_14vass_reach_lib9automatoncNtB5_10FromLetter11from_letter
FN:50,_RNvXsy_NtCs8RRi2RJs6bh_14vass_reach_lib9automatonNtNtNtB5_3cfg6update16CFGCounterUpdateNtB5_13AutomatonEdge7matches
FN:55,_RNvXsz_NtCs8RRi2RJs6bh_14vass_reach_lib9automatonNtNtNtB5_3cfg6update16CFGCounterUpdateNtB5_10FromLetter11from_letter
FN:354,_RNvYpINtNtCs8RRi2RJs6bh_14vass_reach_lib9automaton16TransitionSystempE20undirected_neighborsB8_
FN:279,_RNvYpINtNtCs8RRi2RJs6bh_14vass_reach_lib9automaton18AutomatonIteratorspE10iter_nodesB8_
FN:484,_RNvYpINtNtCs8RRi2RJs6bh_14vass_reach_lib9automaton21ExplicitEdgeAutomatonpE10iter_edgesB8_
FN:457,_RNvYpINtNtCs8RRi2RJs6bh_14vass_reach_lib9automaton21ExplicitEdgeAutomatonpE11edge_sourceB8_
FN:462,_RNvYpINtNtCs8RRi2RJs6bh_14vass_reach_lib9automaton21ExplicitEdgeAutomatonpE11edge_targetB8_
FN:478,_RNvYpINtNtCs8RRi2RJs6bh_14vass_reach_lib9automaton21ExplicitEdgeAutomatonpE17iter_edge_indicesB8_
FN:468,_RNvYpINtNtCs8RRi2RJs6bh_14vass_reach_lib9automaton21ExplicitEdgeAutomatonpE21edge_source_uncheckedB8_
FN:473,_RNvYpINtNtCs8RRi2RJs6bh_14vass_reach_lib9automaton21ExplicitEdgeAutomatonpE21edge_target_uncheckedB8_
FN:497,_RNvYpINtNtCs8RRi2RJs6bh_14vass_reach_lib9automaton21ExplicitEdgeAutomatonpE23undirected_edge_indicesB8_
FN:512,_RNvYpINtNtCs8RRi2RJs6bh_14vass_reach_lib9automaton21ExplicitEdgeAutomatonpE35connecting_edge_indices_with_letterB8_
FN:473,_RNvYINtNtNtNtCs2hUxDLYgi0n_14vass_reach_lib9automaton4vass11initialized15InitializedVASSjjEINtB9_21ExplicitEdgeAutomatonNtB9_13DeterministicE21edge_target_uncheckedCseoIxkIhB6T8_12vass_z_reach
FN:473,_RNvYINtNtNtNtCs2hUxDLYgi0n_14vass_reach_lib9automaton4vass11initialized15InitializedVASSmcEINtB9_21ExplicitEdgeAutomatonNtB9_13DeterministicE21edge_target_uncheckedCseoIxkIhB6T8_12vass_z_reach
FNDA:18,_RNvXs1_NtCs2hUxDLYgi0n_14vass_reach_lib9automatonINtNtB5_3nfa7NFAEdgecENtB5_13AutomatonEdge7matchesCs43NobSSaLSd_3dfa
FNDA:118,_RNvXs4_NtCs2hUxDLYgi0n_14vass_reach_lib9automatonNtNtCsijRReng013a_8petgraph10graph_impl9NodeIndexNtB5_13CompactGIndex3new
FNDA:0,_RNvXs4_NtCs2hUxDLYgi0n_14vass_reach_lib9automatonNtNtCsijRReng013a_8petgraph10graph_impl9NodeIndexNtB5_13CompactGIndex5empty
FNDA:3923,_RNvXs4_NtCs2hUxDLYgi0n_14vass_reach_lib9automatonNtNtCsijRReng013a_8petgraph10graph_impl9NodeIndexNtB5_13CompactGIndex5index
FNDA:2661,_RNvXs5_NtCs2hUxDLYgi0n_14vass_reach_lib9automatonNtNtCsijRReng013a_8petgraph10graph_impl9EdgeIndexNtB5_13CompactGIndex3new
FNDA:0,_RNvXs5_NtCs2hUxDLYgi0n_14vass_reach_lib9automatonNtNtCsijRReng013a_8petgraph10graph_impl9EdgeIndexNtB5_13CompactGIndex5empty
FNDA:1746,_RNvXs5_NtCs2hUxDLYgi0n_14vass_reach_lib9automatonNtNtCsijRReng013a_8petgraph10graph_impl9EdgeIndexNtB5_13CompactGIndex5index
FNDA:0,_RNvXs0_NtCs2hUxDLYgi0n_14vass_reach_lib9automatonNtNtCs1EFbPCGXlWb_5alloc6string6StringNtB5_10FromLetter11from_letter
FNDA:0,_RNvXs_NtCs2hUxDLYgi0n_14vass_reach_lib9automatonNtNtCs1EFbPCGXlWb_5alloc6string6StringNtB4_13AutomatonEdge7matches
FNDA:16,_RNvXsf_NtCs2hUxDLYgi0n_14vass_reach_lib9automatonINtNtB5_3dfa3DFAuNtNtNtB5_3cfg6update16CFGCounterUpdateEINtB5_18AutomatonIteratorsNtB5_13DeterministicE17iter_node_indicesB7_
FNDA:28399,_RNvXsi_NtCs2hUxDLYgi0n_14vass_reach_lib9automatonINtNtB5_3dfa3DFAuNtNtNtB5_3cfg6update16CFGCounterUpdateEINtB5_16TransitionSystemNtB5_13DeterministicE9successorB7_
FNDA:0,_RNvYINtNtNtCs2hUxDLYgi0n_14vass_reach_lib9automaton3dfa3DFAuNtNtNtB7_3cfg6update16CFGCounterUpdateEINtB7_18AutomatonIteratorsNtB7_13DeterministicE10iter_nodesB9_
FNDA:5,_RNvYINtNtNtCs2hUxDLYgi0n_14vass_reach_lib9automaton3dfa3DFAuNtNtNtB7_3cfg6update16CFGCounterUpdateEINtB7_21ExplicitEdgeAutomatonNtB7_13DeterministicE10iter_edgesB9_
FNDA:13,_RNvYINtNtNtCs2hUxDLYgi0n_14vass_reach_lib9automaton3dfa3DFAuNtNtNtB7_3cfg6update16CFGCounterUpdateEINtB7_21ExplicitEdgeAutomatonNtB7_13DeterministicE17iter_edge_indicesB9_
FNDA:257,_RNvYINtNtNtCs2hUxDLYgi0n_14vass_reach_lib9automaton3dfa3DFAuNtNtNtB7_3cfg6update16CFGCounterUpdateEINtB7_21ExplicitEdgeAutomatonNtB7_13DeterministicE21edge_source_uncheckedB9_
FNDA:28469,_RNvYINtNtNtCs2hUxDLYgi0n_14vass_reach_lib9automaton3dfa3DFAuNtNtNtB7_3cfg6update16CFGCounterUpdateEINtB7_21ExplicitEdgeAutomatonNtB7_13DeterministicE21edge_target_uncheckedB9_
FNDA:0,_RNvYINtNtNtCs2hUxDLYgi0n_14vass_reach_lib9automaton3dfa3DFAuNtNtNtB7_3cfg6update16CFGCounterUpdateEINtB7_21ExplicitEdgeAutomatonNtB7_13DeterministicE35connecting_edge_indices_with_letterB9_
FNDA:0,_RNCNCNvYINtNtNtCs2hUxDLYgi0n_14vass_reach_lib9automaton3dfa3DFAuNtNtNtBb_3cfg6update16CFGCounterUpdateEINtBb_18AutomatonIteratorsNtBb_13DeterministicE10iter_nodes00Bd_
FNDA:178,_RNCNCNvYINtNtNtCs2hUxDLYgi0n_14vass_reach_lib9automaton3dfa3DFAuNtNtNtBb_3cfg6update16CFGCounterUpdateEINtBb_21ExplicitEdgeAutomatonNtBb_13DeterministicE10iter_edges00Bd_
FNDA:10,_RNCNCNvYNtNtNtNtCs2hUxDLYgi0n_14vass_reach_lib9automaton3lsg4part8LSGGraphINtBc_21ExplicitEdgeAutomatonNtBc_13DeterministicE10iter_edges00Be_
FNDA:103854,_RNCNvXsi_NtCs2hUxDLYgi0n_14vass_reach_lib9automatonINtNtB7_3dfa3DFAuNtNtNtB7_3cfg6update16CFGCounterUpdateEINtB7_16TransitionSystemNtB7_13DeterministicE9successor0B9_
FNDA:28380,_RNCNvXsi_NtCs2hUxDLYgi0n_14vass_reach_lib9automatonINtNtB7_3dfa3DFAuNtNtNtB7_3cfg6update16CFGCounterUpdateEINtB7_16TransitionSystemNtB7_13DeterministicE9successors_0B9_
FNDA:0,_RNCNvYINtNtNtCs2hUxDLYgi0n_14vass_reach_lib9automaton3dfa3DFAuNtNtNtB9_3cfg6update16CFGCounterUpdateEINtB9_18AutomatonIteratorsNtB9_13DeterministicE10iter_nodes0Bb_
FNDA:178,_RNCNvYINtNtNtCs2hUxDLYgi0n_14vass_reach_lib9automaton3dfa3DFAuNtNtNtB9_3cfg6update16CFGCounterUpdateEINtB9_21ExplicitEdgeAutomatonNtB9_13DeterministicE10iter_edges0Bb_
FNDA:0,_RNCNvYINtNtNtCs2hUxDLYgi0n_14vass_reach_lib9automaton3dfa3DFAuNtNtNtB9_3cfg6update16CFGCounterUpdateEINtB9_21ExplicitEdgeAutomatonNtB9_13DeterministicE35connecting_edge_indices_with_letter0Bb_
FNDA:10,_RNCNvYNtNtNtNtCs2hUxDLYgi0n_14vass_reach_lib9automaton3lsg4part8LSGGraphINtBa_21ExplicitEdgeAutomatonNtBa_13DeterministicE10iter_edges0Bc_
FNDA:17,_RNvMs8_NtCs2hUxDLYgi0n_14vass_reach_lib9automatonINtB5_14GIndexIteratorNtNtCsijRReng013a_8petgraph10graph_impl9EdgeIndexE3newB7_
FNDA:503,_RNvXs9_NtCs2hUxDLYgi0n_14vass_reach_lib9automatonINtB5_14GIndexIteratorNtNtCsijRReng013a_8petgraph10graph_impl9EdgeIndexENtNtNtNtCs7xuAoyMVi4A_4core4iter6traits8iterator8Iterator4nextB7_
FNDA:18,_RNvXs6_NtCs2hUxDLYgi0n_14vass_reach_lib9automatonjNtB5_13CompactGIndex3new
FNDA:0,_RNvXs6_NtCs2hUxDLYgi0n_14vass_reach_lib9automatonjNtB5_13CompactGIndex5empty
FNDA:14,_RNvXs6_NtCs2hUxDLYgi0n_14vass_reach_lib9automatonjNtB5_13CompactGIndex5index
FNDA:0,_RNvXs7_NtCs2hUxDLYgi0n_14vass_reach_lib9automatonmNtB5_13CompactGIndex3new
FNDA:0,_RNvXs7_NtCs2hUxDLYgi0n_14vass_reach_lib9automatonmNtB5_13CompactGIndex5empty
FNDA:0,_RNvXs7_NtCs2hUxDLYgi0n_14vass_reach_lib9automatonmNtB5_13CompactGIndex5index
FNDA:0,_RNvXsk_NtCs2hUxDLYgi0n_14vass_reach_lib9automatonuNtB5_13AutomatonEdge7matches
FNDA:0,_RNvXsl_NtCs2hUxDLYgi0n_14vass_reach_lib9automatonuNtB5_10FromLetter11from_letter
FNDA:0,_RNvXsm_NtCs2hUxDLYgi0n_14vass_reach_lib9automatonmNtB5_13AutomatonEdge7matches
FNDA:0,_RNvXsn_NtCs2hUxDLYgi0n_14vass_reach_lib9automatonmNtB5_10FromLetter11from_letter
FNDA:728660,_RNvXso_NtCs2hUxDLYgi0n_14vass_reach_lib9automatonlNtB5_13AutomatonEdge7matches
FNDA:24,_RNvXsp_NtCs2hUxDLYgi0n_14vass_reach_lib9automatonlNtB5_10FromLetter11from_letter
FNDA:0,_RNvXsq_NtCs2hUxDLYgi0n_14vass_reach_lib9automatonyNtB5_13AutomatonEdge7matches
FNDA:0,_RNvXsr_NtCs2hUxDLYgi0n_14vass_reach_lib9automatonyNtB5_10FromLetter11from_letter
FNDA:0,_RNvXss_NtCs2hUxDLYgi0n_14vass_reach_lib9automatonxNtB5_13AutomatonEdge7matches
FNDA:0,_RNvXst_NtCs2hUxDLYgi0n_14vass_reach_lib9automatonxNtB5_10FromLetter11from_letter
FNDA:0,_RNvXsu_NtCs2hUxDLYgi0n_14vass_reach_lib9automatonjNtB5_13AutomatonEdge7matches
FNDA:0,_RNvXsv_NtCs2hUxDLYgi0n_14vass_reach_lib9automatonjNtB5_10FromLetter11from_letter
FNDA:835326,_RNvXsw_NtCs2hUxDLYgi0n_14vass_reach_lib9automatoncNtB5_13AutomatonEdge7matches
FNDA:184,_RNvXsx_NtCs2hUxDLYgi0n_14vass_reach_lib9automatoncNtB5_10FromLetter11from_letter
FNDA:7,_RNvXsf_NtCs2hUxDLYgi0n_14vass_reach_lib9automatonNtNtNtB5_3lsg4part8LSGGraphINtB5_18AutomatonIteratorsNtB5_13DeterministicE17iter_node_indicesB7_
FNDA:4,_RNvYNtNtNtNtCs2hUxDLYgi0n_14vass_reach_lib9automaton3lsg4part8LSGGraphINtB8_21ExplicitEdgeAutomatonNtB8_13DeterministicE10iter_edgesBa_
FNDA:4,_RNvYNtNtNtNtCs2hUxDLYgi0n_14vass_reach_lib9automaton3lsg4part8LSGGraphINtB8_21ExplicitEdgeAutomatonNtB8_13DeterministicE17iter_edge_indicesBa_
FNDA:0,_RNvYNtNtNtNtCs2hUxDLYgi0n_14vass_reach_lib9automaton3lsg4part8LSGGraphINtB8_21ExplicitEdgeAutomatonNtB8_13DeterministicE21edge_source_uncheckedBa_
FNDA:6,_RNvYNtNtNtNtCs2hUxDLYgi0n_14vass_reach_lib9automaton3lsg4part8LSGGraphINtB8_21ExplicitEdgeAutomatonNtB8_13DeterministicE21edge_target_uncheckedBa_
FNDA:8,_RNvYNtNtNtCs2hUxDLYgi0n_14vass_reach_lib9automaton20implicit_cfg_product18ImplicitCFGProductINtB6_16TransitionSystemNtB6_13DeterministicE20undirected_neighborsB8_
FNDA:0,_RNCNvXININtCs2hUxDLYgi0n_14vass_reach_lib9automatonsi_0pEpINtB7_16TransitionSystemNtB7_13DeterministicE10successors0B9_
FNDA:0,_RNCNvXININtCs2hUxDLYgi0n_14vass_reach_lib9automatonsi_0pEpINtB7_16TransitionSystemNtB7_13DeterministicE12predecessors0B9_
FNDA:0,_RNCNvXININtCs2hUxDLYgi0n_14vass_reach_lib9automatonsj_0pEpINtB7_16TransitionSystemNtB7_16NonDeterministicE10successors0B9_
FNDA:0,_RNCNvXININtCs2hUxDLYgi0n_14vass_reach_lib9automatonsj_0pEpINtB7_16TransitionSystemNtB7_16NonDeterministicE12predecessors0B9_
FNDA:0,_RNCNvXININtCs2hUxDLYgi0n_14vass_reach_lib9automatonsj_0pEpINtB7_16TransitionSystemNtB7_16NonDeterministicE9successor0B9_
FNDA:0,_RNCNvXININtCs2hUxDLYgi0n_14vass_reach_lib9automatonsj_0pEpINtB7_16TransitionSystemNtB7_16NonDeterministicE9successors_0B9_
FNDA:0,_RNvXININtCs2hUxDLYgi0n_14vass_reach_lib9automatons2_0pEINtNtB5_4vass8VASSEdgepENtB5_13AutomatonEdge7matchesB7_
FNDA:0,_RNvXININtCs2hUxDLYgi0n_14vass_reach_lib9automatonsa_0pEINtB5_14GIndexIteratorpENtNtNtNtCs7xuAoyMVi4A_4core4iter6traits10exact_size17ExactSizeIterator3lenB7_
FNDA:0,_RNvXININtCs2hUxDLYgi0n_14vass_reach_lib9automatonsb_0pEINtB5_14GIndexIteratorpENtNtNtNtCs7xuAoyMVi4A_4core4iter6traits12double_ended19DoubleEndedIterator9next_backB7_
FNDA:0,_RNvXININtCs2hUxDLYgi0n_14vass_reach_lib9automatonsc_0pEINtB5_6FrozenpENtNtNtCs7xuAoyMVi4A_4core3ops5deref5Deref5derefB7_
FNDA:0,_RNvXININtCs2hUxDLYgi0n_14vass_reach_lib9automatonsd_0pEINtB5_6FrozenpEINtNtCs7xuAoyMVi4A_4core7convert4FromQpE4fromB7_
FNDA:0,_RNvXININtCs2hUxDLYgi0n_14vass_reach_lib9automatonsi_0pEpINtB5_16TransitionSystemNtB5_13DeterministicE10successorsB7_
FNDA:0,_RNvXININtCs2hUxDLYgi0n_14vass_reach_lib9automatonsi_0pEpINtB5_16TransitionSystemNtB5_13DeterministicE12predecessorsB7_
FNDA:0,_RNvXININtCs2hUxDLYgi0n_14vass_reach_lib9automatonsj_0pEpINtB5_16TransitionSystemNtB5_16NonDeterministicE10successorsB7_
FNDA:0,_RNvXININtCs2hUxDLYgi0n_14vass_reach_lib9automatonsj_0pEpINtB5_16TransitionSystemNtB5_16NonDeterministicE12predecessorsB7_
FNDA:0,_RNvXININtCs2hUxDLYgi0n_14vass_reach_lib9automatonsj_0pEpINtB5_16TransitionSystemNtB5_16NonDeterministicE9successorB7_
FNDA:0,_RNvYpINtNtCs2hUxDLYgi0n_14vass_reach_lib9automaton21ExplicitEdgeAutomatonpE11edge_sourceB8_
FNDA:0,_RNvYpINtNtCs2hUxDLYgi0n_14vass_reach_lib9automaton21ExplicitEdgeAutomatonpE11edge_targetB8_
FNDA:0,_RNvYpINtNtCs2hUxDLYgi0n_14vass_reach_lib9automaton21ExplicitEdgeAutomatonpE23undirected_edge_indicesB8_
FNDA:32036,_RNvXs1_NtCs2hUxDLYgi0n_14vass_reach_lib9automatonINtNtB5_3nfa7NFAEdgeNtNtNtB5_3cfg6update16CFGCounterUpdateENtB5_13AutomatonEdge7matchesB7_
FNDA:861465,_RNvXsy_NtCs2hUxDLYgi0n_14vass_reach_lib9automatonNtNtNtB5_3cfg6update16CFGCounterUpdateNtB5_13AutomatonEdge7matches
FNDA:3478,_RNvXsz_NtCs2hUxDLYgi0n_14vass_reach_lib9automatonNtNtNtB5_3cfg6update16CFGCounterUpdateNtB5_10FromLetter11from_letter
FNDA:10,_RNvYINtNtNtNtCs2hUxDLYgi0n_14vass_reach_lib9automaton4vass11initialized15InitializedVASSulEINtB9_21ExplicitEdgeAutomatonNtB9_13DeterministicE21edge_target_uncheckedCsjA5qX5JEwPT_16graph_algorithms
FNDA:19,_RNCNvXsi_NtCs2hUxDLYgi0n_14vass_reach_lib9automatonINtNtB7_3dfa3DFAuNtNtNtB7_3cfg6update16CFGCounterUpdateEINtB7_16TransitionSystemNtB7_13DeterministicE10successors0CsjA5qX5JEwPT_16graph_algorithms
FNDA:11,_RNvXsi_NtCs2hUxDLYgi0n_14vass_reach_lib9automatonINtNtB5_3dfa3DFAuNtNtNtB5_3cfg6update16CFGCounterUpdateEINtB5_16TransitionSystemNtB5_13DeterministicE10successorsCsjA5qX5JEwPT_16graph_algorithms
FNDA:10,_RNvYINtNtNtNtCs2hUxDLYgi0n_14vass_reach_lib9automaton4vass11initialized15InitializedVASSulEINtB9_21ExplicitEdgeAutomatonNtB9_13DeterministicE21edge_target_uncheckedCs3ATG82DPHTL_3lgs
FNDA:12,_RNvYINtNtNtNtCs2hUxDLYgi0n_14vass_reach_lib9automaton4vass11initialized15InitializedVASSjjEINtB9_21ExplicitEdgeAutomatonNtB9_13DeterministicE21edge_target_uncheckedCsdx2WVSQjOLl_3ltc
FNDA:14849,_RNvXs1_NtCs2hUxDLYgi0n_14vass_reach_lib9automatonINtNtB5_3nfa7NFAEdgecENtB5_13AutomatonEdge7matchesCsbz10sC9QTBK_3nfa
FNDA:804,_RNvXs1_NtCs2hUxDLYgi0n_14vass_reach_lib9automatonINtNtB5_3nfa7NFAEdgecENtB5_13AutomatonEdge7matchesCs5AE6hNTjqZK_13nfa_invariant
FNDA:2,_RNCNvXsi_NtCs2hUxDLYgi0n_14vass_reach_lib9automatonINtNtB7_3dfa3DFAucEINtB7_16TransitionSystemNtB7_13DeterministicE9successor0Cs9XXF3XtrrPR_4path
FNDA:2,_RNCNvXsi_NtCs2hUxDLYgi0n_14vass_reach_lib9automatonINtNtB7_3dfa3DFAucEINtB7_16TransitionSystemNtB7_13DeterministicE9successors_0Cs9XXF3XtrrPR_4path
FNDA:3,_RNvXsi_NtCs2hUxDLYgi0n_14vass_reach_lib9automatonINtNtB5_3dfa3DFAucEINtB5_16TransitionSystemNtB5_13DeterministicE9successorCs9XXF3XtrrPR_4path
FNDA:2,_RNvYINtNtNtCs2hUxDLYgi0n_14vass_reach_lib9automaton3dfa3DFAucEINtB7_21ExplicitEdgeAutomatonNtB7_13DeterministicE21edge_target_uncheckedCs9XXF3XtrrPR_4path
FNDA:4,_RNvYINtNtNtNtCs2hUxDLYgi0n_14vass_reach_lib9automaton4vass11initialized15InitializedVASSjjEINtB9_21ExplicitEdgeAutomatonNtB9_13DeterministicE21edge_target_uncheckedCsgHwEJVtWcfn_14petri_net_spec
FNDA:3,_RNvYINtNtNtNtCs2hUxDLYgi0n_14vass_reach_lib9automaton4vass11initialized15InitializedVASSmcEINtB9_21ExplicitEdgeAutomatonNtB9_13DeterministicE21edge_target_uncheckedCsbhGvosVcoyU_4vass
FNDA:21,_RNvXs2_NtCs2hUxDLYgi0n_14vass_reach_lib9automatonINtNtB5_4vass8VASSEdgecENtB5_13AutomatonEdge7matchesCsbhGvosVcoyU_4vass
FNDA:20,_RNvYINtNtNtNtCs2hUxDLYgi0n_14vass_reach_lib9automaton4vass11initialized15InitializedVASSjjEINtB9_21ExplicitEdgeAutomatonNtB9_13DeterministicE21edge_target_uncheckedCsaYjQXJDQq9v_12vass_n_reach
FNDA:14,_RNvYINtNtNtNtCs2hUxDLYgi0n_14vass_reach_lib9automaton4vass11initialized15InitializedVASSmcEINtB9_21ExplicitEdgeAutomatonNtB9_13DeterministicE21edge_target_uncheckedCsaYjQXJDQq9v_12vass_n_reach
FNDA:0,_RNCNCNvYpINtNtCs8RRi2RJs6bh_14vass_reach_lib9automaton18AutomatonIteratorspE10iter_nodes00Bc_
FNDA:0,_RNCNCNvYpINtNtCs8RRi2RJs6bh_14vass_reach_lib9automaton21ExplicitEdgeAutomatonpE10iter_edges00Bc_
FNDA:0,_RNCNvXININtCs8RRi2RJs6bh_14vass_reach_lib9automatonsi_0pEpINtB7_16TransitionSystemNtB7_13DeterministicE10successors0B9_
FNDA:0,_RNCNvXININtCs8RRi2RJs6bh_14vass_reach_lib9automatonsi_0pEpINtB7_16TransitionSystemNtB7_13DeterministicE12predecessors0B9_
FNDA:0,_RNCNvXININtCs8RRi2RJs6bh_14vass_reach_lib9automatonsi_0pEpINtB7_16TransitionSystemNtB7_13DeterministicE9successor0B9_
FNDA:0,_RNCNvXININtCs8RRi2RJs6bh_14vass_reach_lib9automatonsi_0pEpINtB7_16TransitionSystemNtB7_13DeterministicE9successors_0B9_
FNDA:0,_RNCNvXININtCs8RRi2RJs6bh_14vass_reach_lib9automatonsj_0pEpINtB7_16TransitionSystemNtB7_16NonDeterministicE10successors0B9_
FNDA:0,_RNCNvXININtCs8RRi2RJs6bh_14vass_reach_lib9automatonsj_0pEpINtB7_16TransitionSystemNtB7_16NonDeterministicE12predecessors0B9_
FNDA:0,_RNCNvXININtCs8RRi2RJs6bh_14vass_reach_lib9automatonsj_0pEpINtB7_16TransitionSystemNtB7_16NonDeterministicE9successor0B9_
FNDA:0,_RNCNvXININtCs8RRi2RJs6bh_14vass_reach_lib9automatonsj_0pEpINtB7_16TransitionSystemNtB7_16NonDeterministicE9successors_0B9_
FNDA:0,_RNCNvYpINtNtCs8RRi2RJs6bh_14vass_reach_lib9automaton18AutomatonIteratorspE10iter_nodes0Ba_
FNDA:0,_RNCNvYpINtNtCs8RRi2RJs6bh_14vass_reach_lib9automaton21ExplicitEdgeAutomatonpE10iter_edges0Ba_
FNDA:0,_RNCNvYpINtNtCs8RRi2RJs6bh_14vass_reach_lib9automaton21ExplicitEdgeAutomatonpE35connecting_edge_indices_with_letter0Ba_
FNDA:0,_RNvMs8_NtCs8RRi2RJs6bh_14vass_reach_lib9automatonINtB5_14GIndexIteratorpE3newB7_
FNDA:0,_RNvXININtCs8RRi2RJs6bh_14vass_reach_lib9automatons1_0pEINtNtB5_3nfa7NFAEdgepENtB5_13AutomatonEdge7matchesB7_
FNDA:0,_RNvXININtCs8RRi2RJs6bh_14vass_reach_lib9automatons2_0pEINtNtB5_4vass8VASSEdgepENtB5_13AutomatonEdge7matchesB7_
FNDA:0,_RNvXININtCs8RRi2RJs6bh_14vass_reach_lib9automatons9_0pEINtB5_14GIndexIteratorpENtNtNtNtCs7xuAoyMVi4A_4core4iter6traits8iterator8Iterator4nextB7_
FNDA:0,_RNvXININtCs8RRi2RJs6bh_14vass_reach_lib9automatonsa_0pEINtB5_14GIndexIteratorpENtNtNtNtCs7xuAoyMVi4A_4core4iter6traits10exact_size17ExactSizeIterator3lenB7_
FNDA:0,_RNvXININtCs8RRi2RJs6bh_14vass_reach_lib9automatonsb_0pEINtB5_14GIndexIteratorpENtNtNtNtCs7xuAoyMVi4A_4core4iter6traits12double_ended19DoubleEndedIterator9next_backB7_
FNDA:0,_RNvXININtCs8RRi2RJs6bh_14vass_reach_lib9automatonsc_0pEINtB5_6FrozenpENtNtNtCs7xuAoyMVi4A_4core3ops5deref5Deref5derefB7_
FNDA:0,_RNvXININtCs8RRi2RJs6bh_14vass_reach_lib9automatonsd_0pEINtB5_6FrozenpEINtNtCs7xuAoyMVi4A_4core7convert4FromQpE4fromB7_
FNDA:0,_RNvXININtCs8RRi2RJs6bh_14vass_reach_lib9automatonsf_0ppEpINtB5_18AutomatonIteratorspE17iter_node_indicesB7_
FNDA:0,_RNvXININtCs8RRi2RJs6bh_14vass_reach_lib9automatonsi_0pEpINtB5_16TransitionSystemNtB5_13DeterministicE10successorsB7_
FNDA:0,_RNvXININtCs8RRi2RJs6bh_14vass_reach_lib9automatonsi_0pEpINtB5_16TransitionSystemNtB5_13DeterministicE12predecessorsB7_
FNDA:0,_RNvXININtCs8RRi2RJs6bh_14vass_reach_lib9automatonsi_0pEpINtB5_16TransitionSystemNtB5_13DeterministicE9successorB7_
FNDA:0,_RNvXININtCs8RRi2RJs6bh_14vass_reach_lib9automatonsj_0pEpINtB5_16TransitionSystemNtB5_16NonDeterministicE10successorsB7_
FNDA:0,_RNvXININtCs8RRi2RJs6bh_14vass_reach_lib9automatonsj_0pEpINtB5_16TransitionSystemNtB5_16NonDeterministicE12predecessorsB7_
FNDA:0,_RNvXININtCs8RRi2RJs6bh_14vass_reach_lib9automatonsj_0pEpINtB5_16TransitionSystemNtB5_16NonDeterministicE9successorB7_
FNDA:0,_RNvXs0_NtCs8RRi2RJs6bh_14vass_reach_lib9automatonNtNtCs1EFbPCGXlWb_5alloc6string6StringNtB5_10FromLetter11from_letter
FNDA:0,_RNvXs4_NtCs8RRi2RJs6bh_14vass_reach_lib9automatonNtNtCsijRReng013a_8petgraph10graph_impl9NodeIndexNtB5_13CompactGIndex3new
FNDA:0,_RNvXs4_NtCs8RRi2RJs6bh_14vass_reach_lib9automatonNtNtCsijRReng013a_8petgraph10graph_impl9NodeIndexNtB5_13CompactGIndex5empty
FNDA:0,_RNvXs4_NtCs8RRi2RJs6bh_14vass_reach_lib9automatonNtNtCsijRReng013a_8petgraph10graph_impl9NodeIndexNtB5_13CompactGIndex5index
FNDA:0,_RNvXs5_NtCs8RRi2RJs6bh_14vass_reach_lib9automatonNtNtCsijRReng013a_8petgraph10graph_impl9EdgeIndexNtB5_13CompactGIndex3new
FNDA:0,_RNvXs5_NtCs8RRi2RJs6bh_14vass_reach_lib9automatonNtNtCsijRReng013a_8petgraph10graph_impl9EdgeIndexNtB5_13CompactGIndex5empty
FNDA:0,_RNvXs5_NtCs8RRi2RJs6bh_14vass_reach_lib9automatonNtNtCsijRReng013a_8petgraph10graph_impl9EdgeIndexNtB5_13CompactGIndex5index
FNDA:0,_RNvXs6_NtCs8RRi2RJs6bh_14vass_reach_lib9automatonjNtB5_13CompactGIndex3new
FNDA:0,_RNvXs6_NtCs8RRi2RJs6bh_14vass_reach_lib9automatonjNtB5_13CompactGIndex5empty
FNDA:0,_RNvXs6_NtCs8RRi2RJs6bh_14vass_reach_lib9automatonjNtB5_13CompactGIndex5index
FNDA:0,_RNvXs7_NtCs8RRi2RJs6bh_14vass_reach_lib9automatonmNtB5_13CompactGIndex3new
FNDA:0,_RNvXs7_NtCs8RRi2RJs6bh_14vass_reach_lib9automatonmNtB5_13CompactGIndex5empty
FNDA:0,_RNvXs7_NtCs8RRi2RJs6bh_14vass_reach_lib9automatonmNtB5_13CompactGIndex5index
FNDA:0,_RNvXs_NtCs8RRi2RJs6bh_14vass_reach_lib9automatonNtNtCs1EFbPCGXlWb_5alloc6string6StringNtB4_13AutomatonEdge7matches
FNDA:0,_RNvXsk_NtCs8RRi2RJs6bh_14vass_reach_lib9automatonuNtB5_13AutomatonEdge7matches
FNDA:0,_RNvXsl_NtCs8RRi2RJs6bh_14vass_reach_lib9automatonuNtB5_10FromLetter11from_letter
FNDA:0,_RNvXsm_NtCs8RRi2RJs6bh_14vass_reach_lib9automatonmNtB5_13AutomatonEdge7matches
FNDA:0,_RNvXsn_NtCs8RRi2RJs6bh_14vass_reach_lib9automatonmNtB5_10FromLetter11from_letter
FNDA:0,_RNvXso_NtCs8RRi2RJs6bh_14vass_reach_lib9automatonlNtB5_13AutomatonEdge7matches
FNDA:0,_RNvXsp_NtCs8RRi2RJs6bh_14vass_reach_lib9automatonlNtB5_10FromLetter11from_letter
FNDA:0,_RNvXsq_NtCs8RRi2RJs6bh_14vass_reach_lib9automatonyNtB5_13AutomatonEdge7matches
FNDA:0,_RNvXsr_NtCs8RRi2RJs6bh_14vass_reach_lib9automatonyNtB5_10FromLetter11from_letter
FNDA:0,_RNvXss_NtCs8RRi2RJs6bh_14vass_reach_lib9automatonxNtB5_13AutomatonEdge7matches
FNDA:0,_RNvXst_NtCs8RRi2RJs6bh_14vass_reach_lib9automatonxNtB5_10FromLetter11from_letter
FNDA:0,_RNvXsu_NtCs8RRi2RJs6bh_14vass_reach_lib9automatonjNtB5_13AutomatonEdge7matches
FNDA:0,_RNvXsv_NtCs8RRi2RJs6bh_14vass_reach_lib9automatonjNtB5_10FromLetter11from_letter
FNDA:0,_RNvXsw_NtCs8RRi2RJs6bh_14vass_reach_lib9automatoncNtB5_13AutomatonEdge7matches
FNDA:0,_RNvXsx_NtCs8RRi2RJs6bh_14vass_reach_lib9automatoncNtB5_10FromLetter11from_letter
FNDA:0,_RNvXsy_NtCs8RRi2RJs6bh_14vass_reach_lib9automatonNtNtNtB5_3cfg6update16CFGCounterUpdateNtB5_13AutomatonEdge7matches
FNDA:0,_RNvXsz_NtCs8RRi2RJs6bh_14vass_reach_lib9automatonNtNtNtB5_3cfg6update16CFGCounterUpdateNtB5_10FromLetter11from_letter
FNDA:0,_RNvYpINtNtCs8RRi2RJs6bh_14vass_reach_lib9automaton16TransitionSystempE20undirected_neighborsB8_
FNDA:0,_RNvYpINtNtCs8RRi2RJs6bh_14vass_reach_lib9automaton18AutomatonIteratorspE10iter_nodesB8_
FNDA:0,_RNvYpINtNtCs8RRi2RJs6bh_14vass_reach_lib9automaton21ExplicitEdgeAutomatonpE10iter_edgesB8_
FNDA:0,_RNvYpINtNtCs8RRi2RJs6bh_14vass_reach_lib9automaton21ExplicitEdgeAutomatonpE11edge_sourceB8_
FNDA:0,_RNvYpINtNtCs8RRi2RJs6bh_14vass_reach_lib9automaton21ExplicitEdgeAutomatonpE11edge_targetB8_
FNDA:0,_RNvYpINtNtCs8RRi2RJs6bh_14vass_reach_lib9automaton21ExplicitEdgeAutomatonpE17iter_edge_indicesB8_
FNDA:0,_RNvYpINtNtCs8RRi2RJs6bh_14vass_reach_lib9automaton21ExplicitEdgeAutomatonpE21edge_source_uncheckedB8_
FNDA:0,_RNvYpINtNtCs8RRi2RJs6bh_14vass_reach_lib9automaton21ExplicitEdgeAutomatonpE21edge_target_uncheckedB8_
FNDA:0,_RNvYpINtNtCs8RRi2RJs6bh_14vass_reach_lib9automaton21ExplicitEdgeAutomatonpE23undirected_edge_indicesB8_
FNDA:0,_RNvYpINtNtCs8RRi2RJs6bh_14vass_reach_lib9automaton21ExplicitEdgeAutomatonpE35connecting_edge_indices_with_letterB8_
FNDA:12,_RNvYINtNtNtNtCs2hUxDLYgi0n_14vass_reach_lib9automaton4vass11initialized15InitializedVASSjjEINtB9_21ExplicitEdgeAutomatonNtB9_13DeterministicE21edge_target_uncheckedCseoIxkIhB6T8_12vass_z_reach
FNDA:8,_RNvYINtNtNtNtCs2hUxDLYgi0n_14vass_reach_lib9automaton4vass11initialized15InitializedVASSmcEINtB9_21ExplicitEdgeAutomatonNtB9_13DeterministicE21edge_target_uncheckedCseoIxkIhB6T8_12vass_z_reach
FNF:54
FNH:25
DA:50,2425451
DA:51,2425451
DA:52,2425451
DA:55,3686
DA:56,3686
DA:57,3686
DA:75,0
DA:76,0
DA:77,0
DA:80,0
DA:81,0
DA:82,0
DA:88,47707
DA:89,47707
DA:90,41879
DA:91,5828
DA:93,47707
DA:99,21
DA:100,21
DA:101,21
DA:122,118
DA:123,118
DA:124,118
DA:126,3923
DA:127,3923
DA:128,3923
DA:130,0
DA:131,0
DA:132,0
DA:136,2661
DA:137,2661
DA:138,2661
DA:140,1746
DA:141,1746
DA:142,1746
DA:144,0
DA:145,0
DA:146,0
DA:150,18
DA:151,18
DA:152,18
DA:154,14
DA:155,14
DA:156,14
DA:158,0
DA:159,0
DA:160,0
DA:164,0
DA:165,0
DA:166,0
DA:168,0
DA:169,0
DA:170,0
DA:172,0
DA:173,0
DA:174,0
DA:186,17
DA:187,17
DA:188,17
DA:189,17
DA:190,17
DA:191,17
DA:192,17
DA:198,503
DA:199,503
DA:200,486
DA:201,486
DA:202,486
DA:204,17
DA:206,503
DA:210,0
DA:211,0
DA:212,0
DA:216,0
DA:217,0
DA:218,0
DA:219,0
DA:220,0
DA:222,0
DA:224,0
DA:234,0
DA:235,0
DA:236,0
DA:240,0
DA:241,0
DA:242,0
DA:279,0
DA:280,0
DA:281,0
DA:282,0
DA:284,0
DA:285,0
DA:286,0
DA:297,23
DA:298,23
DA:299,23
DA:301,23
DA:302,23
DA:354,8
DA:355,8
DA:356,8
DA:357,8
DA:358,8
DA:359,8
DA:360,8
DA:361,8
DA:362,8
DA:366,28402
DA:367,28402
DA:368,103856
DA:369,28402
DA:370,28402
DA:372,11
DA:373,11
DA:374,11
DA:375,11
DA:376,11
DA:377,11
DA:378,19
DA:380,11
DA:382,0
DA:383,0
DA:384,0
DA:385,0
DA:386,0
DA:387,0
DA:388,0
DA:390,0
DA:394,0
DA:395,0
DA:396,0
DA:397,0
DA:398,0
DA:399,0
DA:401,0
DA:402,0
DA:403,0
DA:404,0
DA:405,0
DA:406,0
DA:407,0
DA:409,0
DA:411,0
DA:412,0
DA:413,0
DA:414,0
DA:415,0
DA:416,0
DA:417,0
DA:419,0
DA:457,0
DA:458,0
DA:459,0
DA:462,0
DA:463,0
DA:464,0
DA:468,257
DA:469,257
DA:470,257
DA:473,28570
DA:474,28570
DA:475,28570
DA:478,17
DA:479,17
DA:480,17
DA:484,9
DA:485,9
DA:486,9
DA:488,9
DA:489,188
DA:490,9
DA:497,0
DA:498,0
DA:499,0
DA:500,0
DA:512,0
DA:513,0
DA:514,0
DA:515,0
DA:516,0
DA:517,0
DA:518,0
DA:519,0
DA:520,0
BRF:0
BRH:0
LF:197
LH:93
end_of_record
SF:/home/lemon/src/rust-automata/packages/vass-reach-lib/src/automaton/nfa.rs
FN:156,_RNCNvMs0_NtNtCs2hUxDLYgi0n_14vass_reach_lib9automaton3nfaINtB7_3NFAucE16is_accepting_set0Cs43NobSSaLSd_3dfa
FN:21,_RNvMNtNtCs2hUxDLYgi0n_14vass_reach_lib9automaton3nfaINtB2_7NFAEdgecE10is_epsilonCs43NobSSaLSd_3dfa
FN:64,_RNvMs0_NtNtCs2hUxDLYgi0n_14vass_reach_lib9automaton3nfaINtB5_3NFAucE11determinizeCs43NobSSaLSd_3dfa
FN:53,_RNvMs0_NtNtCs2hUxDLYgi0n_14vass_reach_lib9automaton3nfaINtB5_3NFAucE11set_initialCs43NobSSaLSd_3dfa
FN:150,_RNvMs0_NtNtCs2hUxDLYgi0n_14vass_reach_lib9automaton3nfaINtB5_3NFAucE12is_acceptingCs43NobSSaLSd_3dfa
FN:57,_RNvMs0_NtNtCs2hUxDLYgi0n_14vass_reach_lib9automaton3nfaINtB5_3NFAucE13set_acceptingCs43NobSSaLSd_3dfa
FN:160,_RNvMs0_NtNtCs2hUxDLYgi0n_14vass_reach_lib9automaton3nfaINtB5_3NFAucE14state_from_setCs43NobSSaLSd_3dfa
FN:155,_RNvMs0_NtNtCs2hUxDLYgi0n_14vass_reach_lib9automaton3nfaINtB5_3NFAucE16is_accepting_setCs43NobSSaLSd_3dfa
FN:133,_RNvMs0_NtNtCs2hUxDLYgi0n_14vass_reach_lib9automaton3nfaINtB5_3NFAucE19extend_to_e_closureCs43NobSSaLSd_3dfa
FN:43,_RNvMs0_NtNtCs2hUxDLYgi0n_14vass_reach_lib9automaton3nfaINtB5_3NFAucE3newCs43NobSSaLSd_3dfa
FN:256,_RNvXs4_NtNtCs2hUxDLYgi0n_14vass_reach_lib9automaton3nfaINtB5_3NFAucEINtB7_19ModifiableAutomatonNtB7_16NonDeterministicE8add_edgeCs43NobSSaLSd_3dfa
FN:252,_RNvXs4_NtNtCs2hUxDLYgi0n_14vass_reach_lib9automaton3nfaINtB5_3NFAucEINtB7_19ModifiableAutomatonNtB7_16NonDeterministicE8add_nodeCs43NobSSaLSd_3dfa
FN:273,_RINvXININtNtCs2hUxDLYgi0n_14vass_reach_lib9automaton3nfas4_0ppEINtB6_3NFAppEINtB8_19ModifiableAutomatonNtB8_16NonDeterministicE12retain_nodespEBa_
FN:300,_RINvXININtNtCs2hUxDLYgi0n_14vass_reach_lib9automaton3nfas6_0ppEINtB6_3NFAppENtB8_8Language7acceptspEBa_
FN:170,_RNCNvMs0_NtNtCs2hUxDLYgi0n_14vass_reach_lib9automaton3nfaINtB7_3NFAppE13node_data_set0Bb_
FN:235,_RNCNvXININtNtCs2hUxDLYgi0n_14vass_reach_lib9automaton3nfas3_0ppEINtB7_3NFAppEINtB9_21ExplicitEdgeAutomatonNtB9_16NonDeterministicE21incoming_edge_indices0Bb_
FN:229,_RNCNvXININtNtCs2hUxDLYgi0n_14vass_reach_lib9automaton3nfas3_0ppEINtB7_3NFAppEINtB9_21ExplicitEdgeAutomatonNtB9_16NonDeterministicE21outgoing_edge_indices0Bb_
FN:245,_RNCNvXININtNtCs2hUxDLYgi0n_14vass_reach_lib9automaton3nfas3_0ppEINtB7_3NFAppEINtB9_21ExplicitEdgeAutomatonNtB9_16NonDeterministicE23connecting_edge_indices0Bb_
FN:169,_RNvMs0_NtNtCs2hUxDLYgi0n_14vass_reach_lib9automaton3nfaINtB5_3NFAppE13node_data_setB9_
FN:164,_RNvMs0_NtNtCs2hUxDLYgi0n_14vass_reach_lib9automaton3nfaINtB5_3NFAppE9node_dataB9_
FN:177,_RNvXININtNtCs2hUxDLYgi0n_14vass_reach_lib9automaton3nfas1_0ppEINtB5_3NFAppENtB7_8Alphabet8alphabetB9_
FN:186,_RNvXININtNtCs2hUxDLYgi0n_14vass_reach_lib9automaton3nfas2_0ppEINtB5_3NFAppEINtB7_9AutomatonNtB7_16NonDeterministicE10node_countB9_
FN:194,_RNvXININtNtCs2hUxDLYgi0n_14vass_reach_lib9automaton3nfas2_0ppEINtB5_3NFAppEINtB7_9AutomatonNtB7_16NonDeterministicE18get_node_uncheckedB9_
FN:190,_RNvXININtNtCs2hUxDLYgi0n_14vass_reach_lib9automaton3nfas2_0ppEINtB5_3NFAppEINtB7_9AutomatonNtB7_16NonDeterministicE8get_nodeB9_
FN:206,_RNvXININtNtCs2hUxDLYgi0n_14vass_reach_lib9automaton3nfas3_0ppEINtB5_3NFAppEINtB7_21ExplicitEdgeAutomatonNtB7_16NonDeterministicE10edge_countB9_
FN:218,_RNvXININtNtCs2hUxDLYgi0n_14vass_reach_lib9automaton3nfas3_0ppEINtB5_3NFAppEINtB7_21ExplicitEdgeAutomatonNtB7_16NonDeterministicE14edge_endpointsB9_
FN:214,_RNvXININtNtCs2hUxDLYgi0n_14vass_reach_lib9automaton3nfas3_0ppEINtB5_3NFAppEINtB7_21ExplicitEdgeAutomatonNtB7_16NonDeterministicE18get_edge_uncheckedB9_
FN:232,_RNvXININtNtCs2hUxDLYgi0n_14vass_reach_lib9automaton3nfas3_0ppEINtB5_3NFAppEINtB7_21ExplicitEdgeAutomatonNtB7_16NonDeterministicE21incoming_edge_indicesB9_
FN:226,_RNvXININtNtCs2hUxDLYgi0n_14vass_reach_lib9automaton3nfas3_0ppEINtB5_3NFAppEINtB7_21ExplicitEdgeAutomatonNtB7_16NonDeterministicE21outgoing_edge_indicesB9_
FN:238,_RNvXININtNtCs2hUxDLYgi0n_14vass_reach_lib9automaton3nfas3_0ppEINtB5_3NFAppEINtB7_21ExplicitEdgeAutomatonNtB7_16NonDeterministicE23connecting_edge_indicesB9_
FN:222,_RNvXININtNtCs2hUxDLYgi0n_14vass_reach_lib9automaton3nfas3_0ppEINtB5_3NFAppEINtB7_21ExplicitEdgeAutomatonNtB7_16NonDeterministicE24edge_endpoints_uncheckedB9_
FN:210,_RNvXININtNtCs2hUxDLYgi0n_14vass_reach_lib9automaton3nfas3_0ppEINtB5_3NFAppEINtB7_21ExplicitEdgeAutomatonNtB7_16NonDeterministicE8get_edgeB9_
FN:269,_RNvXININtNtCs2hUxDLYgi0n_14vass_reach_lib9automaton3nfas4_0ppEINtB5_3NFAppEINtB7_19ModifiableAutomatonNtB7_16NonDeterministicE11remove_edgeB9_
FN:265,_RNvXININtNtCs2hUxDLYgi0n_14vass_reach_lib9automaton3nfas4_0ppEINtB5_3NFAppEINtB7_19ModifiableAutomatonNtB7_16NonDeterministicE11remove_nodeB9_
FN:288,_RNvXININtNtCs2hUxDLYgi0n_14vass_reach_lib9automaton3nfas5_0ppEINtB5_3NFAppEINtB7_20InitializedAutomatonNtB7_16NonDeterministicE11get_initialB9_
FN:292,_RNvXININtNtCs2hUxDLYgi0n_14vass_reach_lib9automaton3nfas5_0ppEINtB5_3NFAppEINtB7_20InitializedAutomatonNtB7_16NonDeterministicE12is_acceptingB9_
FN:27,_RNvXININtNtCs2hUxDLYgi0n_14vass_reach_lib9automaton3nfas_0pEINtB5_7NFAEdgepEINtNtCs7xuAoyMVi4A_4core7convert4FromINtNtB1h_6option6OptionpEE4fromB9_
FN:156,_RNCNvMs0_NtNtCs2hUxDLYgi0n_14vass_reach_lib9automaton3nfaINtB7_3NFAuNtNtNtB9_3cfg6update16CFGCounterUpdateE16is_accepting_set0Bb_
FN:21,_RNvMNtNtCs2hUxDLYgi0n_14vass_reach_lib9automaton3nfaINtB2_7NFAEdgeNtNtNtB4_3cfg6update16CFGCounterUpdateE10is_epsilonB6_
FN:64,_RNvMs0_NtNtCs2hUxDLYgi0n_14vass_reach_lib9automaton3nfaINtB5_3NFAuNtNtNtB7_3cfg6update16CFGCounterUpdateE11determinizeB9_
FN:53,_RNvMs0_NtNtCs2hUxDLYgi0n_14vass_reach_lib9automaton3nfaINtB5_3NFAuNtNtNtB7_3cfg6update16CFGCounterUpdateE11set_initialB9_
FN:150,_RNvMs0_NtNtCs2hUxDLYgi0n_14vass_reach_lib9automaton3nfaINtB5_3NFAuNtNtNtB7_3cfg6update16CFGCounterUpdateE12is_acceptingB9_
FN:57,_RNvMs0_NtNtCs2hUxDLYgi0n_14vass_reach_lib9automaton3nfaINtB5_3NFAuNtNtNtB7_3cfg6update16CFGCounterUpdateE13set_acceptingB9_
FN:160,_RNvMs0_NtNtCs2hUxDLYgi0n_14vass_reach_lib9automaton3nfaINtB5_3NFAuNtNtNtB7_3cfg6update16CFGCounterUpdateE14state_from_setB9_
FN:155,_RNvMs0_NtNtCs2hUxDLYgi0n_14vass_reach_lib9automaton3nfaINtB5_3NFAuNtNtNtB7_3cfg6update16CFGCounterUpdateE16is_accepting_setB9_
FN:133,_RNvMs0_NtNtCs2hUxDLYgi0n_14vass_reach_lib9automaton3nfaINtB5_3NFAuNtNtNtB7_3cfg6update16CFGCounterUpdateE19extend_to_e_closureB9_
FN:43,_RNvMs0_NtNtCs2hUxDLYgi0n_14vass_reach_lib9automaton3nfaINtB5_3NFAuNtNtNtB7_3cfg6update16CFGCounterUpdateE3newB9_
FN:256,_RNvXs4_NtNtCs2hUxDLYgi0n_14vass_reach_lib9automaton3nfaINtB5_3NFAuNtNtNtB7_3cfg6update16CFGCounterUpdateEINtB7_19ModifiableAutomatonNtB7_16NonDeterministicE8add_edgeB9_
FN:252,_RNvXs4_NtNtCs2hUxDLYgi0n_14vass_reach_lib9automaton3nfaINtB5_3NFAuNtNtNtB7_3cfg6update16CFGCounterUpdateEINtB7_19ModifiableAutomatonNtB7_16NonDeterministicE8add_nodeB9_
FN:156,_RNCNvMs0_NtNtCs2hUxDLYgi0n_14vass_reach_lib9automaton3nfaINtB7_3NFAINtNtCs7xuAoyMVi4A_4core6option6OptionuENtNtNtB9_3cfg6update16CFGCounterUpdateE16is_accepting_set0CsjA5qX5JEwPT_16graph_algorithms
FN:64,_RNvMs0_NtNtCs2hUxDLYgi0n_14vass_reach_lib9automaton3nfaINtB5_3NFAINtNtCs7xuAoyMVi4A_4core6option6OptionuENtNtNtB7_3cfg6update16CFGCounterUpdateE11determinizeCsjA5qX5JEwPT_16graph_algorithms
FN:53,_RNvMs0_NtNtCs2hUxDLYgi0n_14vass_reach_lib9automaton3nfaINtB5_3NFAINtNtCs7xuAoyMVi4A_4core6option6OptionuENtNtNtB7_3cfg6update16CFGCounterUpdateE11set_initialCsjA5qX5JEwPT_16graph_algorithms
FN:150,_RNvMs0_NtNtCs2hUxDLYgi0n_14vass_reach_lib9automaton3nfaINtB5_3NFAINtNtCs7xuAoyMVi4A_4core6option6OptionuENtNtNtB7_3cfg6update16CFGCounterUpdateE12is_acceptingCsjA5qX5JEwPT_16graph_algorithms
FN:160,_RNvMs0_NtNtCs2hUxDLYgi0n_14vass_reach_lib9automaton3nfaINtB5_3NFAINtNtCs7xuAoyMVi4A_4core6option6OptionuENtNtNtB7_3cfg6update16CFGCounterUpdateE14state_from_setCsjA5qX5JEwPT_16graph_algorithms
FN:155,_RNvMs0_NtNtCs2hUxDLYgi0n_14vass_reach_lib9automaton3nfaINtB5_3NFAINtNtCs7xuAoyMVi4A_4core6option6OptionuENtNtNtB7_3cfg6update16CFGCounterUpdateE16is_accepting_setCsjA5qX5JEwPT_16graph_algorithms
FN:133,_RNvMs0_NtNtCs2hUxDLYgi0n_14vass_reach_lib9automaton3nfaINtB5_3NFAINtNtCs7xuAoyMVi4A_4core6option6OptionuENtNtNtB7_3cfg6update16CFGCounterUpdateE19extend_to_e_closureCsjA5qX5JEwPT_16graph_algorithms
FN:43,_RNvMs0_NtNtCs2hUxDLYgi0n_14vass_reach_lib9automaton3nfaINtB5_3NFAINtNtCs7xuAoyMVi4A_4core6option6OptionuENtNtNtB7_3cfg6update16CFGCounterUpdateE3newCsjA5qX5JEwPT_16graph_algorithms
FN:256,_RNvXs4_NtNtCs2hUxDLYgi0n_14vass_reach_lib9automaton3nfaINtB5_3NFAINtNtCs7xuAoyMVi4A_4core6option6OptionuENtNtNtB7_3cfg6update16CFGCounterUpdateEINtB7_19ModifiableAutomatonNtB7_16NonDeterministicE8add_edgeCsjA5qX5JEwPT_16graph_algorithms
FN:252,_RNvXs4_NtNtCs2hUxDLYgi0n_14vass_reach_lib9automaton3nfaINtB5_3NFAINtNtCs7xuAoyMVi4A_4core6option6OptionuENtNtNtB7_3cfg6update16CFGCounterUpdateEINtB7_19ModifiableAutomatonNtB7_16NonDeterministicE8add_nodeCsjA5qX5JEwPT_16graph_algorithms
FN:156,_RNCNvMs0_NtNtCs2hUxDLYgi0n_14vass_reach_lib9automaton3nfaINtB7_3NFAINtNtCs7xuAoyMVi4A_4core6option6OptionuENtNtNtB9_3cfg6update16CFGCounterUpdateE16is_accepting_set0Cs3ATG82DPHTL_3lgs
FN:64,_RNvMs0_NtNtCs2hUxDLYgi0n_14vass_reach_lib9automaton3nfaINtB5_3NFAINtNtCs7xuAoyMVi4A_4core6option6OptionuENtNtNtB7_3cfg6update16CFGCounterUpdateE11determinizeCs3ATG82DPHTL_3lgs
FN:53,_RNvMs0_NtNtCs2hUxDLYgi0n_14vass_reach_lib9automaton3nfaINtB5_3NFAINtNtCs7xuAoyMVi4A_4core6option6OptionuENtNtNtB7_3cfg6update16CFGCounterUpdateE11set_initialCs3ATG82DPHTL_3lgs
FN:150,_RNvMs0_NtNtCs2hUxDLYgi0n_14vass_reach_lib9automaton3nfaINtB5_3NFAINtNtCs7xuAoyMVi4A_4core6option6OptionuENtNtNtB7_3cfg6update16CFGCounterUpdateE12is_acceptingCs3ATG82DPHTL_3lgs
FN:160,_RNvMs0_NtNtCs2hUxDLYgi0n_14vass_reach_lib9automaton3nfaINtB5_3NFAINtNtCs7xuAoyMVi4A_4core6option6OptionuENtNtNtB7_3cfg6update16CFGCounterUpdateE14state_from_setCs3ATG82DPHTL_3lgs
FN:155,_RNvMs0_NtNtCs2hUxDLYgi0n_14vass_reach_lib9automaton3nfaINtB5_3NFAINtNtCs7xuAoyMVi4A_4core6option6OptionuENtNtNtB7_3cfg6update16CFGCounterUpdateE16is_accepting_setCs3ATG82DPHTL_3lgs
FN:133,_RNvMs0_NtNtCs2hUxDLYgi0n_14vass_reach_lib9automaton3nfaINtB5_3NFAINtNtCs7xuAoyMVi4A_4core6option6OptionuENtNtNtB7_3cfg6update16CFGCounterUpdateE19extend_to_e_closureCs3ATG82DPHTL_3lgs
FN:43,_RNvMs0_NtNtCs2hUxDLYgi0n_14vass_reach_lib9automaton3nfaINtB5_3NFAINtNtCs7xuAoyMVi4A_4core6option6OptionuENtNtNtB7_3cfg6update16CFGCounterUpdateE3newCs3ATG82DPHTL_3lgs
FN:256,_RNvXs4_NtNtCs2hUxDLYgi0n_14vass_reach_lib9automaton3nfaINtB5_3NFAINtNtCs7xuAoyMVi4A_4core6option6OptionuENtNtNtB7_3cfg6update16CFGCounterUpdateEINtB7_19ModifiableAutomatonNtB7_16NonDeterministicE8add_edgeCs3ATG82DPHTL_3lgs
FN:252,_RNvXs4_NtNtCs2hUxDLYgi0n_14vass_reach_lib9automaton3nfaINtB5_3NFAINtNtCs7xuAoyMVi4A_4core6option6OptionuENtNtNtB7_3cfg6update16CFGCounterUpdateEINtB7_19ModifiableAutomatonNtB7_16NonDeterministicE8add_nodeCs3ATG82DPHTL_3lgs
FN:156,_RNCNvMs0_NtNtCs2hUxDLYgi0n_14vass_reach_lib9automaton3nfaINtB7_3NFAINtNtCs7xuAoyMVi4A_4core6option6OptionjENtNtNtB9_3cfg6update16CFGCounterUpdateE16is_accepting_set0Csdx2WVSQjOLl_3ltc
FN:64,_RNvMs0_NtNtCs2hUxDLYgi0n_14vass_reach_lib9automaton3nfaINtB5_3NFAINtNtCs7xuAoyMVi4A_4core6option6OptionjENtNtNtB7_3cfg6update16CFGCounterUpdateE11determinizeCsdx2WVSQjOLl_3ltc
FN:53,_RNvMs0_NtNtCs2hUxDLYgi0n_14vass_reach_lib9automaton3nfaINtB5_3NFAINtNtCs7xuAoyMVi4A_4core6option6OptionjENtNtNtB7_3cfg6update16CFGCounterUpdateE11set_initialCsdx2WVSQjOLl_3ltc
FN:150,_RNvMs0_NtNtCs2hUxDLYgi0n_14vass_reach_lib9automaton3nfaINtB5_3NFAINtNtCs7xuAoyMVi4A_4core6option6OptionjENtNtNtB7_3cfg6update16CFGCounterUpdateE12is_acceptingCsdx2WVSQjOLl_3ltc
FN:160,_RNvMs0_NtNtCs2hUxDLYgi0n_14vass_reach_lib9automaton3nfaINtB5_3NFAINtNtCs7xuAoyMVi4A_4core6option6OptionjENtNtNtB7_3cfg6update16CFGCounterUpdateE14state_from_setCsdx2WVSQjOLl_3ltc
FN:155,_RNvMs0_NtNtCs2hUxDLYgi0n_14vass_reach_lib9automaton3nfaINtB5_3NFAINtNtCs7xuAoyMVi4A_4core6option6OptionjENtNtNtB7_3cfg6update16CFGCounterUpdateE16is_accepting_setCsdx2WVSQjOLl_3ltc
FN:133,_RNvMs0_NtNtCs2hUxDLYgi0n_14vass_reach_lib9automaton3nfaINtB5_3NFAINtNtCs7xuAoyMVi4A_4core6option6OptionjENtNtNtB7_3cfg6update16CFGCounterUpdateE19extend_to_e_closureCsdx2WVSQjOLl_3ltc
FN:43,_RNvMs0_NtNtCs2hUxDLYgi0n_14vass_reach_lib9automaton3nfaINtB5_3NFAINtNtCs7xuAoyMVi4A_4core6option6OptionjENtNtNtB7_3cfg6update16CFGCounterUpdateE3newCsdx2WVSQjOLl_3ltc
FN:256,_RNvXs4_NtNtCs2hUxDLYgi0n_14vass_reach_lib9automaton3nfaINtB5_3NFAINtNtCs7xuAoyMVi4A_4core6option6OptionjENtNtNtB7_3cfg6update16CFGCounterUpdateEINtB7_19ModifiableAutomatonNtB7_16NonDeterministicE8add_edgeCsdx2WVSQjOLl_3ltc
FN:252,_RNvXs4_NtNtCs2hUxDLYgi0n_14vass_reach_lib9automaton3nfaINtB5_3NFAINtNtCs7xuAoyMVi4A_4core6option6OptionjENtNtNtB7_3cfg6update16CFGCounterUpdateEINtB7_19ModifiableAutomatonNtB7_16NonDeterministicE8add_nodeCsdx2WVSQjOLl_3ltc
FN:300,_RINvXs6_NtNtCs2hUxDLYgi0n_14vass_reach_lib9automaton3nfaINtB6_3NFAmcENtB8_8Language7acceptsINtNtNtCs7xuAoyMVi4A_4core5slice4iter4ItercEECsbz10sC9QTBK_3nfa
FN:156,_RNCNvMs0_NtNtCs2hUxDLYgi0n_14vass_reach_lib9automaton3nfaINtB7_3NFAmcE16is_accepting_set0Csbz10sC9QTBK_3nfa
FN:21,_RNvMNtNtCs2hUxDLYgi0n_14vass_reach_lib9automaton3nfaINtB2_7NFAEdgecE10is_epsilonCsbz10sC9QTBK_3nfa
FN:64,_RNvMs0_NtNtCs2hUxDLYgi0n_14vass_reach_lib9automaton3nfaINtB5_3NFAmcE11determinizeCsbz10sC9QTBK_3nfa
FN:53,_RNvMs0_NtNtCs2hUxDLYgi0n_14vass_reach_lib9automaton3nfaINtB5_3NFAmcE11set_initialCsbz10sC9QTBK_3nfa
FN:150,_RNvMs0_NtNtCs2hUxDLYgi0n_14vass_reach_lib9automaton3nfaINtB5_3NFAmcE12is_acceptingCsbz10sC9QTBK_3nfa
FN:160,_RNvMs0_NtNtCs2hUxDLYgi0n_14vass_reach_lib9automaton3nfaINtB5_3NFAmcE14state_from_setCsbz10sC9QTBK_3nfa
FN:155,_RNvMs0_NtNtCs2hUxDLYgi0n_14vass_reach_lib9automaton3nfaINtB5_3NFAmcE16is_accepting_setCsbz10sC9QTBK_3nfa
FN:133,_RNvMs0_NtNtCs2hUxDLYgi0n_14vass_reach_lib9automaton3nfaINtB5_3NFAmcE19extend_to_e_closureCsbz10sC9QTBK_3nfa
FN:43,_RNvMs0_NtNtCs2hUxDLYgi0n_14vass_reach_lib9automaton3nfaINtB5_3NFAmcE3newCsbz10sC9QTBK_3nfa
FN:177,_RNvXs1_NtNtCs2hUxDLYgi0n_14vass_reach_lib9automaton3nfaINtB5_3NFAmcENtB7_8Alphabet8alphabetCsbz10sC9QTBK_3nfa
FN:186,_RNvXs2_NtNtCs2hUxDLYgi0n_14vass_reach_lib9automaton3nfaINtB5_3NFAmcEINtB7_9AutomatonNtB7_16NonDeterministicE10node_countCsbz10sC9QTBK_3nfa
FN:256,_RNvXs4_NtNtCs2hUxDLYgi0n_14vass_reach_lib9automaton3nfaINtB5_3NFAmcEINtB7_19ModifiableAutomatonNtB7_16NonDeterministicE8add_edgeCsbz10sC9QTBK_3nfa
FN:252,_RNvXs4_NtNtCs2hUxDLYgi0n_14vass_reach_lib9automaton3nfaINtB5_3NFAmcEINtB7_19ModifiableAutomatonNtB7_16NonDeterministicE8add_nodeCsbz10sC9QTBK_3nfa
FN:300,_RINvXs6_NtNtCs2hUxDLYgi0n_14vass_reach_lib9automaton3nfaINtB6_3NFAmcENtB8_8Language7acceptsINtNtNtCs7xuAoyMVi4A_4core5slice4iter4ItercEECs5AE6hNTjqZK_13nfa_invariant
FN:156,_RNCNvMs0_NtNtCs2hUxDLYgi0n_14vass_reach_lib9automaton3nfaINtB7_3NFAmcE16is_accepting_set0Cs5AE6hNTjqZK_13nfa_invariant
FN:21,_RNvMNtNtCs2hUxDLYgi0n_14vass_reach_lib9automaton3nfaINtB2_7NFAEdgecE10is_epsilonCs5AE6hNTjqZK_13nfa_invariant
FN:64,_RNvMs0_NtNtCs2hUxDLYgi0n_14vass_reach_lib9automaton3nfaINtB5_3NFAmcE11determinizeCs5AE6hNTjqZK_13nfa_invariant
FN:53,_RNvMs0_NtNtCs2hUxDLYgi0n_14vass_reach_lib9automaton3nfaINtB5_3NFAmcE11set_initialCs5AE6hNTjqZK_13nfa_invariant
FN:150,_RNvMs0_NtNtCs2hUxDLYgi0n_14vass_reach_lib9automaton3nfaINtB5_3NFAmcE12is_acceptingCs5AE6hNTjqZK_13nfa_invariant
FN:160,_RNvMs0_NtNtCs2hUxDLYgi0n_14vass_reach_lib9automaton3nfaINtB5_3NFAmcE14state_from_setCs5AE6hNTjqZK_13nfa_invariant
FN:155,_RNvMs0_NtNtCs2hUxDLYgi0n_14vass_reach_lib9automaton3nfaINtB5_3NFAmcE16is_accepting_setCs5AE6hNTjqZK_13nfa_invariant
FN:133,_RNvMs0_NtNtCs2hUxDLYgi0n_14vass_reach_lib9automaton3nfaINtB5_3NFAmcE19extend_to_e_closureCs5AE6hNTjqZK_13nfa_invariant
FN:43,_RNvMs0_NtNtCs2hUxDLYgi0n_14vass_reach_lib9automaton3nfaINtB5_3NFAmcE3newCs5AE6hNTjqZK_13nfa_invariant
FN:177,_RNvXs1_NtNtCs2hUxDLYgi0n_14vass_reach_lib9automaton3nfaINtB5_3NFAmcENtB7_8Alphabet8alphabetCs5AE6hNTjqZK_13nfa_invariant
FN:256,_RNvXs4_NtNtCs2hUxDLYgi0n_14vass_reach_lib9automaton3nfaINtB5_3NFAmcEINtB7_19ModifiableAutomatonNtB7_16NonDeterministicE8add_edgeCs5AE6hNTjqZK_13nfa_invariant
FN:252,_RNvXs4_NtNtCs2hUxDLYgi0n_14vass_reach_lib9automaton3nfaINtB5_3NFAmcEINtB7_19ModifiableAutomatonNtB7_16NonDeterministicE8add_nodeCs5AE6hNTjqZK_13nfa_invariant
FN:156,_RNCNvMs0_NtNtCs2hUxDLYgi0n_14vass_reach_lib9automaton3nfaINtB7_3NFAINtNtCs7xuAoyMVi4A_4core6option6OptionjENtNtNtB9_3cfg6update16CFGCounterUpdateE16is_accepting_set0CsgHwEJVtWcfn_14petri_net_spec
FN:64,_RNvMs0_NtNtCs2hUxDLYgi0n_14vass_reach_lib9automaton3nfaINtB5_3NFAINtNtCs7xuAoyMVi4A_4core6option6OptionjENtNtNtB7_3cfg6update16CFGCounterUpdateE11determinizeCsgHwEJVtWcfn_14petri_net_spec
FN:53,_RNvMs0_NtNtCs2hUxDLYgi0n_14vass_reach_lib9automaton3nfaINtB5_3NFAINtNtCs7xuAoyMVi4A_4core6option6OptionjENtNtNtB7_3cfg6update16CFGCounterUpdateE11set_initialCsgHwEJVtWcfn_14petri_net_spec
FN:150,_RNvMs0_NtNtCs2hUxDLYgi0n_14vass_reach_lib9automaton3nfaINtB5_3NFAINtNtCs7xuAoyMVi4A_4core6option6OptionjENtNtNtB7_3cfg6update16CFGCounterUpdateE12is_acceptingCsgHwEJVtWcfn_14petri_net_spec
FN:160,_RNvMs0_NtNtCs2hUxDLYgi0n_14vass_reach_lib9automaton3nfaINtB5_3NFAINtNtCs7xuAoyMVi4A_4core6option6OptionjENtNtNtB7_3cfg6update16CFGCounterUpdateE14state_from_setCsgHwEJVtWcfn_14petri_net_spec
FN:155,_RNvMs0_NtNtCs2hUxDLYgi0n_14vass_reach_lib9automaton3nfaINtB5_3NFAINtNtCs7xuAoyMVi4A_4core6option6OptionjENtNtNtB7_3cfg6update16CFGCounterUpdateE16is_accepting_setCsgHwEJVtWcfn_14petri_net_spec
FN:133,_RNvMs0_NtNtCs2hUxDLYgi0n_14vass_reach_lib9automaton3nfaINtB5_3NFAINtNtCs7xuAoyMVi4A_4core6option6OptionjENtNtNtB7_3cfg6update16CFGCounterUpdateE19extend_to_e_closureCsgHwEJVtWcfn_14petri_net_spec
FN:43,_RNvMs0_NtNtCs2hUxDLYgi0n_14vass_reach_lib9automaton3nfaINtB5_3NFAINtNtCs7xuAoyMVi4A_4core6option6OptionjENtNtNtB7_3cfg6update16CFGCounterUpdateE3newCsgHwEJVtWcfn_14petri_net_spec
FN:256,_RNvXs4_NtNtCs2hUxDLYgi0n_14vass_reach_lib9automaton3nfaINtB5_3NFAINtNtCs7xuAoyMVi4A_4core6option6OptionjENtNtNtB7_3cfg6update16CFGCounterUpdateEINtB7_19ModifiableAutomatonNtB7_16NonDeterministicE8add_edgeCsgHwEJVtWcfn_14petri_net_spec
FN:252,_RNvXs4_NtNtCs2hUxDLYgi0n_14vass_reach_lib9automaton3nfaINtB5_3NFAINtNtCs7xuAoyMVi4A_4core6option6OptionjENtNtNtB7_3cfg6update16CFGCounterUpdateEINtB7_19ModifiableAutomatonNtB7_16NonDeterministicE8add_nodeCsgHwEJVtWcfn_14petri_net_spec
FN:156,_RNCNvMs0_NtNtCs2hUxDLYgi0n_14vass_reach_lib9automaton3nfaINtB7_3NFAINtNtCs7xuAoyMVi4A_4core6option6OptionmENtNtNtB9_3cfg6update16CFGCounterUpdateE16is_accepting_set0CsbhGvosVcoyU_4vass
FN:64,_RNvMs0_NtNtCs2hUxDLYgi0n_14vass_reach_lib9automaton3nfaINtB5_3NFAINtNtCs7xuAoyMVi4A_4core6option6OptionmENtNtNtB7_3cfg6update16CFGCounterUpdateE11determinizeCsbhGvosVcoyU_4vass
FN:53,_RNvMs0_NtNtCs2hUxDLYgi0n_14vass_reach_lib9automaton3nfaINtB5_3NFAINtNtCs7xuAoyMVi4A_4core6option6OptionmENtNtNtB7_3cfg6update16CFGCounterUpdateE11set_initialCsbhGvosVcoyU_4vass
FN:150,_RNvMs0_NtNtCs2hUxDLYgi0n_14vass_reach_lib9automaton3nfaINtB5_3NFAINtNtCs7xuAoyMVi4A_4core6option6OptionmENtNtNtB7_3cfg6update16CFGCounterUpdateE12is_acceptingCsbhGvosVcoyU_4vass
FN:160,_RNvMs0_NtNtCs2hUxDLYgi0n_14vass_reach_lib9automaton3nfaINtB5_3NFAINtNtCs7xuAoyMVi4A_4core6option6OptionmENtNtNtB7_3cfg6update16CFGCounterUpdateE14state_from_setCsbhGvosVcoyU_4vass
FN:155,_RNvMs0_NtNtCs2hUxDLYgi0n_14vass_reach_lib9automaton3nfaINtB5_3NFAINtNtCs7xuAoyMVi4A_4core6option6OptionmENtNtNtB7_3cfg6update16CFGCounterUpdateE16is_accepting_setCsbhGvosVcoyU_4vass
FN:133,_RNvMs0_NtNtCs2hUxDLYgi0n_14vass_reach_lib9automaton3nfaINtB5_3NFAINtNtCs7xuAoyMVi4A_4core6option6OptionmENtNtNtB7_3cfg6update16CFGCounterUpdateE19extend_to_e_closureCsbhGvosVcoyU_4vass
FN:43,_RNvMs0_NtNtCs2hUxDLYgi0n_14vass_reach_lib9automaton3nfaINtB5_3NFAINtNtCs7xuAoyMVi4A_4core6option6OptionmENtNtNtB7_3cfg6update16CFGCounterUpdateE3newCsbhGvosVcoyU_4vass
FN:256,_RNvXs4_NtNtCs2hUxDLYgi0n_14vass_reach_lib9automaton3nfaINtB5_3NFAINtNtCs7xuAoyMVi4A_4core6option6OptionmENtNtNtB7_3cfg6update16CFGCounterUpdateEINtB7_19ModifiableAutomatonNtB7_16NonDeterministicE8add_edgeCsbhGvosVcoyU_4vass
FN:252,_RNvXs4_NtNtCs2hUxDLYgi0n_14vass_reach_lib9automaton3nfaINtB5_3NFAINtNtCs7xuAoyMVi4A_4core6option6OptionmENtNtNtB7_3cfg6update16CFGCounterUpdateEINtB7_19ModifiableAutomatonNtB7_16NonDeterministicE8add_nodeCsbhGvosVcoyU_4vass
FN:156,_RNCNvMs0_NtNtCs2hUxDLYgi0n_14vass_reach_lib9automaton3nfaINtB7_3NFAINtNtCs7xuAoyMVi4A_4core6option6OptionjENtNtNtB9_3cfg6update16CFGCounterUpdateE16is_accepting_set0CsaYjQXJDQq9v_12vass_n_reach
FN:156,_RNCNvMs0_NtNtCs2hUxDLYgi0n_14vass_reach_lib9automaton3nfaINtB7_3NFAINtNtCs7xuAoyMVi4A_4core6option6OptionmENtNtNtB9_3cfg6update16CFGCounterUpdateE16is_accepting_set0CsaYjQXJDQq9v_12vass_n_reach
FN:64,_RNvMs0_NtNtCs2hUxDLYgi0n_14vass_reach_lib9automaton3nfaINtB5_3NFAINtNtCs7xuAoyMVi4A_4core6option6OptionjENtNtNtB7_3cfg6update16CFGCounterUpdateE11determinizeCsaYjQXJDQq9v_12vass_n_reach
FN:53,_RNvMs0_NtNtCs2hUxDLYgi0n_14vass_reach_lib9automaton3nfaINtB5_3NFAINtNtCs7xuAoyMVi4A_4core6option6OptionjENtNtNtB7_3cfg6update16CFGCounterUpdateE11set_initialCsaYjQXJDQq9v_12vass_n_reach
FN:150,_RNvMs0_NtNtCs2hUxDLYgi0n_14vass_reach_lib9automaton3nfaINtB5_3NFAINtNtCs7xuAoyMVi4A_4core6option6OptionjENtNtNtB7_3cfg6update16CFGCounterUpdateE12is_acceptingCsaYjQXJDQq9v_12vass_n_reach
FN:160,_RNvMs0_NtNtCs2hUxDLYgi0n_14vass_reach_lib9automaton3nfaINtB5_3NFAINtNtCs7xuAoyMVi4A_4core6option6OptionjENtNtNtB7_3cfg6update16CFGCounterUpdateE14state_from_setCsaYjQXJDQq9v_12vass_n_reach
FN:155,_RNvMs0_NtNtCs2hUxDLYgi0n_14vass_reach_lib9automaton3nfaINtB5_3NFAINtNtCs7xuAoyMVi4A_4core6option6OptionjENtNtNtB7_3cfg6update16CFGCounterUpdateE16is_accepting_setCsaYjQXJDQq9v_12vass_n_reach
FN:133,_RNvMs0_NtNtCs2hUxDLYgi0n_14vass_reach_lib9automaton3nfaINtB5_3NFAINtNtCs7xuAoyMVi4A_4core6option6OptionjENtNtNtB7_3cfg6update16CFGCounterUpdateE19extend_to_e_closureCsaYjQXJDQq9v_12vass_n_reach
FN:43,_RNvMs0_NtNtCs2hUxDLYgi0n_14vass_reach_lib9automaton3nfaINtB5_3NFAINtNtCs7xuAoyMVi4A_4core6option6OptionjENtNtNtB7_3cfg6update16CFGCounterUpdateE3newCsaYjQXJDQq9v_12vass_n_reach
FN:64,_RNvMs0_NtNtCs2hUxDLYgi0n_14vass_reach_lib9automaton3nfaINtB5_3NFAINtNtCs7xuAoyMVi4A_4core6option6OptionmENtNtNtB7_3cfg6update16CFGCounterUpdateE11determinizeCsaYjQXJDQq9v_12vass_n_reach
FN:53,_RNvMs0_NtNtCs2hUxDLYgi0n_14vass_reach_lib9automaton3nfaINtB5_3NFAINtNtCs7xuAoyMVi4A_4core6option6OptionmENtNtNtB7_3cfg6update16CFGCounterUpdateE11set_initialCsaYjQXJDQq9v_12vass_n_reach
FN:150,_RNvMs0_NtNtCs2hUxDLYgi0n_14vass_reach_lib9automaton3nfaINtB5_3NFAINtNtCs7xuAoyMVi4A_4core6option6OptionmENtNtNtB7_3cfg6update16CFGCounterUpdateE12is_acceptingCsaYjQXJDQq9v_12vass_n_reach
FN:160,_RNvMs0_NtNtCs2hUxDLYgi0n_14vass_reach_lib9automaton3nfaINtB5_3NFAINtNtCs7xuAoyMVi4A_4core6option6OptionmENtNtNtB7_3cfg6update16CFGCounterUpdateE14state_from_setCsaYjQXJDQq9v_12vass_n_reach
FN:155,_RNvMs0_NtNtCs2hUxDLYgi0n_14vass_reach_lib9automaton3nfaINtB5_3NFAINtNtCs7xuAoyMVi4A_4core6option6OptionmENtNtNtB7_3cfg6update16CFGCounterUpdateE16is_accepting_setCsaYjQXJDQq9v_12vass_n_reach
FN:133,_RNvMs0_NtNtCs2hUxDLYgi0n_14vass_reach_lib9automaton3nfaINtB5_3NFAINtNtCs7xuAoyMVi4A_4core6option6OptionmENtNtNtB7_3cfg6update16CFGCounterUpdateE19extend_to_e_closureCsaYjQXJDQq9v_12vass_n_reach
FN:43,_RNvMs0_NtNtCs2hUxDLYgi0n_14vass_reach_lib9automaton3nfaINtB5_3NFAINtNtCs7xuAoyMVi4A_4core6option6OptionmENtNtNtB7_3cfg6update16CFGCounterUpdateE3newCsaYjQXJDQq9v_12vass_n_reach
FN:256,_RNvXs4_NtNtCs2hUxDLYgi0n_14vass_reach_lib9automaton3nfaINtB5_3NFAINtNtCs7xuAoyMVi4A_4core6option6OptionjENtNtNtB7_3cfg6update16CFGCounterUpdateEINtB7_19ModifiableAutomatonNtB7_16NonDeterministicE8add_edgeCsaYjQXJDQq9v_12vass_n_reach
FN:252,_RNvXs4_NtNtCs2hUxDLYgi0n_14vass_reach_lib9automaton3nfaINtB5_3NFAINtNtCs7xuAoyMVi4A_4core6option6OptionjENtNtNtB7_3cfg6update16CFGCounterUpdateEINtB7_19ModifiableAutomatonNtB7_16NonDeterministicE8add_nodeCsaYjQXJDQq9v_12vass_n_reach
FN:256,_RNvXs4_NtNtCs2hUxDLYgi0n_14vass_reach_lib9automaton3nfaINtB5_3NFAINtNtCs7xuAoyMVi4A_4core6option6OptionmENtNtNtB7_3cfg6update16CFGCounterUpdateEINtB7_19ModifiableAutomatonNtB7_16NonDeterministicE8add_edgeCsaYjQXJDQq9v_12vass_n_reach
FN:252,_RNvXs4_NtNtCs2hUxDLYgi0n_14vass_reach_lib9automaton3nfaINtB5_3NFAINtNtCs7xuAoyMVi4A_4core6option6OptionmENtNtNtB7_3cfg6update16CFGCounterUpdateEINtB7_19ModifiableAutomatonNtB7_16NonDeterministicE8add_nodeCsaYjQXJDQq9v_12vass_n_reach
FN:273,_RINvXININtNtCs8RRi2RJs6bh_14vass_reach_lib9automaton3nfas4_0ppEINtB6_3NFAppEINtB8_19ModifiableAutomatonNtB8_16NonDeterministicE12retain_nodespEBa_
FN:300,_RINvXININtNtCs8RRi2RJs6bh_14vass_reach_lib9automaton3nfas6_0ppEINtB6_3NFAppENtB8_8Language7acceptspEBa_
FN:170,_RNCNvMs0_NtNtCs8RRi2RJs6bh_14vass_reach_lib9automaton3nfaINtB7_3NFAppE13node_data_set0Bb_
FN:156,_RNCNvMs0_NtNtCs8RRi2RJs6bh_14vass_reach_lib9automaton3nfaINtB7_3NFAppE16is_accepting_set0Bb_
FN:235,_RNCNvXININtNtCs8RRi2RJs6bh_14vass_reach_lib9automaton3nfas3_0ppEINtB7_3NFAppEINtB9_21ExplicitEdgeAutomatonNtB9_16NonDeterministicE21incoming_edge_indices0Bb_
FN:229,_RNCNvXININtNtCs8RRi2RJs6bh_14vass_reach_lib9automaton3nfas3_0ppEINtB7_3NFAppEINtB9_21ExplicitEdgeAutomatonNtB9_16NonDeterministicE21outgoing_edge_indices0Bb_
FN:245,_RNCNvXININtNtCs8RRi2RJs6bh_14vass_reach_lib9automaton3nfas3_0ppEINtB7_3NFAppEINtB9_21ExplicitEdgeAutomatonNtB9_16NonDeterministicE23connecting_edge_indices0Bb_
FN:21,_RNvMNtNtCs8RRi2RJs6bh_14vass_reach_lib9automaton3nfaINtB2_7NFAEdgepE10is_epsilonB6_
FN:64,_RNvMs0_NtNtCs8RRi2RJs6bh_14vass_reach_lib9automaton3nfaINtB5_3NFAppE11determinizeB9_
FN:53,_RNvMs0_NtNtCs8RRi2RJs6bh_14vass_reach_lib9automaton3nfaINtB5_3NFAppE11set_initialB9_
FN:150,_RNvMs0_NtNtCs8RRi2RJs6bh_14vass_reach_lib9automaton3nfaINtB5_3NFAppE12is_acceptingB9_
FN:169,_RNvMs0_NtNtCs8RRi2RJs6bh_14vass_reach_lib9automaton3nfaINtB5_3NFAppE13node_data_setB9_
FN:57,_RNvMs0_NtNtCs8RRi2RJs6bh_14vass_reach_lib9automaton3nfaINtB5_3NFAppE13set_acceptingB9_
FN:160,_RNvMs0_NtNtCs8RRi2RJs6bh_14vass_reach_lib9automaton3nfaINtB5_3NFAppE14state_from_setB9_
FN:155,_RNvMs0_NtNtCs8RRi2RJs6bh_14vass_reach_lib9automaton3nfaINtB5_3NFAppE16is_accepting_setB9_
FN:133,_RNvMs0_NtNtCs8RRi2RJs6bh_14vass_reach_lib9automaton3nfaINtB5_3NFAppE19extend_to_e_closureB9_
FN:43,_RNvMs0_NtNtCs8RRi2RJs6bh_14vass_reach_lib9automaton3nfaINtB5_3NFAppE3newB9_
FN:164,_RNvMs0_NtNtCs8RRi2RJs6bh_14vass_reach_lib9automaton3nfaINtB5_3NFAppE9node_dataB9_
FN:177,_RNvXININtNtCs8RRi2RJs6bh_14vass_reach_lib9automaton3nfas1_0ppEINtB5_3NFAppENtB7_8Alphabet8alphabetB9_
FN:186,_RNvXININtNtCs8RRi2RJs6bh_14vass_reach_lib9automaton3nfas2_0ppEINtB5_3NFAppEINtB7_9AutomatonNtB7_16NonDeterministicE10node_countB9_
FN:194,_RNvXININtNtCs8RRi2RJs6bh_14vass_reach_lib9automaton3nfas2_0ppEINtB5_3NFAppEINtB7_9AutomatonNtB7_16NonDeterministicE18get_node_uncheckedB9_
FN:190,_RNvXININtNtCs8RRi2RJs6bh_14vass_reach_lib9automaton3nfas2_0ppEINtB5_3NFAppEINtB7_9AutomatonNtB7_16NonDeterministicE8get_nodeB9_
FN:206,_RNvXININtNtCs8RRi2RJs6bh_14vass_reach_lib9automaton3nfas3_0ppEINtB5_3NFAppEINtB7_21ExplicitEdgeAutomatonNtB7_16NonDeterministicE10edge_countB9_
FN:218,_RNvXININtNtCs8RRi2RJs6bh_14vass_reach_lib9automaton3nfas3_0ppEINtB5_3NFAppEINtB7_21ExplicitEdgeAutomatonNtB7_16NonDeterministicE14edge_endpointsB9_
FN:214,_RNvXININtNtCs8RRi2RJs6bh_14vass_reach_lib9automaton3nfas3_0ppEINtB5_3NFAppEINtB7_21ExplicitEdgeAutomatonNtB7_16NonDeterministicE18get_edge_uncheckedB9_
FN:232,_RNvXININtNtCs8RRi2RJs6bh_14vass_reach_lib9automaton3nfas3_0ppEINtB5_3NFAppEINtB7_21ExplicitEdgeAutomatonNtB7_16NonDeterministicE21incoming_edge_indicesB9_
FN:226,_RNvXININtNtCs8RRi2RJs6bh_14vass_reach_lib9automaton3nfas3_0ppEINtB5_3NFAppEINtB7_21ExplicitEdgeAutomatonNtB7_16NonDeterministicE21outgoing_edge_indicesB9_
FN:238,_RNvXININtNtCs8RRi2RJs6bh_14vass_reach_lib9automaton3nfas3_0ppEINtB5_3NFAppEINtB7_21ExplicitEdgeAutomatonNtB7_16NonDeterministicE23connecting_edge_indicesB9_
FN:222,_RNvXININtNtCs8RRi2RJs6bh_14vass_reach_lib9automaton3nfas3_0ppEINtB5_3NFAppEINtB7_21ExplicitEdgeAutomatonNtB7_16NonDeterministicE24edge_endpoints_uncheckedB9_
FN:210,_RNvXININtNtCs8RRi2RJs6bh_14vass_reach_lib9automaton3nfas3_0ppEINtB5_3NFAppEINtB7_21ExplicitEdgeAutomatonNtB7_16NonDeterministicE8get_edgeB9_
FN:269,_RNvXININtNtCs8RRi2RJs6bh_14vass_reach_lib9automaton3nfas4_0ppEINtB5_3NFAppEINtB7_19ModifiableAutomatonNtB7_16NonDeterministicE11remove_edgeB9_
FN:265,_RNvXININtNtCs8RRi2RJs6bh_14vass_reach_lib9automaton3nfas4_0ppEINtB5_3NFAppEINtB7_19ModifiableAutomatonNtB7_16NonDeterministicE11remove_nodeB9_
FN:256,_RNvXININtNtCs8RRi2RJs6bh_14vass_reach_lib9automaton3nfas4_0ppEINtB5_3NFAppEINtB7_19ModifiableAutomatonNtB7_16NonDeterministicE8add_edgeB9_
FN:252,_RNvXININtNtCs8RRi2RJs6bh_14vass_reach_lib9automaton3nfas4_0ppEINtB5_3NFAppEINtB7_19ModifiableAutomatonNtB7_16NonDeterministicE8add_nodeB9_
FN:288,_RNvXININtNtCs8RRi2RJs6bh_14vass_reach_lib9automaton3nfas5_0ppEINtB5_3NFAppEINtB7_20InitializedAutomatonNtB7_16NonDeterministicE11get_initialB9_
FN:292,_RNvXININtNtCs8RRi2RJs6bh_14vass_reach_lib9automaton3nfas5_0ppEINtB5_3NFAppEINtB7_20InitializedAutomatonNtB7_16NonDeterministicE12is_acceptingB9_
FN:27,_RNvXININtNtCs8RRi2RJs6bh_14vass_reach_lib9automaton3nfas_0pEINtB5_7NFAEdgepEINtNtCs7xuAoyMVi4A_4core7convert4FromINtNtB1h_6option6OptionpEE4fromB9_
FN:156,_RNCNvMs0_NtNtCs2hUxDLYgi0n_14vass_reach_lib9automaton3nfaINtB7_3NFAINtNtCs7xuAoyMVi4A_4core6option6OptionjENtNtNtB9_3cfg6update16CFGCounterUpdateE16is_accepting_set0CseoIxkIhB6T8_12vass_z_reach
FN:156,_RNCNvMs0_NtNtCs2hUxDLYgi0n_14vass_reach_lib9automaton3nfaINtB7_3NFAINtNtCs7xuAoyMVi4A_4core6option6OptionmENtNtNtB9_3cfg6update16CFGCounterUpdateE16is_accepting_set0CseoIxkIhB6T8_12vass_z_reach
FN:64,_RNvMs0_NtNtCs2hUxDLYgi0n_14vass_reach_lib9automaton3nfaINtB5_3NFAINtNtCs7xuAoyMVi4A_4core6option6OptionjENtNtNtB7_3cfg6update16CFGCounterUpdateE11determinizeCseoIxkIhB6T8_12vass_z_reach
FN:53,_RNvMs0_NtNtCs2hUxDLYgi0n_14vass_reach_lib9automaton3nfaINtB5_3NFAINtNtCs7xuAoyMVi4A_4core6option6OptionjENtNtNtB7_3cfg6update16CFGCounterUpdateE11set_initialCseoIxkIhB6T8_12vass_z_reach
FN:150,_RNvMs0_NtNtCs2hUxDLYgi0n_14vass_reach_lib9automaton3nfaINtB5_3NFAINtNtCs7xuAoyMVi4A_4core6option6OptionjENtNtNtB7_3cfg6update16CFGCounterUpdateE12is_acceptingCseoIxkIhB6T8_12vass_z_reach
FN:160,_RNvMs0_NtNtCs2hUxDLYgi0n_14vass_reach_lib9automaton3nfaINtB5_3NFAINtNtCs7xuAoyMVi4A_4core6option6OptionjENtNtNtB7_3cfg6update16CFGCounterUpdateE14state_from_setCseoIxkIhB6T8_12vass_z_reach
FN:155,_RNvMs0_NtNtCs2hUxDLYgi0n_14vass_reach_lib9automaton3nfaINtB5_3NFAINtNtCs7xuAoyMVi4A_4core6option6OptionjENtNtNtB7_3cfg6update16CFGCounterUpdateE16is_accepting_setCseoIxkIhB6T8_12vass_z_reach
FN:133,_RNvMs0_NtNtCs2hUxDLYgi0n_14vass_reach_lib9automaton3nfaINtB5_3NFAINtNtCs7xuAoyMVi4A_4core6option6OptionjENtNtNtB7_3cfg6update16CFGCounterUpdateE19extend_to_e_closureCseoIxkIhB6T8_12vass_z_reach
FN:43,_RNvMs0_NtNtCs2hUxDLYgi0n_14vass_reach_lib9automaton3nfaINtB5_3NFAINtNtCs7xuAoyMVi4A_4core6option6OptionjENtNtNtB7_3cfg6update16CFGCounterUpdateE3newCseoIxkIhB6T8_12vass_z_reach
FN:64,_RNvMs0_NtNtCs2hUxDLYgi0n_14vass_reach_lib9automaton3nfaINtB5_3NFAINtNtCs7xuAoyMVi4A_4core6option6OptionmENtNtNtB7_3cfg6update16CFGCounterUpdateE11determinizeCseoIxkIhB6T8_12vass_z_reach
FN:53,_RNvMs0_NtNtCs2hUxDLYgi0n_14vass_reach_lib9automaton3nfaINtB5_3NFAINtNtCs7xuAoyMVi4A_4core6option6OptionmENtNtNtB7_3cfg6update16CFGCounterUpdateE11set_initialCseoIxkIhB6T8_12vass_z_reach
FN:150,_RNvMs0_NtNtCs2hUxDLYgi0n_14vass_reach_lib9automaton3nfaINtB5_3NFAINtNtCs7xuAoyMVi4A_4core6option6OptionmENtNtNtB7_3cfg6update16CFGCounterUpdateE12is_acceptingCseoIxkIhB6T8_12vass_z_reach
FN:160,_RNvMs0_NtNtCs2hUxDLYgi0n_14vass_reach_lib9automaton3nfaINtB5_3NFAINtNtCs7xuAoyMVi4A_4core6option6OptionmENtNtNtB7_3cfg6update16CFGCounterUpdateE14state_from_setCseoIxkIhB6T8_12vass_z_reach
FN:155,_RNvMs0_NtNtCs2hUxDLYgi0n_14vass_reach_lib9automaton3nfaINtB5_3NFAINtNtCs7xuAoyMVi4A_4core6option6OptionmENtNtNtB7_3cfg6update16CFGCounterUpdateE16is_accepting_setCseoIxkIhB6T8_12vass_z_reach
FN:133,_RNvMs0_NtNtCs2hUxDLYgi0n_14vass_reach_lib9automaton3nfaINtB5_3NFAINtNtCs7xuAoyMVi4A_4core6option6OptionmENtNtNtB7_3cfg6update16CFGCounterUpdateE19extend_to_e_closureCseoIxkIhB6T8_12vass_z_reach
FN:43,_RNvMs0_NtNtCs2hUxDLYgi0n_14vass_reach_lib9automaton3nfaINtB5_3NFAINtNtCs7xuAoyMVi4A_4core6option6OptionmENtNtNtB7_3cfg6update16CFGCounterUpdateE3newCseoIxkIhB6T8_12vass_z_reach
FN:256,_RNvXs4_NtNtCs2hUxDLYgi0n_14vass_reach_lib9automaton3nfaINtB5_3NFAINtNtCs7xuAoyMVi4A_4core6option6OptionjENtNtNtB7_3cfg6update16CFGCounterUpdateEINtB7_19ModifiableAutomatonNtB7_16NonDeterministicE8add_edgeCseoIxkIhB6T8_12vass_z_reach
FN:252,_RNvXs4_NtNtCs2hUxDLYgi0n_14vass_reach_lib9automaton3nfaINtB5_3NFAINtNtCs7xuAoyMVi4A_4core6option6OptionjENtNtNtB7_3cfg6update16CFGCounterUpdateEINtB7_19ModifiableAutomatonNtB7_16NonDeterministicE8add_nodeCseoIxkIhB6T8_12vass_z_reach
FN:256,_RNvXs4_NtNtCs2hUxDLYgi0n_14vass_reach_lib9automaton3nfaINtB5_3NFAINtNtCs7xuAoyMVi4A_4core6option6OptionmENtNtNtB7_3cfg6update16CFGCounterUpdateEINtB7_19ModifiableAutomatonNtB7_16NonDeterministicE8add_edgeCseoIxkIhB6T8_12vass_z_reach
FN:252,_RNvXs4_NtNtCs2hUxDLYgi0n_14vass_reach_lib9automaton3nfaINtB5_3NFAINtNtCs7xuAoyMVi4A_4core6option6OptionmENtNtNtB7_3cfg6update16CFGCounterUpdateEINtB7_19ModifiableAutomatonNtB7_16NonDeterministicE8add_nodeCseoIxkIhB6T8_12vass_z_reach
FNDA:8,_RNCNvMs0_NtNtCs2hUxDLYgi0n_14vass_reach_lib9automaton3nfaINtB7_3NFAucE16is_accepting_set0Cs43NobSSaLSd_3dfa
FNDA:8,_RNvMNtNtCs2hUxDLYgi0n_14vass_reach_lib9automaton3nfaINtB2_7NFAEdgecE10is_epsilonCs43NobSSaLSd_3dfa
FNDA:2,_RNvMs0_NtNtCs2hUxDLYgi0n_14vass_reach_lib9automaton3nfaINtB5_3NFAucE11determinizeCs43NobSSaLSd_3dfa
FNDA:2,_RNvMs0_NtNtCs2hUxDLYgi0n_14vass_reach_lib9automaton3nfaINtB5_3NFAucE11set_initialCs43NobSSaLSd_3dfa
FNDA:8,_RNvMs0_NtNtCs2hUxDLYgi0n_14vass_reach_lib9automaton3nfaINtB5_3NFAucE12is_acceptingCs43NobSSaLSd_3dfa
FNDA:2,_RNvMs0_NtNtCs2hUxDLYgi0n_14vass_reach_lib9automaton3nfaINtB5_3NFAucE13set_acceptingCs43NobSSaLSd_3dfa
FNDA:8,_RNvMs0_NtNtCs2hUxDLYgi0n_14vass_reach_lib9automaton3nfaINtB5_3NFAucE14state_from_setCs43NobSSaLSd_3dfa
FNDA:8,_RNvMs0_NtNtCs2hUxDLYgi0n_14vass_reach_lib9automaton3nfaINtB5_3NFAucE16is_accepting_setCs43NobSSaLSd_3dfa
FNDA:22,_RNvMs0_NtNtCs2hUxDLYgi0n_14vass_reach_lib9automaton3nfaINtB5_3NFAucE19extend_to_e_closureCs43NobSSaLSd_3dfa
FNDA:2,_RNvMs0_NtNtCs2hUxDLYgi0n_14vass_reach_lib9automaton3nfaINtB5_3NFAucE3newCs43NobSSaLSd_3dfa
FNDA:22,_RNvXs4_NtNtCs2hUxDLYgi0n_14vass_reach_lib9automaton3nfaINtB5_3NFAucEINtB7_19ModifiableAutomatonNtB7_16NonDeterministicE8add_edgeCs43NobSSaLSd_3dfa
FNDA:10,_RNvXs4_NtNtCs2hUxDLYgi0n_14vass_reach_lib9automaton3nfaINtB5_3NFAucEINtB7_19ModifiableAutomatonNtB7_16NonDeterministicE8add_nodeCs43NobSSaLSd_3dfa
FNDA:0,_RINvXININtNtCs2hUxDLYgi0n_14vass_reach_lib9automaton3nfas4_0ppEINtB6_3NFAppEINtB8_19ModifiableAutomatonNtB8_16NonDeterministicE12retain_nodespEBa_
FNDA:0,_RINvXININtNtCs2hUxDLYgi0n_14vass_reach_lib9automaton3nfas6_0ppEINtB6_3NFAppENtB8_8Language7acceptspEBa_
FNDA:0,_RNCNvMs0_NtNtCs2hUxDLYgi0n_14vass_reach_lib9automaton3nfaINtB7_3NFAppE13node_data_set0Bb_
FNDA:0,_RNCNvXININtNtCs2hUxDLYgi0n_14vass_reach_lib9automaton3nfas3_0ppEINtB7_3NFAppEINtB9_21ExplicitEdgeAutomatonNtB9_16NonDeterministicE21incoming_edge_indices0Bb_
FNDA:0,_RNCNvXININtNtCs2hUxDLYgi0n_14vass_reach_lib9automaton3nfas3_0ppEINtB7_3NFAppEINtB9_21ExplicitEdgeAutomatonNtB9_16NonDeterministicE21outgoing_edge_indices0Bb_
FNDA:0,_RNCNvXININtNtCs2hUxDLYgi0n_14vass_reach_lib9automaton3nfas3_0ppEINtB7_3NFAppEINtB9_21ExplicitEdgeAutomatonNtB9_16NonDeterministicE23connecting_edge_indices0Bb_
FNDA:0,_RNvMs0_NtNtCs2hUxDLYgi0n_14vass_reach_lib9automaton3nfaINtB5_3NFAppE13node_data_setB9_
FNDA:0,_RNvMs0_NtNtCs2hUxDLYgi0n_14vass_reach_lib9automaton3nfaINtB5_3NFAppE9node_dataB9_
FNDA:0,_RNvXININtNtCs2hUxDLYgi0n_14vass_reach_lib9automaton3nfas1_0ppEINtB5_3NFAppENtB7_8Alphabet8alphabetB9_
FNDA:0,_RNvXININtNtCs2hUxDLYgi0n_14vass_reach_lib9automaton3nfas2_0ppEINtB5_3NFAppEINtB7_9AutomatonNtB7_16NonDeterministicE10node_countB9_
FNDA:0,_RNvXININtNtCs2hUxDLYgi0n_14vass_reach_lib9automaton3nfas2_0ppEINtB5_3NFAppEINtB7_9AutomatonNtB7_16NonDeterministicE18get_node_uncheckedB9_
FNDA:0,_RNvXININtNtCs2hUxDLYgi0n_14vass_reach_lib9automaton3nfas2_0ppEINtB5_3NFAppEINtB7_9AutomatonNtB7_16NonDeterministicE8get_nodeB9_
FNDA:0,_RNvXININtNtCs2hUxDLYgi0n_14vass_reach_lib9automaton3nfas3_0ppEINtB5_3NFAppEINtB7_21ExplicitEdgeAutomatonNtB7_16NonDeterministicE10edge_countB9_
FNDA:0,_RNvXININtNtCs2hUxDLYgi0n_14vass_reach_lib9automaton3nfas3_0ppEINtB5_3NFAppEINtB7_21ExplicitEdgeAutomatonNtB7_16NonDeterministicE14edge_endpointsB9_
FNDA:0,_RNvXININtNtCs2hUxDLYgi0n_14vass_reach_lib9automaton3nfas3_0ppEINtB5_3NFAppEINtB7_21ExplicitEdgeAutomatonNtB7_16NonDeterministicE18get_edge_uncheckedB9_
FNDA:0,_RNvXININtNtCs2hUxDLYgi0n_14vass_reach_lib9automaton3nfas3_0ppEINtB5_3NFAppEINtB7_21ExplicitEdgeAutomatonNtB7_16NonDeterministicE21incoming_edge_indicesB9_
FNDA:0,_RNvXININtNtCs2hUxDLYgi0n_14vass_reach_lib9automaton3nfas3_0ppEINtB5_3NFAppEINtB7_21ExplicitEdgeAutomatonNtB7_16NonDeterministicE21outgoing_edge_indicesB9_
FNDA:0,_RNvXININtNtCs2hUxDLYgi0n_14vass_reach_lib9automaton3nfas3_0ppEINtB5_3NFAppEINtB7_21ExplicitEdgeAutomatonNtB7_16NonDeterministicE23connecting_edge_indicesB9_
FNDA:0,_RNvXININtNtCs2hUxDLYgi0n_14vass_reach_lib9automaton3nfas3_0ppEINtB5_3NFAppEINtB7_21ExplicitEdgeAutomatonNtB7_16NonDeterministicE24edge_endpoints_uncheckedB9_
FNDA:0,_RNvXININtNtCs2hUxDLYgi0n_14vass_reach_lib9automaton3nfas3_0ppEINtB5_3NFAppEINtB7_21ExplicitEdgeAutomatonNtB7_16NonDeterministicE8get_edgeB9_
FNDA:0,_RNvXININtNtCs2hUxDLYgi0n_14vass_reach_lib9automaton3nfas4_0ppEINtB5_3NFAppEINtB7_19ModifiableAutomatonNtB7_16NonDeterministicE11remove_edgeB9_
FNDA:0,_RNvXININtNtCs2hUxDLYgi0n_14vass_reach_lib9automaton3nfas4_0ppEINtB5_3NFAppEINtB7_19ModifiableAutomatonNtB7_16NonDeterministicE11remove_nodeB9_
FNDA:0,_RNvXININtNtCs2hUxDLYgi0n_14vass_reach_lib9automaton3nfas5_0ppEINtB5_3NFAppEINtB7_20InitializedAutomatonNtB7_16NonDeterministicE11get_initialB9_
FNDA:0,_RNvXININtNtCs2hUxDLYgi0n_14vass_reach_lib9automaton3nfas5_0ppEINtB5_3NFAppEINtB7_20InitializedAutomatonNtB7_16NonDeterministicE12is_acceptingB9_
FNDA:0,_RNvXININtNtCs2hUxDLYgi0n_14vass_reach_lib9automaton3nfas_0pEINtB5_7NFAEdgepEINtNtCs7xuAoyMVi4A_4core7convert4FromINtNtB1h_6option6OptionpEE4fromB9_
FNDA:576,_RNCNvMs0_NtNtCs2hUxDLYgi0n_14vass_reach_lib9automaton3nfaINtB7_3NFAuNtNtNtB9_3cfg6update16CFGCounterUpdateE16is_accepting_set0Bb_
FNDA:30953,_RNvMNtNtCs2hUxDLYgi0n_14vass_reach_lib9automaton3nfaINtB2_7NFAEdgeNtNtNtB4_3cfg6update16CFGCounterUpdateE10is_epsilonB6_
FNDA:37,_RNvMs0_NtNtCs2hUxDLYgi0n_14vass_reach_lib9automaton3nfaINtB5_3NFAuNtNtNtB7_3cfg6update16CFGCounterUpdateE11determinizeB9_
FNDA:37,_RNvMs0_NtNtCs2hUxDLYgi0n_14vass_reach_lib9automaton3nfaINtB5_3NFAuNtNtNtB7_3cfg6update16CFGCounterUpdateE11set_initialB9_
FNDA:576,_RNvMs0_NtNtCs2hUxDLYgi0n_14vass_reach_lib9automaton3nfaINtB5_3NFAuNtNtNtB7_3cfg6update16CFGCounterUpdateE12is_acceptingB9_
FNDA:35,_RNvMs0_NtNtCs2hUxDLYgi0n_14vass_reach_lib9automaton3nfaINtB5_3NFAuNtNtNtB7_3cfg6update16CFGCounterUpdateE13set_acceptingB9_
FNDA:322,_RNvMs0_NtNtCs2hUxDLYgi0n_14vass_reach_lib9automaton3nfaINtB5_3NFAuNtNtNtB7_3cfg6update16CFGCounterUpdateE14state_from_setB9_
FNDA:322,_RNvMs0_NtNtCs2hUxDLYgi0n_14vass_reach_lib9automaton3nfaINtB5_3NFAuNtNtNtB7_3cfg6update16CFGCounterUpdateE16is_accepting_setB9_
FNDA:2075,_RNvMs0_NtNtCs2hUxDLYgi0n_14vass_reach_lib9automaton3nfaINtB5_3NFAuNtNtNtB7_3cfg6update16CFGCounterUpdateE19extend_to_e_closureB9_
FNDA:37,_RNvMs0_NtNtCs2hUxDLYgi0n_14vass_reach_lib9automaton3nfaINtB5_3NFAuNtNtNtB7_3cfg6update16CFGCounterUpdateE3newB9_
FNDA:1113,_RNvXs4_NtNtCs2hUxDLYgi0n_14vass_reach_lib9automaton3nfaINtB5_3NFAuNtNtNtB7_3cfg6update16CFGCounterUpdateEINtB7_19ModifiableAutomatonNtB7_16NonDeterministicE8add_edgeB9_
FNDA:236,_RNvXs4_NtNtCs2hUxDLYgi0n_14vass_reach_lib9automaton3nfaINtB5_3NFAuNtNtNtB7_3cfg6update16CFGCounterUpdateEINtB7_19ModifiableAutomatonNtB7_16NonDeterministicE8add_nodeB9_
FNDA:28,_RNCNvMs0_NtNtCs2hUxDLYgi0n_14vass_reach_lib9automaton3nfaINtB7_3NFAINtNtCs7xuAoyMVi4A_4core6option6OptionuENtNtNtB9_3cfg6update16CFGCounterUpdateE16is_accepting_set0CsjA5qX5JEwPT_16graph_algorithms
FNDA:1,_RNvMs0_NtNtCs2hUxDLYgi0n_14vass_reach_lib9automaton3nfaINtB5_3NFAINtNtCs7xuAoyMVi4A_4core6option6OptionuENtNtNtB7_3cfg6update16CFGCounterUpdateE11determinizeCsjA5qX5JEwPT_16graph_algorithms
FNDA:1,_RNvMs0_NtNtCs2hUxDLYgi0n_14vass_reach_lib9automaton3nfaINtB5_3NFAINtNtCs7xuAoyMVi4A_4core6option6OptionuENtNtNtB7_3cfg6update16CFGCounterUpdateE11set_initialCsjA5qX5JEwPT_16graph_algorithms
FNDA:28,_RNvMs0_NtNtCs2hUxDLYgi0n_14vass_reach_lib9automaton3nfaINtB5_3NFAINtNtCs7xuAoyMVi4A_4core6option6OptionuENtNtNtB7_3cfg6update16CFGCounterUpdateE12is_acceptingCsjA5qX5JEwPT_16graph_algorithms
FNDA:18,_RNvMs0_NtNtCs2hUxDLYgi0n_14vass_reach_lib9automaton3nfaINtB5_3NFAINtNtCs7xuAoyMVi4A_4core6option6OptionuENtNtNtB7_3cfg6update16CFGCounterUpdateE14state_from_setCsjA5qX5JEwPT_16graph_algorithms
FNDA:18,_RNvMs0_NtNtCs2hUxDLYgi0n_14vass_reach_lib9automaton3nfaINtB5_3NFAINtNtCs7xuAoyMVi4A_4core6option6OptionuENtNtNtB7_3cfg6update16CFGCounterUpdateE16is_accepting_setCsjA5qX5JEwPT_16graph_algorithms
FNDA:73,_RNvMs0_NtNtCs2hUxDLYgi0n_14vass_reach_lib9automaton3nfaINtB5_3NFAINtNtCs7xuAoyMVi4A_4core6option6OptionuENtNtNtB7_3cfg6update16CFGCounterUpdateE19extend_to_e_closureCsjA5qX5JEwPT_16graph_algorithms
FNDA:1,_RNvMs0_NtNtCs2hUxDLYgi0n_14vass_reach_lib9automaton3nfaINtB5_3NFAINtNtCs7xuAoyMVi4A_4core6option6OptionuENtNtNtB7_3cfg6update16CFGCounterUpdateE3newCsjA5qX5JEwPT_16graph_algorithms
FNDA:21,_RNvXs4_NtNtCs2hUxDLYgi0n_14vass_reach_lib9automaton3nfaINtB5_3NFAINtNtCs7xuAoyMVi4A_4core6option6OptionuENtNtNtB7_3cfg6update16CFGCounterUpdateEINtB7_19ModifiableAutomatonNtB7_16NonDeterministicE8add_edgeCsjA5qX5JEwPT_16graph_algorithms
FNDA:15,_RNvXs4_NtNtCs2hUxDLYgi0n_14vass_reach_lib9automaton3nfaINtB5_3NFAINtNtCs7xuAoyMVi4A_4core6option6OptionuENtNtNtB7_3cfg6update16CFGCounterUpdateEINtB7_19ModifiableAutomatonNtB7_16NonDeterministicE8add_nodeCsjA5qX5JEwPT_16graph_algorithms
FNDA:28,_RNCNvMs0_NtNtCs2hUxDLYgi0n_14vass_reach_lib9automaton3nfaINtB7_3NFAINtNtCs7xuAoyMVi4A_4core6option6OptionuENtNtNtB9_3cfg6update16CFGCounterUpdateE16is_accepting_set0Cs3ATG82DPHTL_3lgs
FNDA:1,_RNvMs0_NtNtCs2hUxDLYgi0n_14vass_reach_lib9automaton3nfaINtB5_3NFAINtNtCs7xuAoyMVi4A_4core6option6OptionuENtNtNtB7_3cfg6update16CFGCounterUpdateE11determinizeCs3ATG82DPHTL_3lgs
FNDA:1,_RNvMs0_NtNtCs2hUxDLYgi0n_14vass_reach_lib9automaton3nfaINtB5_3NFAINtNtCs7xuAoyMVi4A_4core6option6OptionuENtNtNtB7_3cfg6update16CFGCounterUpdateE11set_initialCs3ATG82DPHTL_3lgs
FNDA:28,_RNvMs0_NtNtCs2hUxDLYgi0n_14vass_reach_lib9automaton3nfaINtB5_3NFAINtNtCs7xuAoyMVi4A_4core6option6OptionuENtNtNtB7_3cfg6update16CFGCounterUpdateE12is_acceptingCs3ATG82DPHTL_3lgs
FNDA:18,_RNvMs0_NtNtCs2hUxDLYgi0n_14vass_reach_lib9automaton3nfaINtB5_3NFAINtNtCs7xuAoyMVi4A_4core6option6OptionuENtNtNtB7_3cfg6update16CFGCounterUpdateE14state_from_setCs3ATG82DPHTL_3lgs
FNDA:18,_RNvMs0_NtNtCs2hUxDLYgi0n_14vass_reach_lib9automaton3nfaINtB5_3NFAINtNtCs7xuAoyMVi4A_4core6option6OptionuENtNtNtB7_3cfg6update16CFGCounterUpdateE16is_accepting_setCs3ATG82DPHTL_3lgs
FNDA:73,_RNvMs0_NtNtCs2hUxDLYgi0n_14vass_reach_lib9automaton3nfaINtB5_3NFAINtNtCs7xuAoyMVi4A_4core6option6OptionuENtNtNtB7_3cfg6update16CFGCounterUpdateE19extend_to_e_closureCs3ATG82DPHTL_3lgs
FNDA:1,_RNvMs0_NtNtCs2hUxDLYgi0n_14vass_reach_lib9automaton3nfaINtB5_3NFAINtNtCs7xuAoyMVi4A_4core6option6OptionuENtNtNtB7_3cfg6update16CFGCounterUpdateE3newCs3ATG82DPHTL_3lgs
FNDA:21,_RNvXs4_NtNtCs2hUxDLYgi0n_14vass_reach_lib9automaton3nfaINtB5_3NFAINtNtCs7xuAoyMVi4A_4core6option6OptionuENtNtNtB7_3cfg6update16CFGCounterUpdateEINtB7_19ModifiableAutomatonNtB7_16NonDeterministicE8add_edgeCs3ATG82DPHTL_3lgs
FNDA:15,_RNvXs4_NtNtCs2hUxDLYgi0n_14vass_reach_lib9automaton3nfaINtB5_3NFAINtNtCs7xuAoyMVi4A_4core6option6OptionuENtNtNtB7_3cfg6update16CFGCounterUpdateEINtB7_19ModifiableAutomatonNtB7_16NonDeterministicE8add_nodeCs3ATG82DPHTL_3lgs
FNDA:32,_RNCNvMs0_NtNtCs2hUxDLYgi0n_14vass_reach_lib9automaton3nfaINtB7_3NFAINtNtCs7xuAoyMVi4A_4core6option6OptionjENtNtNtB9_3cfg6update16CFGCounterUpdateE16is_accepting_set0Csdx2WVSQjOLl_3ltc
FNDA:2,_RNvMs0_NtNtCs2hUxDLYgi0n_14vass_reach_lib9automaton3nfaINtB5_3NFAINtNtCs7xuAoyMVi4A_4core6option6OptionjENtNtNtB7_3cfg6update16CFGCounterUpdateE11determinizeCsdx2WVSQjOLl_3ltc
FNDA:2,_RNvMs0_NtNtCs2hUxDLYgi0n_14vass_reach_lib9automaton3nfaINtB5_3NFAINtNtCs7xuAoyMVi4A_4core6option6OptionjENtNtNtB7_3cfg6update16CFGCounterUpdateE11set_initialCsdx2WVSQjOLl_3ltc
FNDA:32,_RNvMs0_NtNtCs2hUxDLYgi0n_14vass_reach_lib9automaton3nfaINtB5_3NFAINtNtCs7xuAoyMVi4A_4core6option6OptionjENtNtNtB7_3cfg6update16CFGCounterUpdateE12is_acceptingCsdx2WVSQjOLl_3ltc
FNDA:32,_RNvMs0_NtNtCs2hUxDLYgi0n_14vass_reach_lib9automaton3nfaINtB5_3NFAINtNtCs7xuAoyMVi4A_4core6option6OptionjENtNtNtB7_3cfg6update16CFGCounterUpdateE14state_from_setCsdx2WVSQjOLl_3ltc
FNDA:32,_RNvMs0_NtNtCs2hUxDLYgi0n_14vass_reach_lib9automaton3nfaINtB5_3NFAINtNtCs7xuAoyMVi4A_4core6option6OptionjENtNtNtB7_3cfg6update16CFGCounterUpdateE16is_accepting_setCsdx2WVSQjOLl_3ltc
FNDA:194,_RNvMs0_NtNtCs2hUxDLYgi0n_14vass_reach_lib9automaton3nfaINtB5_3NFAINtNtCs7xuAoyMVi4A_4core6option6OptionjENtNtNtB7_3cfg6update16CFGCounterUpdateE19extend_to_e_closureCsdx2WVSQjOLl_3ltc
FNDA:2,_RNvMs0_NtNtCs2hUxDLYgi0n_14vass_reach_lib9automaton3nfaINtB5_3NFAINtNtCs7xuAoyMVi4A_4core6option6OptionjENtNtNtB7_3cfg6update16CFGCounterUpdateE3newCsdx2WVSQjOLl_3ltc
FNDA:36,_RNvXs4_NtNtCs2hUxDLYgi0n_14vass_reach_lib9automaton3nfaINtB5_3NFAINtNtCs7xuAoyMVi4A_4core6option6OptionjENtNtNtB7_3cfg6update16CFGCounterUpdateEINtB7_19ModifiableAutomatonNtB7_16NonDeterministicE8add_edgeCsdx2WVSQjOLl_3ltc
FNDA:32,_RNvXs4_NtNtCs2hUxDLYgi0n_14vass_reach_lib9automaton3nfaINtB5_3NFAINtNtCs7xuAoyMVi4A_4core6option6OptionjENtNtNtB7_3cfg6update16CFGCounterUpdateEINtB7_19ModifiableAutomatonNtB7_16NonDeterministicE8add_nodeCsdx2WVSQjOLl_3ltc
FNDA:3469,_RINvXs6_NtNtCs2hUxDLYgi0n_14vass_reach_lib9automaton3nfaINtB6_3NFAmcENtB8_8Language7acceptsINtNtNtCs7xuAoyMVi4A_4core5slice4iter4ItercEECsbz10sC9QTBK_3nfa
FNDA:271,_RNCNvMs0_NtNtCs2hUxDLYgi0n_14vass_reach_lib9automaton3nfaINtB7_3NFAmcE16is_accepting_set0Csbz10sC9QTBK_3nfa
FNDA:15641,_RNvMNtNtCs2hUxDLYgi0n_14vass_reach_lib9automaton3nfaINtB2_7NFAEdgecE10is_epsilonCsbz10sC9QTBK_3nfa
FNDA:4,_RNvMs0_NtNtCs2hUxDLYgi0n_14vass_reach_lib9automaton3nfaINtB5_3NFAmcE11determinizeCsbz10sC9QTBK_3nfa
FNDA:4,_RNvMs0_NtNtCs2hUxDLYgi0n_14vass_reach_lib9automaton3nfaINtB5_3NFAmcE11set_initialCsbz10sC9QTBK_3nfa
FNDA:271,_RNvMs0_NtNtCs2hUxDLYgi0n_14vass_reach_lib9automaton3nfaINtB5_3NFAmcE12is_acceptingCsbz10sC9QTBK_3nfa
FNDA:19,_RNvMs0_NtNtCs2hUxDLYgi0n_14vass_reach_lib9automaton3nfaINtB5_3NFAmcE14state_from_setCsbz10sC9QTBK_3nfa
FNDA:162,_RNvMs0_NtNtCs2hUxDLYgi0n_14vass_reach_lib9automaton3nfaINtB5_3NFAmcE16is_accepting_setCsbz10sC9QTBK_3nfa
FNDA:6134,_RNvMs0_NtNtCs2hUxDLYgi0n_14vass_reach_lib9automaton3nfaINtB5_3NFAmcE19extend_to_e_closureCsbz10sC9QTBK_3nfa
FNDA:4,_RNvMs0_NtNtCs2hUxDLYgi0n_14vass_reach_lib9automaton3nfaINtB5_3NFAmcE3newCsbz10sC9QTBK_3nfa
FNDA:30,_RNvXs1_NtNtCs2hUxDLYgi0n_14vass_reach_lib9automaton3nfaINtB5_3NFAmcENtB7_8Alphabet8alphabetCsbz10sC9QTBK_3nfa
FNDA:1,_RNvXs2_NtNtCs2hUxDLYgi0n_14vass_reach_lib9automaton3nfaINtB5_3NFAmcEINtB7_9AutomatonNtB7_16NonDeterministicE10node_countCsbz10sC9QTBK_3nfa
FNDA:28,_RNvXs4_NtNtCs2hUxDLYgi0n_14vass_reach_lib9automaton3nfaINtB5_3NFAmcEINtB7_19ModifiableAutomatonNtB7_16NonDeterministicE8add_edgeCsbz10sC9QTBK_3nfa
FNDA:20,_RNvXs4_NtNtCs2hUxDLYgi0n_14vass_reach_lib9automaton3nfaINtB5_3NFAmcEINtB7_19ModifiableAutomatonNtB7_16NonDeterministicE8add_nodeCsbz10sC9QTBK_3nfa
FNDA:126,_RINvXs6_NtNtCs2hUxDLYgi0n_14vass_reach_lib9automaton3nfaINtB6_3NFAmcENtB8_8Language7acceptsINtNtNtCs7xuAoyMVi4A_4core5slice4iter4ItercEECs5AE6hNTjqZK_13nfa_invariant
FNDA:46,_RNCNvMs0_NtNtCs2hUxDLYgi0n_14vass_reach_lib9automaton3nfaINtB7_3NFAmcE16is_accepting_set0Cs5AE6hNTjqZK_13nfa_invariant
FNDA:826,_RNvMNtNtCs2hUxDLYgi0n_14vass_reach_lib9automaton3nfaINtB2_7NFAEdgecE10is_epsilonCs5AE6hNTjqZK_13nfa_invariant
FNDA:2,_RNvMs0_NtNtCs2hUxDLYgi0n_14vass_reach_lib9automaton3nfaINtB5_3NFAmcE11determinizeCs5AE6hNTjqZK_13nfa_invariant
FNDA:2,_RNvMs0_NtNtCs2hUxDLYgi0n_14vass_reach_lib9automaton3nfaINtB5_3NFAmcE11set_initialCs5AE6hNTjqZK_13nfa_invariant
FNDA:46,_RNvMs0_NtNtCs2hUxDLYgi0n_14vass_reach_lib9automaton3nfaINtB5_3NFAmcE12is_acceptingCs5AE6hNTjqZK_13nfa_invariant
FNDA:10,_RNvMs0_NtNtCs2hUxDLYgi0n_14vass_reach_lib9automaton3nfaINtB5_3NFAmcE14state_from_setCs5AE6hNTjqZK_13nfa_invariant
FNDA:22,_RNvMs0_NtNtCs2hUxDLYgi0n_14vass_reach_lib9automaton3nfaINtB5_3NFAmcE16is_accepting_setCs5AE6hNTjqZK_13nfa_invariant
FNDA:262,_RNvMs0_NtNtCs2hUxDLYgi0n_14vass_reach_lib9automaton3nfaINtB5_3NFAmcE19extend_to_e_closureCs5AE6hNTjqZK_13nfa_invariant
FNDA:2,_RNvMs0_NtNtCs2hUxDLYgi0n_14vass_reach_lib9automaton3nfaINtB5_3NFAmcE3newCs5AE6hNTjqZK_13nfa_invariant
FNDA:14,_RNvXs1_NtNtCs2hUxDLYgi0n_14vass_reach_lib9automaton3nfaINtB5_3NFAmcENtB7_8Alphabet8alphabetCs5AE6hNTjqZK_13nfa_invariant
FNDA:12,_RNvXs4_NtNtCs2hUxDLYgi0n_14vass_reach_lib9automaton3nfaINtB5_3NFAmcEINtB7_19ModifiableAutomatonNtB7_16NonDeterministicE8add_edgeCs5AE6hNTjqZK_13nfa_invariant
FNDA:10,_RNvXs4_NtNtCs2hUxDLYgi0n_14vass_reach_lib9automaton3nfaINtB5_3NFAmcEINtB7_19ModifiableAutomatonNtB7_16NonDeterministicE8add_nodeCs5AE6hNTjqZK_13nfa_invariant
FNDA:3,_RNCNvMs0_NtNtCs2hUxDLYgi0n_14vass_reach_lib9automaton3nfaINtB7_3NFAINtNtCs7xuAoyMVi4A_4core6option6OptionjENtNtNtB9_3cfg6update16CFGCounterUpdateE16is_accepting_set0CsgHwEJVtWcfn_14petri_net_spec
FNDA:1,_RNvMs0_NtNtCs2hUxDLYgi0n_14vass_reach_lib9automaton3nfaINtB5_3NFAINtNtCs7xuAoyMVi4A_4core6option6OptionjENtNtNtB7_3cfg6update16CFGCounterUpdateE11determinizeCsgHwEJVtWcfn_14petri_net_spec
FNDA:1,_RNvMs0_NtNtCs2hUxDLYgi0n_14vass_reach_lib9automaton3nfaINtB5_3NFAINtNtCs7xuAoyMVi4A_4core6option6OptionjENtNtNtB7_3cfg6update16CFGCounterUpdateE11set_initialCsgHwEJVtWcfn_14petri_net_spec
FNDA:3,_RNvMs0_NtNtCs2hUxDLYgi0n_14vass_reach_lib9automaton3nfaINtB5_3NFAINtNtCs7xuAoyMVi4A_4core6option6OptionjENtNtNtB7_3cfg6update16CFGCounterUpdateE12is_acceptingCsgHwEJVtWcfn_14petri_net_spec
FNDA:4,_RNvMs0_NtNtCs2hUxDLYgi0n_14vass_reach_lib9automaton3nfaINtB5_3NFAINtNtCs7xuAoyMVi4A_4core6option6OptionjENtNtNtB7_3cfg6update16CFGCounterUpdateE14state_from_setCsgHwEJVtWcfn_14petri_net_spec
FNDA:4,_RNvMs0_NtNtCs2hUxDLYgi0n_14vass_reach_lib9automaton3nfaINtB5_3NFAINtNtCs7xuAoyMVi4A_4core6option6OptionjENtNtNtB7_3cfg6update16CFGCounterUpdateE16is_accepting_setCsgHwEJVtWcfn_14petri_net_spec
FNDA:25,_RNvMs0_NtNtCs2hUxDLYgi0n_14vass_reach_lib9automaton3nfaINtB5_3NFAINtNtCs7xuAoyMVi4A_4core6option6OptionjENtNtNtB7_3cfg6update16CFGCounterUpdateE19extend_to_e_closureCsgHwEJVtWcfn_14petri_net_spec
FNDA:1,_RNvMs0_NtNtCs2hUxDLYgi0n_14vass_reach_lib9automaton3nfaINtB5_3NFAINtNtCs7xuAoyMVi4A_4core6option6OptionjENtNtNtB7_3cfg6update16CFGCounterUpdateE3newCsgHwEJVtWcfn_14petri_net_spec
FNDA:4,_RNvXs4_NtNtCs2hUxDLYgi0n_14vass_reach_lib9automaton3nfaINtB5_3NFAINtNtCs7xuAoyMVi4A_4core6option6OptionjENtNtNtB7_3cfg6update16CFGCounterUpdateEINtB7_19ModifiableAutomatonNtB7_16NonDeterministicE8add_edgeCsgHwEJVtWcfn_14petri_net_spec
FNDA:3,_RNvXs4_NtNtCs2hUxDLYgi0n_14vass_reach_lib9automaton3nfaINtB5_3NFAINtNtCs7xuAoyMVi4A_4core6option6OptionjENtNtNtB7_3cfg6update16CFGCounterUpdateEINtB7_19ModifiableAutomatonNtB7_16NonDeterministicE8add_nodeCsgHwEJVtWcfn_14petri_net_spec
FNDA:3,_RNCNvMs0_NtNtCs2hUxDLYgi0n_14vass_reach_lib9automaton3nfaINtB7_3NFAINtNtCs7xuAoyMVi4A_4core6option6OptionmENtNtNtB9_3cfg6update16CFGCounterUpdateE16is_accepting_set0CsbhGvosVcoyU_4vass
FNDA:1,_RNvMs0_NtNtCs2hUxDLYgi0n_14vass_reach_lib9automaton3nfaINtB5_3NFAINtNtCs7xuAoyMVi4A_4core6option6OptionmENtNtNtB7_3cfg6update16CFGCounterUpdateE11determinizeCsbhGvosVcoyU_4vass
FNDA:1,_RNvMs0_NtNtCs2hUxDLYgi0n_14vass_reach_lib9automaton3nfaINtB5_3NFAINtNtCs7xuAoyMVi4A_4core6option6OptionmENtNtNtB7_3cfg6update16CFGCounterUpdateE11set_initialCsbhGvosVcoyU_4vass
FNDA:3,_RNvMs0_NtNtCs2hUxDLYgi0n_14vass_reach_lib9automaton3nfaINtB5_3NFAINtNtCs7xuAoyMVi4A_4core6option6OptionmENtNtNtB7_3cfg6update16CFGCounterUpdateE12is_acceptingCsbhGvosVcoyU_4vass
FNDA:4,_RNvMs0_NtNtCs2hUxDLYgi0n_14vass_reach_lib9automaton3nfaINtB5_3NFAINtNtCs7xuAoyMVi4A_4core6option6OptionmENtNtNtB7_3cfg6update16CFGCounterUpdateE14state_from_setCsbhGvosVcoyU_4vass
FNDA:4,_RNvMs0_NtNtCs2hUxDLYgi0n_14vass_reach_lib9automaton3nfaINtB5_3NFAINtNtCs7xuAoyMVi4A_4core6option6OptionmENtNtNtB7_3cfg6update16CFGCounterUpdateE16is_accepting_setCsbhGvosVcoyU_4vass
FNDA:17,_RNvMs0_NtNtCs2hUxDLYgi0n_14vass_reach_lib9automaton3nfaINtB5_3NFAINtNtCs7xuAoyMVi4A_4core6option6OptionmENtNtNtB7_3cfg6update16CFGCounterUpdateE19extend_to_e_closureCsbhGvosVcoyU_4vass
FNDA:1,_RNvMs0_NtNtCs2hUxDLYgi0n_14vass_reach_lib9automaton3nfaINtB5_3NFAINtNtCs7xuAoyMVi4A_4core6option6OptionmENtNtNtB7_3cfg6update16CFGCounterUpdateE3newCsbhGvosVcoyU_4vass
FNDA:4,_RNvXs4_NtNtCs2hUxDLYgi0n_14vass_reach_lib9automaton3nfaINtB5_3NFAINtNtCs7xuAoyMVi4A_4core6option6OptionmENtNtNtB7_3cfg6update16CFGCounterUpdateEINtB7_19ModifiableAutomatonNtB7_16NonDeterministicE8add_edgeCsbhGvosVcoyU_4vass
FNDA:3,_RNvXs4_NtNtCs2hUxDLYgi0n_14vass_reach_lib9automaton3nfaINtB5_3NFAINtNtCs7xuAoyMVi4A_4core6option6OptionmENtNtNtB7_3cfg6update16CFGCounterUpdateEINtB7_19ModifiableAutomatonNtB7_16NonDeterministicE8add_nodeCsbhGvosVcoyU_4vass
FNDA:25,_RNCNvMs0_NtNtCs2hUxDLYgi0n_14vass_reach_lib9automaton3nfaINtB7_3NFAINtNtCs7xuAoyMVi4A_4core6option6OptionjENtNtNtB9_3cfg6update16CFGCounterUpdateE16is_accepting_set0CsaYjQXJDQq9v_12vass_n_reach
FNDA:20,_RNCNvMs0_NtNtCs2hUxDLYgi0n_14vass_reach_lib9automaton3nfaINtB7_3NFAINtNtCs7xuAoyMVi4A_4core6option6OptionmENtNtNtB9_3cfg6update16CFGCounterUpdateE16is_accepting_set0CsaYjQXJDQq9v_12vass_n_reach
FNDA:3,_RNvMs0_NtNtCs2hUxDLYgi0n_14vass_reach_lib9automaton3nfaINtB5_3NFAINtNtCs7xuAoyMVi4A_4core6option6OptionjENtNtNtB7_3cfg6update16CFGCounterUpdateE11determinizeCsaYjQXJDQq9v_12vass_n_reach
FNDA:3,_RNvMs0_NtNtCs2hUxDLYgi0n_14vass_reach_lib9automaton3nfaINtB5_3NFAINtNtCs7xuAoyMVi4A_4core6option6OptionjENtNtNtB7_3cfg6update16CFGCounterUpdateE11set_initialCsaYjQXJDQq9v_12vass_n_reach
FNDA:25,_RNvMs0_NtNtCs2hUxDLYgi0n_14vass_reach_lib9automaton3nfaINtB5_3NFAINtNtCs7xuAoyMVi4A_4core6option6OptionjENtNtNtB7_3cfg6update16CFGCounterUpdateE12is_acceptingCsaYjQXJDQq9v_12vass_n_reach
FNDA:28,_RNvMs0_NtNtCs2hUxDLYgi0n_14vass_reach_lib9automaton3nfaINtB5_3NFAINtNtCs7xuAoyMVi4A_4core6option6OptionjENtNtNtB7_3cfg6update16CFGCounterUpdateE14state_from_setCsaYjQXJDQq9v_12vass_n_reach
FNDA:28,_RNvMs0_NtNtCs2hUxDLYgi0n_14vass_reach_lib9automaton3nfaINtB5_3NFAINtNtCs7xuAoyMVi4A_4core6option6OptionjENtNtNtB7_3cfg6update16CFGCounterUpdateE16is_accepting_setCsaYjQXJDQq9v_12vass_n_reach
FNDA:223,_RNvMs0_NtNtCs2hUxDLYgi0n_14vass_reach_lib9automaton3nfaINtB5_3NFAINtNtCs7xuAoyMVi4A_4core6option6OptionjENtNtNtB7_3cfg6update16CFGCounterUpdateE19extend_to_e_closureCsaYjQXJDQq9v_12vass_n_reach
FNDA:3,_RNvMs0_NtNtCs2hUxDLYgi0n_14vass_reach_lib9automaton3nfaINtB5_3NFAINtNtCs7xuAoyMVi4A_4core6option6OptionjENtNtNtB7_3cfg6update16CFGCounterUpdateE3newCsaYjQXJDQq9v_12vass_n_reach
FNDA:4,_RNvMs0_NtNtCs2hUxDLYgi0n_14vass_reach_lib9automaton3nfaINtB5_3NFAINtNtCs7xuAoyMVi4A_4core6option6OptionmENtNtNtB7_3cfg6update16CFGCounterUpdateE11determinizeCsaYjQXJDQq9v_12vass_n_reach
FNDA:4,_RNvMs0_NtNtCs2hUxDLYgi0n_14vass_reach_lib9automaton3nfaINtB5_3NFAINtNtCs7xuAoyMVi4A_4core6option6OptionmENtNtNtB7_3cfg6update16CFGCounterUpdateE11set_initialCsaYjQXJDQq9v_12vass_n_reach
FNDA:20,_RNvMs0_NtNtCs2hUxDLYgi0n_14vass_reach_lib9automaton3nfaINtB5_3NFAINtNtCs7xuAoyMVi4A_4core6option6OptionmENtNtNtB7_3cfg6update16CFGCounterUpdateE12is_acceptingCsaYjQXJDQq9v_12vass_n_reach
FNDA:24,_RNvMs0_NtNtCs2hUxDLYgi0n_14vass_reach_lib9automaton3nfaINtB5_3NFAINtNtCs7xuAoyMVi4A_4core6option6OptionmENtNtNtB7_3cfg6update16CFGCounterUpdateE14state_from_setCsaYjQXJDQq9v_12vass_n_reach
FNDA:24,_RNvMs0_NtNtCs2hUxDLYgi0n_14vass_reach_lib9automaton3nfaINtB5_3NFAINtNtCs7xuAoyMVi4A_4core6option6OptionmENtNtNtB7_3cfg6update16CFGCounterUpdateE16is_accepting_setCsaYjQXJDQq9v_12vass_n_reach
FNDA:184,_RNvMs0_NtNtCs2hUxDLYgi0n_14vass_reach_lib9automaton3nfaINtB5_3NFAINtNtCs7xuAoyMVi4A_4core6option6OptionmENtNtNtB7_3cfg6update16CFGCounterUpdateE19extend_to_e_closureCsaYjQXJDQq9v_12vass_n_reach
FNDA:4,_RNvMs0_NtNtCs2hUxDLYgi0n_14vass_reach_lib9automaton3nfaINtB5_3NFAINtNtCs7xuAoyMVi4A_4core6option6OptionmENtNtNtB7_3cfg6update16CFGCounterUpdateE3newCsaYjQXJDQq9v_12vass_n_reach
FNDA:33,_RNvXs4_NtNtCs2hUxDLYgi0n_14vass_reach_lib9automaton3nfaINtB5_3NFAINtNtCs7xuAoyMVi4A_4core6option6OptionjENtNtNtB7_3cfg6update16CFGCounterUpdateEINtB7_19ModifiableAutomatonNtB7_16NonDeterministicE8add_edgeCsaYjQXJDQq9v_12vass_n_reach
FNDA:26,_RNvXs4_NtNtCs2hUxDLYgi0n_14vass_reach_lib9automaton3nfaINtB5_3NFAINtNtCs7xuAoyMVi4A_4core6option6OptionjENtNtNtB7_3cfg6update16CFGCounterUpdateEINtB7_19ModifiableAutomatonNtB7_16NonDeterministicE8add_nodeCsaYjQXJDQq9v_12vass_n_reach
FNDA:25,_RNvXs4_NtNtCs2hUxDLYgi0n_14vass_reach_lib9automaton3nfaINtB5_3NFAINtNtCs7xuAoyMVi4A_4core6option6OptionmENtNtNtB7_3cfg6update16CFGCounterUpdateEINtB7_19ModifiableAutomatonNtB7_16NonDeterministicE8add_edgeCsaYjQXJDQq9v_12vass_n_reach
FNDA:20,_RNvXs4_NtNtCs2hUxDLYgi0n_14vass_reach_lib9automaton3nfaINtB5_3NFAINtNtCs7xuAoyMVi4A_4core6option6OptionmENtNtNtB7_3cfg6update16CFGCounterUpdateEINtB7_19ModifiableAutomatonNtB7_16NonDeterministicE8add_nodeCsaYjQXJDQq9v_12vass_n_reach
FNDA:0,_RINvXININtNtCs8RRi2RJs6bh_14vass_reach_lib9automaton3nfas4_0ppEINtB6_3NFAppEINtB8_19ModifiableAutomatonNtB8_16NonDeterministicE12retain_nodespEBa_
FNDA:0,_RINvXININtNtCs8RRi2RJs6bh_14vass_reach_lib9automaton3nfas6_0ppEINtB6_3NFAppENtB8_8Language7acceptspEBa_
FNDA:0,_RNCNvMs0_NtNtCs8RRi2RJs6bh_14vass_reach_lib9automaton3nfaINtB7_3NFAppE13node_data_set0Bb_
FNDA:0,_RNCNvMs0_NtNtCs8RRi2RJs6bh_14vass_reach_lib9automaton3nfaINtB7_3NFAppE16is_accepting_set0Bb_
FNDA:0,_RNCNvXININtNtCs8RRi2RJs6bh_14vass_reach_lib9automaton3nfas3_0ppEINtB7_3NFAppEINtB9_21ExplicitEdgeAutomatonNtB9_16NonDeterministicE21incoming_edge_indices0Bb_
FNDA:0,_RNCNvXININtNtCs8RRi2RJs6bh_14vass_reach_lib9automaton3nfas3_0ppEINtB7_3NFAppEINtB9_21ExplicitEdgeAutomatonNtB9_16NonDeterministicE21outgoing_edge_indices0Bb_
FNDA:0,_RNCNvXININtNtCs8RRi2RJs6bh_14vass_reach_lib9automaton3nfas3_0ppEINtB7_3NFAppEINtB9_21ExplicitEdgeAutomatonNtB9_16NonDeterministicE23connecting_edge_indices0Bb_
FNDA:0,_RNvMNtNtCs8RRi2RJs6bh_14vass_reach_lib9automaton3nfaINtB2_7NFAEdgepE10is_epsilonB6_
FNDA:0,_RNvMs0_NtNtCs8RRi2RJs6bh_14vass_reach_lib9automaton3nfaINtB5_3NFAppE11determinizeB9_
FNDA:0,_RNvMs0_NtNtCs8RRi2RJs6bh_14vass_reach_lib9automaton3nfaINtB5_3NFAppE11set_initialB9_
FNDA:0,_RNvMs0_NtNtCs8RRi2RJs6bh_14vass_reach_lib9automaton3nfaINtB5_3NFAppE12is_acceptingB9_
FNDA:0,_RNvMs0_NtNtCs8RRi2RJs6bh_14vass_reach_lib9automaton3nfaINtB5_3NFAppE13node_data_setB9_
FNDA:0,_RNvMs0_NtNtCs8RRi2RJs6bh_14vass_reach_lib9automaton3nfaINtB5_3NFAppE13set_acceptingB9_
FNDA:0,_RNvMs0_NtNtCs8RRi2RJs6bh_14vass_reach_lib9automaton3nfaINtB5_3NFAppE14state_from_setB9_
FNDA:0,_RNvMs0_NtNtCs8RRi2RJs6bh_14vass_reach_lib9automaton3nfaINtB5_3NFAppE16is_accepting_setB9_
FNDA:0,_RNvMs0_NtNtCs8RRi2RJs6bh_14vass_reach_lib9automaton3nfaINtB5_3NFAppE19extend_to_e_closureB9_
FNDA:0,_RNvMs0_NtNtCs8RRi2RJs6bh_14vass_reach_lib9automaton3nfaINtB5_3NFAppE3newB9_
FNDA:0,_RNvMs0_NtNtCs8RRi2RJs6bh_14vass_reach_lib9automaton3nfaINtB5_3NFAppE9node_dataB9_
FNDA:0,_RNvXININtNtCs8RRi2RJs6bh_14vass_reach_lib9automaton3nfas1_0ppEINtB5_3NFAppENtB7_8Alphabet8alphabetB9_
FNDA:0,_RNvXININtNtCs8RRi2RJs6bh_14vass_reach_lib9automaton3nfas2_0ppEINtB5_3NFAppEINtB7_9AutomatonNtB7_16NonDeterministicE10node_countB9_
FNDA:0,_RNvXININtNtCs8RRi2RJs6bh_14vass_reach_lib9automaton3nfas2_0ppEINtB5_3NFAppEINtB7_9AutomatonNtB7_16NonDeterministicE18get_node_uncheckedB9_
FNDA:0,_RNvXININtNtCs8RRi2RJs6bh_14vass_reach_lib9automaton3nfas2_0ppEINtB5_3NFAppEINtB7_9AutomatonNtB7_16NonDeterministicE8get_nodeB9_
FNDA:0,_RNvXININtNtCs8RRi2RJs6bh_14vass_reach_lib9automaton3nfas3_0ppEINtB5_3NFAppEINtB7_21ExplicitEdgeAutomatonNtB7_16NonDeterministicE10edge_countB9_
FNDA:0,_RNvXININtNtCs8RRi2RJs6bh_14vass_reach_lib9automaton3nfas3_0ppEINtB5_3NFAppEINtB7_21ExplicitEdgeAutomatonNtB7_16NonDeterministicE14edge_endpointsB9_
FNDA:0,_RNvXININtNtCs8RRi2RJs6bh_14vass_reach_lib9automaton3nfas3_0ppEINtB5_3NFAppEINtB7_21ExplicitEdgeAutomatonNtB7_16NonDeterministicE18get_edge_uncheckedB9_
FNDA:0,_RNvXININtNtCs8RRi2RJs6bh_14vass_reach_lib9automaton3nfas3_0ppEINtB5_3NFAppEINtB7_21ExplicitEdgeAutomatonNtB7_16NonDeterministicE21incoming_edge_indicesB9_
FNDA:0,_RNvXININtNtCs8RRi2RJs6bh_14vass_reach_lib9automaton3nfas3_0ppEINtB5_3NFAppEINtB7_21ExplicitEdgeAutomatonNtB7_16NonDeterministicE21outgoing_edge_indicesB9_
FNDA:0,_RNvXININtNtCs8RRi2RJs6bh_14vass_reach_lib9automaton3nfas3_0ppEINtB5_3NFAppEINtB7_21ExplicitEdgeAutomatonNtB7_16NonDeterministicE23connecting_edge_indicesB9_
FNDA:0,_RNvXININtNtCs8RRi2RJs6bh_14vass_reach_lib9automaton3nfas3_0ppEINtB5_3NFAppEINtB7_21ExplicitEdgeAutomatonNtB7_16NonDeterministicE24edge_endpoints_uncheckedB9_
FNDA:0,_RNvXININtNtCs8RRi2RJs6bh_14vass_reach_lib9automaton3nfas3_0ppEINtB5_3NFAppEINtB7_21ExplicitEdgeAutomatonNtB7_16NonDeterministicE8get_edgeB9_
FNDA:0,_RNvXININtNtCs8RRi2RJs6bh_14vass_reach_lib9automaton3nfas4_0ppEINtB5_3NFAppEINtB7_19ModifiableAutomatonNtB7_16NonDeterministicE11remove_edgeB9_
FNDA:0,_RNvXININtNtCs8RRi2RJs6bh_14vass_reach_lib9automaton3nfas4_0ppEINtB5_3NFAppEINtB7_19ModifiableAutomatonNtB7_16NonDeterministicE11remove_nodeB9_
FNDA:0,_RNvXININtNtCs8RRi2RJs6bh_14vass_reach_lib9automaton3nfas4_0ppEINtB5_3NFAppEINtB7_19ModifiableAutomatonNtB7_16NonDeterministicE8add_edgeB9_
FNDA:0,_RNvXININtNtCs8RRi2RJs6bh_14vass_reach_lib9automaton3nfas4_0ppEINtB5_3NFAppEINtB7_19ModifiableAutomatonNtB7_16NonDeterministicE8add_nodeB9_
FNDA:0,_RNvXININtNtCs8RRi2RJs6bh_14vass_reach_lib9automaton3nfas5_0ppEINtB5_3NFAppEINtB7_20InitializedAutomatonNtB7_16NonDeterministicE11get_initialB9_
FNDA:0,_RNvXININtNtCs8RRi2RJs6bh_14vass_reach_lib9automaton3nfas5_0ppEINtB5_3NFAppEINtB7_20InitializedAutomatonNtB7_16NonDeterministicE12is_acceptingB9_
FNDA:0,_RNvXININtNtCs8RRi2RJs6bh_14vass_reach_lib9automaton3nfas_0pEINtB5_7NFAEdgepEINtNtCs7xuAoyMVi4A_4core7convert4FromINtNtB1h_6option6OptionpEE4fromB9_
FNDA:21,_RNCNvMs0_NtNtCs2hUxDLYgi0n_14vass_reach_lib9automaton3nfaINtB7_3NFAINtNtCs7xuAoyMVi4A_4core6option6OptionjENtNtNtB9_3cfg6update16CFGCounterUpdateE16is_accepting_set0CseoIxkIhB6T8_12vass_z_reach
FNDA:10,_RNCNvMs0_NtNtCs2hUxDLYgi0n_14vass_reach_lib9automaton3nfaINtB7_3NFAINtNtCs7xuAoyMVi4A_4core6option6OptionmENtNtNtB9_3cfg6update16CFGCounterUpdateE16is_accepting_set0CseoIxkIhB6T8_12vass_z_reach
FNDA:2,_RNvMs0_NtNtCs2hUxDLYgi0n_14vass_reach_lib9automaton3nfaINtB5_3NFAINtNtCs7xuAoyMVi4A_4core6option6OptionjENtNtNtB7_3cfg6update16CFGCounterUpdateE11determinizeCseoIxkIhB6T8_12vass_z_reach
FNDA:2,_RNvMs0_NtNtCs2hUxDLYgi0n_14vass_reach_lib9automaton3nfaINtB5_3NFAINtNtCs7xuAoyMVi4A_4core6option6OptionjENtNtNtB7_3cfg6update16CFGCounterUpdateE11set_initialCseoIxkIhB6T8_12vass_z_reach
FNDA:21,_RNvMs0_NtNtCs2hUxDLYgi0n_14vass_reach_lib9automaton3nfaINtB5_3NFAINtNtCs7xuAoyMVi4A_4core6option6OptionjENtNtNtB7_3cfg6update16CFGCounterUpdateE12is_acceptingCseoIxkIhB6T8_12vass_z_reach
FNDA:22,_RNvMs0_NtNtCs2hUxDLYgi0n_14vass_reach_lib9automaton3nfaINtB5_3NFAINtNtCs7xuAoyMVi4A_4core6option6OptionjENtNtNtB7_3cfg6update16CFGCounterUpdateE14state_from_setCseoIxkIhB6T8_12vass_z_reach
FNDA:22,_RNvMs0_NtNtCs2hUxDLYgi0n_14vass_reach_lib9automaton3nfaINtB5_3NFAINtNtCs7xuAoyMVi4A_4core6option6OptionjENtNtNtB7_3cfg6update16CFGCounterUpdateE16is_accepting_setCseoIxkIhB6T8_12vass_z_reach
FNDA:146,_RNvMs0_NtNtCs2hUxDLYgi0n_14vass_reach_lib9automaton3nfaINtB5_3NFAINtNtCs7xuAoyMVi4A_4core6option6OptionjENtNtNtB7_3cfg6update16CFGCounterUpdateE19extend_to_e_closureCseoIxkIhB6T8_12vass_z_reach
FNDA:2,_RNvMs0_NtNtCs2hUxDLYgi0n_14vass_reach_lib9automaton3nfaINtB5_3NFAINtNtCs7xuAoyMVi4A_4core6option6OptionjENtNtNtB7_3cfg6update16CFGCounterUpdateE3newCseoIxkIhB6T8_12vass_z_reach
FNDA:3,_RNvMs0_NtNtCs2hUxDLYgi0n_14vass_reach_lib9automaton3nfaINtB5_3NFAINtNtCs7xuAoyMVi4A_4core6option6OptionmENtNtNtB7_3cfg6update16CFGCounterUpdateE11determinizeCseoIxkIhB6T8_12vass_z_reach
FNDA:3,_RNvMs0_NtNtCs2hUxDLYgi0n_14vass_reach_lib9automaton3nfaINtB5_3NFAINtNtCs7xuAoyMVi4A_4core6option6OptionmENtNtNtB7_3cfg6update16CFGCounterUpdateE11set_initialCseoIxkIhB6T8_12vass_z_reach
FNDA:10,_RNvMs0_NtNtCs2hUxDLYgi0n_14vass_reach_lib9automaton3nfaINtB5_3NFAINtNtCs7xuAoyMVi4A_4core6option6OptionmENtNtNtB7_3cfg6update16CFGCounterUpdateE12is_acceptingCseoIxkIhB6T8_12vass_z_reach
FNDA:13,_RNvMs0_NtNtCs2hUxDLYgi0n_14vass_reach_lib9automaton3nfaINtB5_3NFAINtNtCs7xuAoyMVi4A_4core6option6OptionmENtNtNtB7_3cfg6update16CFGCounterUpdateE14state_from_setCseoIxkIhB6T8_12vass_z_reach
FNDA:13,_RNvMs0_NtNtCs2hUxDLYgi0n_14vass_reach_lib9automaton3nfaINtB5_3NFAINtNtCs7xuAoyMVi4A_4core6option6OptionmENtNtNtB7_3cfg6update16CFGCounterUpdateE16is_accepting_setCseoIxkIhB6T8_12vass_z_reach
FNDA:55,_RNvMs0_NtNtCs2hUxDLYgi0n_14vass_reach_lib9automaton3nfaINtB5_3NFAINtNtCs7xuAoyMVi4A_4core6option6OptionmENtNtNtB7_3cfg6update16CFGCounterUpdateE19extend_to_e_closureCseoIxkIhB6T8_12vass_z_reach
FNDA:3,_RNvMs0_NtNtCs2hUxDLYgi0n_14vass_reach_lib9automaton3nfaINtB5_3NFAINtNtCs7xuAoyMVi4A_4core6option6OptionmENtNtNtB7_3cfg6update16CFGCounterUpdateE3newCseoIxkIhB6T8_12vass_z_reach
FNDA:25,_RNvXs4_NtNtCs2hUxDLYgi0n_14vass_reach_lib9automaton3nfaINtB5_3NFAINtNtCs7xuAoyMVi4A_4core6option6OptionjENtNtNtB7_3cfg6update16CFGCounterUpdateEINtB7_19ModifiableAutomatonNtB7_16NonDeterministicE8add_edgeCseoIxkIhB6T8_12vass_z_reach
FNDA:21,_RNvXs4_NtNtCs2hUxDLYgi0n_14vass_reach_lib9automaton3nfaINtB5_3NFAINtNtCs7xuAoyMVi4A_4core6option6OptionjENtNtNtB7_3cfg6update16CFGCounterUpdateEINtB7_19ModifiableAutomatonNtB7_16NonDeterministicE8add_nodeCseoIxkIhB6T8_12vass_z_reach
FNDA:12,_RNvXs4_NtNtCs2hUxDLYgi0n_14vass_reach_lib9automaton3nfaINtB5_3NFAINtNtCs7xuAoyMVi4A_4core6option6OptionmENtNtNtB7_3cfg6update16CFGCounterUpdateEINtB7_19ModifiableAutomatonNtB7_16NonDeterministicE8add_edgeCseoIxkIhB6T8_12vass_z_reach
FNDA:10,_RNvXs4_NtNtCs2hUxDLYgi0n_14vass_reach_lib9automaton3nfaINtB5_3NFAINtNtCs7xuAoyMVi4A_4core6option6OptionmENtNtNtB7_3cfg6update16CFGCounterUpdateEINtB7_19ModifiableAutomatonNtB7_16NonDeterministicE8add_nodeCseoIxkIhB6T8_12vass_z_reach
FNF:37
FNH:15
DA:21,47428
DA:22,47428
DA:23,47428
DA:27,0
DA:28,0
DA:29,0
DA:30,0
DA:32,0
DA:43,63
DA:44,63
DA:46,63
DA:47,63
DA:48,63
DA:49,63
DA:50,63
DA:51,63
DA:53,63
DA:54,63
DA:55,63
DA:57,37
DA:58,37
DA:59,37
DA:64,63
DA:65,63
DA:66,63
DA:68,63
DA:71,63
DA:72,63
DA:74,63
DA:75,63
DA:77,63
DA:78,63
DA:79,63
DA:82,63
DA:83,63
DA:84,63
DA:85,63
DA:87,63
DA:89,585
DA:90,3094
DA:91,3094
DA:93,5407
DA:94,32198
DA:95,32198
DA:96,4072
DA:97,28126
DA:101,3094
DA:103,3094
DA:104,3094
DA:106,3094
DA:107,2698
DA:109,396
DA:110,396
DA:111,396
DA:112,396
DA:115,3094
DA:116,3094
DA:117,3094
DA:118,3094
DA:124,63
DA:126,63
DA:128,63
DA:129,63
DA:133,9483
DA:134,9483
DA:136,26259
DA:137,47428
DA:138,47428
DA:139,5397
DA:141,5397
DA:142,5201
DA:143,5201
DA:144,5201
DA:145,42031
DA:148,9483
DA:150,1071
DA:151,1071
DA:152,1071
DA:155,677
DA:156,1071
DA:157,677
DA:160,522
DA:161,522
DA:162,522
DA:164,0
DA:165,0
DA:166,0
DA:169,0
DA:170,0
DA:171,0
DA:177,44
DA:178,44
DA:179,44
DA:186,1
DA:187,1
DA:188,1
DA:190,0
DA:191,0
DA:192,0
DA:194,0
DA:195,0
DA:196,0
DA:206,0
DA:207,0
DA:208,0
DA:210,0
DA:211,0
DA:212,0
DA:214,0
DA:215,0
DA:216,0
DA:218,0
DA:219,0
DA:220,0
DA:222,0
DA:223,0
DA:224,0
DA:226,0
DA:227,0
DA:228,0
DA:229,0
DA:230,0
DA:232,0
DA:233,0
DA:234,0
DA:235,0
DA:236,0
DA:238,0
DA:239,0
DA:240,0
DA:241,0
DA:242,0
DA:243,0
DA:244,0
DA:245,0
DA:246,0
DA:252,421
DA:253,421
DA:254,421
DA:256,1356
DA:257,1356
DA:258,1356
DA:259,1356
DA:260,1356
DA:261,1356
DA:262,1356
DA:263,1356
DA:265,0
DA:266,0
DA:267,0
DA:269,0
DA:270,0
DA:271,0
DA:273,0
DA:274,0
DA:275,0
DA:277,0
DA:278,0
DA:279,0
DA:280,0
DA:282,0
DA:288,0
DA:289,0
DA:290,0
DA:292,0
DA:293,0
DA:294,0
DA:295,0
DA:296,0
DA:300,3595
DA:301,3595
DA:302,3595
DA:304,3595
DA:305,3595
DA:307,6171
DA:308,6171
DA:310,12148
DA:311,15509
DA:312,15509
DA:313,3845
DA:314,11664
DA:318,6171
DA:319,3440
DA:320,2731
DA:322,2731
DA:324,2731
DA:327,155
DA:328,3595
BRF:0
BRH:0
LF:193
LH:116
end_of_record
SF:/home/lemon/src/rust-automata/packages/vass-reach-lib/src/automaton/path/mod.rs
FN:89,_RNvMNtNtCs2hUxDLYgi0n_14vass_reach_lib9automaton4pathINtB2_4PathNtNtCsijRReng013a_8petgraph10graph_impl9NodeIndexNtB12_9EdgeIndexE13contains_nodeCs43NobSSaLSd_3dfa
FN:40,_RNvMNtNtCs2hUxDLYgi0n_14vass_reach_lib9automaton4pathINtB2_4PathNtNtCsijRReng013a_8petgraph10graph_impl9NodeIndexNtB12_9EdgeIndexE3addCs43NobSSaLSd_3dfa
FN:76,_RNvMNtNtCs2hUxDLYgi0n_14vass_reach_lib9automaton4pathINtB2_4PathNtNtCsijRReng013a_8petgraph10graph_impl9NodeIndexNtB12_9EdgeIndexE3endCs43NobSSaLSd_3dfa
FN:80,_RNvMNtNtCs2hUxDLYgi0n_14vass_reach_lib9automaton4pathINtB2_4PathNtNtCsijRReng013a_8petgraph10graph_impl9NodeIndexNtB12_9EdgeIndexE3lenCs43NobSSaLSd_3dfa
FN:16,_RNvMNtNtCs2hUxDLYgi0n_14vass_reach_lib9automaton4pathINtB2_4PathNtNtCsijRReng013a_8petgraph10graph_impl9NodeIndexNtB12_9EdgeIndexE3newCs43NobSSaLSd_3dfa
FN:72,_RNvMNtNtCs2hUxDLYgi0n_14vass_reach_lib9automaton4pathINtB2_4PathNtNtCsijRReng013a_8petgraph10graph_impl9NodeIndexNtB12_9EdgeIndexE5startCs43NobSSaLSd_3dfa
FN:23,_RINvMNtNtCs2hUxDLYgi0n_14vass_reach_lib9automaton4pathINtB3_4PathppE9from_wordppEB7_
FN:45,_RINvMNtNtCs2hUxDLYgi0n_14vass_reach_lib9automaton4pathINtB3_4PathppE9take_edgepEB7_
FN:50,_RNCINvMNtNtCs2hUxDLYgi0n_14vass_reach_lib9automaton4pathINtB5_4PathppE9take_edgepE0B9_
FN:176,_RNCNvMNtNtCs2hUxDLYgi0n_14vass_reach_lib9automaton4pathINtB4_4PathppE14split_at_nodes0B8_
FN:542,_RNCNvMs3_NtNtCs2hUxDLYgi0n_14vass_reach_lib9automaton4pathINtB7_4PathpNtNtNtB9_3cfg6update16CFGCounterUpdateE17to_compact_string0Bb_
FN:109,_RNvMNtNtCs2hUxDLYgi0n_14vass_reach_lib9automaton4pathINtB2_4PathppE10get_letterB6_
FN:117,_RNvMNtNtCs2hUxDLYgi0n_14vass_reach_lib9automaton4pathINtB2_4PathppE10iter_nodesB6_
FN:113,_RNvMNtNtCs2hUxDLYgi0n_14vass_reach_lib9automaton4pathINtB2_4PathppE12iter_lettersB6_
FN:89,_RNvMNtNtCs2hUxDLYgi0n_14vass_reach_lib9automaton4pathINtB2_4PathppE13contains_nodeB6_
FN:151,_RNvMNtNtCs2hUxDLYgi0n_14vass_reach_lib9automaton4pathINtB2_4PathppE13split_at_nodeB6_
FN:175,_RNvMNtNtCs2hUxDLYgi0n_14vass_reach_lib9automaton4pathINtB2_4PathppE14split_at_nodesB6_
FN:137,_RNvMNtNtCs2hUxDLYgi0n_14vass_reach_lib9automaton4pathINtB2_4PathppE4lastB6_
FN:133,_RNvMNtNtCs2hUxDLYgi0n_14vass_reach_lib9automaton4pathINtB2_4PathppE5firstB6_
FN:105,_RNvMNtNtCs2hUxDLYgi0n_14vass_reach_lib9automaton4pathINtB2_4PathppE8get_nodeB6_
FN:62,_RNvMNtNtCs2hUxDLYgi0n_14vass_reach_lib9automaton4pathINtB2_4PathppE8has_loopB6_
FN:97,_RNvMNtNtCs2hUxDLYgi0n_14vass_reach_lib9automaton4pathINtB2_4PathppE8has_nodeB6_
FN:85,_RNvMNtNtCs2hUxDLYgi0n_14vass_reach_lib9automaton4pathINtB2_4PathppE8is_emptyB6_
FN:225,_RNvMNtNtCs2hUxDLYgi0n_14vass_reach_lib9automaton4pathINtB2_4PathppE9slice_endB6_
FN:413,_RNvMs0_NtNtCs2hUxDLYgi0n_14vass_reach_lib9automaton4pathINtB5_4PathpNtNtNtB7_3cfg6update16CFGCounterUpdateE26visits_node_multiple_timesB9_
FN:539,_RNvMs3_NtNtCs2hUxDLYgi0n_14vass_reach_lib9automaton4pathINtB5_4PathpNtNtNtB7_3cfg6update16CFGCounterUpdateE17to_compact_stringB9_
FN:286,_RNvMs_NtNtCs2hUxDLYgi0n_14vass_reach_lib9automaton4pathINtB4_4PathppE13is_n_reachingB8_
FN:552,_RNvXININtNtCs2hUxDLYgi0n_14vass_reach_lib9automaton4paths4_0ppEINtB5_4PathppENtNtNtNtCs7xuAoyMVi4A_4core4iter6traits7collect12IntoIterator9into_iterB9_
FN:242,_RINvMNtNtCs2hUxDLYgi0n_14vass_reach_lib9automaton4pathINtB3_4PathNtNtCsijRReng013a_8petgraph10graph_impl9NodeIndexNtNtNtB5_3cfg6update16CFGCounterUpdateE13visited_edgesB1O_INtNtB5_3dfa3DFAuB1O_EEB7_
FN:200,_RINvMNtNtCs2hUxDLYgi0n_14vass_reach_lib9automaton4pathINtB3_4PathNtNtNtB5_20implicit_cfg_product5state15MultiGraphStateNtNtNtB5_3cfg6update16CFGCounterUpdateE8split_atNCNvMNtB5_3lsgNtB2K_14LinearSubGraph19add_scc_around_node0EB7_
FN:200,_RINvMNtNtCs2hUxDLYgi0n_14vass_reach_lib9automaton4pathINtB3_4PathNtNtNtB5_20implicit_cfg_product5state15MultiGraphStateNtNtNtB5_3cfg6update16CFGCounterUpdateE8split_atNCNvMNtB5_3lsgNtB2K_14LinearSubGraph8add_node0EB7_
FN:380,_RNCNvMs0_NtNtCs2hUxDLYgi0n_14vass_reach_lib9automaton4pathINtB7_4PathNtNtNtB9_20implicit_cfg_product5state15MultiGraphStateNtNtNtB9_3cfg6update16CFGCounterUpdateE17max_counter_value0Bb_
FN:401,_RNCNvMs0_NtNtCs2hUxDLYgi0n_14vass_reach_lib9automaton4pathINtB7_4PathNtNtNtB9_20implicit_cfg_product5state15MultiGraphStateNtNtNtB9_3cfg6update16CFGCounterUpdateE27max_counter_value_from_back0Bb_
FN:40,_RNvMNtNtCs2hUxDLYgi0n_14vass_reach_lib9automaton4pathINtB2_4PathNtNtCsijRReng013a_8petgraph10graph_impl9NodeIndexNtNtNtB4_3cfg6update16CFGCounterUpdateE3addB6_
FN:76,_RNvMNtNtCs2hUxDLYgi0n_14vass_reach_lib9automaton4pathINtB2_4PathNtNtCsijRReng013a_8petgraph10graph_impl9NodeIndexNtNtNtB4_3cfg6update16CFGCounterUpdateE3endB6_
FN:16,_RNvMNtNtCs2hUxDLYgi0n_14vass_reach_lib9automaton4pathINtB2_4PathNtNtCsijRReng013a_8petgraph10graph_impl9NodeIndexNtNtNtB4_3cfg6update16CFGCounterUpdateE3newB6_
FN:125,_RNvMNtNtCs2hUxDLYgi0n_14vass_reach_lib9automaton4pathINtB2_4PathNtNtCsijRReng013a_8petgraph10graph_impl9NodeIndexNtNtNtB4_3cfg6update16CFGCounterUpdateE4iterB6_
FN:72,_RNvMNtNtCs2hUxDLYgi0n_14vass_reach_lib9automaton4pathINtB2_4PathNtNtCsijRReng013a_8petgraph10graph_impl9NodeIndexNtNtNtB4_3cfg6update16CFGCounterUpdateE5startB6_
FN:229,_RNvMNtNtCs2hUxDLYgi0n_14vass_reach_lib9automaton4pathINtB2_4PathNtNtCsijRReng013a_8petgraph10graph_impl9NodeIndexNtNtNtB4_3cfg6update16CFGCounterUpdateE9split_offB6_
FN:121,_RNvMNtNtCs2hUxDLYgi0n_14vass_reach_lib9automaton4pathINtB2_4PathNtNtNtB4_20implicit_cfg_product5state15MultiGraphStateNtNtNtB4_3cfg6update16CFGCounterUpdateE11iter_statesB6_
FN:93,_RNvMNtNtCs2hUxDLYgi0n_14vass_reach_lib9automaton4pathINtB2_4PathNtNtNtB4_20implicit_cfg_product5state15MultiGraphStateNtNtNtB4_3cfg6update16CFGCounterUpdateE14contains_stateB6_
FN:276,_RNvMNtNtCs2hUxDLYgi0n_14vass_reach_lib9automaton4pathINtB2_4PathNtNtNtB4_20implicit_cfg_product5state15MultiGraphStateNtNtNtB4_3cfg6update16CFGCounterUpdateE15to_fancy_stringB6_
FN:40,_RNvMNtNtCs2hUxDLYgi0n_14vass_reach_lib9automaton4pathINtB2_4PathNtNtNtB4_20implicit_cfg_product5state15MultiGraphStateNtNtNtB4_3cfg6update16CFGCounterUpdateE3addB6_
FN:76,_RNvMNtNtCs2hUxDLYgi0n_14vass_reach_lib9automaton4pathINtB2_4PathNtNtNtB4_20implicit_cfg_product5state15MultiGraphStateNtNtNtB4_3cfg6update16CFGCounterUpdateE3endB6_
FN:80,_RNvMNtNtCs2hUxDLYgi0n_14vass_reach_lib9automaton4pathINtB2_4PathNtNtNtB4_20implicit_cfg_product5state15MultiGraphStateNtNtNtB4_3cfg6update16CFGCounterUpdateE3lenB6_
FN:16,_RNvMNtNtCs2hUxDLYgi0n_14vass_reach_lib9automaton4pathINtB2_4PathNtNtNtB4_20implicit_cfg_product5state15MultiGraphStateNtNtNtB4_3cfg6update16CFGCounterUpdateE3newB6_
FN:125,_RNvMNtNtCs2hUxDLYgi0n_14vass_reach_lib9automaton4pathINtB2_4PathNtNtNtB4_20implicit_cfg_product5state15MultiGraphStateNtNtNtB4_3cfg6update16CFGCounterUpdateE4iterB6_
FN:218,_RNvMNtNtCs2hUxDLYgi0n_14vass_reach_lib9automaton4pathINtB2_4PathNtNtNtB4_20implicit_cfg_product5state15MultiGraphStateNtNtNtB4_3cfg6update16CFGCounterUpdateE5sliceB6_
FN:72,_RNvMNtNtCs2hUxDLYgi0n_14vass_reach_lib9automaton4pathINtB2_4PathNtNtNtB4_20implicit_cfg_product5state15MultiGraphStateNtNtNtB4_3cfg6update16CFGCounterUpdateE5startB6_
FN:141,_RNvMNtNtCs2hUxDLYgi0n_14vass_reach_lib9automaton4pathINtB2_4PathNtNtNtB4_20implicit_cfg_product5state15MultiGraphStateNtNtNtB4_3cfg6update16CFGCounterUpdateE6concatB6_
FN:229,_RNvMNtNtCs2hUxDLYgi0n_14vass_reach_lib9automaton4pathINtB2_4PathNtNtNtB4_20implicit_cfg_product5state15MultiGraphStateNtNtNtB4_3cfg6update16CFGCounterUpdateE9split_offB6_
FN:101,_RNvMNtNtCs2hUxDLYgi0n_14vass_reach_lib9automaton4pathINtB2_4PathNtNtNtB4_20implicit_cfg_product5state15MultiGraphStateNtNtNtB4_3cfg6update16CFGCounterUpdateE9state_lenB6_
FN:309,_RNvMs0_NtNtCs2hUxDLYgi0n_14vass_reach_lib9automaton4pathINtB5_4PathNtNtNtB7_20implicit_cfg_product5state15MultiGraphStateNtNtNtB7_3cfg6update16CFGCounterUpdateE13is_n_reachingB9_
FN:372,_RNvMs0_NtNtCs2hUxDLYgi0n_14vass_reach_lib9automaton4pathINtB5_4PathNtNtNtB7_20implicit_cfg_product5state15MultiGraphStateNtNtNtB7_3cfg6update16CFGCounterUpdateE17max_counter_valueB9_
FN:327,_RNvMs0_NtNtCs2hUxDLYgi0n_14vass_reach_lib9automaton4pathINtB5_4PathNtNtNtB7_20implicit_cfg_product5state15MultiGraphStateNtNtNtB7_3cfg6update16CFGCounterUpdateE24get_path_final_valuationB9_
FN:392,_RNvMs0_NtNtCs2hUxDLYgi0n_14vass_reach_lib9automaton4pathINtB5_4PathNtNtNtB7_20implicit_cfg_product5state15MultiGraphStateNtNtNtB7_3cfg6update16CFGCounterUpdateE27max_counter_value_from_backB9_
FN:338,_RNvMs0_NtNtCs2hUxDLYgi0n_14vass_reach_lib9automaton4pathINtB5_4PathNtNtNtB7_20implicit_cfg_product5state15MultiGraphStateNtNtNtB7_3cfg6update16CFGCounterUpdateE29find_negative_counter_forwardB9_
FN:355,_RNvMs0_NtNtCs2hUxDLYgi0n_14vass_reach_lib9automaton4pathINtB5_4PathNtNtNtB7_20implicit_cfg_product5state15MultiGraphStateNtNtNtB7_3cfg6update16CFGCounterUpdateE30find_negative_counter_backwardB9_
FN:529,_RNvXs2_NtNtCs2hUxDLYgi0n_14vass_reach_lib9automaton4pathINtB5_4PathNtNtNtB7_20implicit_cfg_product5state15MultiGraphStateNtNtNtB7_3cfg6update16CFGCounterUpdateENtNtCs7xuAoyMVi4A_4core3fmt7Display3fmtB9_
FN:432,_RNvMs1_NtNtCs2hUxDLYgi0n_14vass_reach_lib9automaton4pathINtB5_4PathNtNtNtB7_20implicit_cfg_product5state15MultiGraphStateNtNtNtB7_3cfg6update16CFGCounterUpdateE14to_path_in_cfg
FN:451,_RNvMs1_NtNtCs2hUxDLYgi0n_14vass_reach_lib9automaton4pathINtB5_4PathNtNtNtB7_20implicit_cfg_product5state15MultiGraphStateNtNtNtB7_3cfg6update16CFGCounterUpdateE26is_counter_forwards_pumped
FN:495,_RNvMs1_NtNtCs2hUxDLYgi0n_14vass_reach_lib9automaton4pathINtB5_4PathNtNtNtB7_20implicit_cfg_product5state15MultiGraphStateNtNtNtB7_3cfg6update16CFGCounterUpdateE27is_counter_backwards_pumped
FN:40,_RNvMNtNtCs2hUxDLYgi0n_14vass_reach_lib9automaton4pathINtB2_4PathNtNtCsijRReng013a_8petgraph10graph_impl9NodeIndexNtB12_9EdgeIndexE3addCsjA5qX5JEwPT_16graph_algorithms
FN:76,_RNvMNtNtCs2hUxDLYgi0n_14vass_reach_lib9automaton4pathINtB2_4PathNtNtCsijRReng013a_8petgraph10graph_impl9NodeIndexNtB12_9EdgeIndexE3endCsjA5qX5JEwPT_16graph_algorithms
FN:16,_RNvMNtNtCs2hUxDLYgi0n_14vass_reach_lib9automaton4pathINtB2_4PathNtNtCsijRReng013a_8petgraph10graph_impl9NodeIndexNtB12_9EdgeIndexE3newCsjA5qX5JEwPT_16graph_algorithms
FN:552,_RNvXs4_NtNtCs2hUxDLYgi0n_14vass_reach_lib9automaton4pathINtB5_4PathNtNtCsijRReng013a_8petgraph10graph_impl9NodeIndexNtB15_9EdgeIndexENtNtNtNtCs7xuAoyMVi4A_4core4iter6traits7collect12IntoIterator9into_iterCsjA5qX5JEwPT_16graph_algorithms
FN:23,_RINvMNtNtCs2hUxDLYgi0n_14vass_reach_lib9automaton4pathINtB3_4PathNtNtNtB5_20implicit_cfg_product5state15MultiGraphStateNtNtNtB5_3cfg6update16CFGCounterUpdateE9from_wordRAB1T_j2_NtB15_18ImplicitCFGProductECs3ATG82DPHTL_3lgs
FN:23,_RINvMNtNtCs2hUxDLYgi0n_14vass_reach_lib9automaton4pathINtB3_4PathNtNtNtB5_20implicit_cfg_product5state15MultiGraphStateNtNtNtB5_3cfg6update16CFGCounterUpdateE9from_wordRINtNtCs1EFbPCGXlWb_5alloc3vec3VecB1T_ENtB15_18ImplicitCFGProductECs3ATG82DPHTL_3lgs
FN:45,_RINvMNtNtCs2hUxDLYgi0n_14vass_reach_lib9automaton4pathINtB3_4PathNtNtNtB5_20implicit_cfg_product5state15MultiGraphStateNtNtNtB5_3cfg6update16CFGCounterUpdateE9take_edgeNtB15_18ImplicitCFGProductECs3ATG82DPHTL_3lgs
FN:50,_RNCINvMNtNtCs2hUxDLYgi0n_14vass_reach_lib9automaton4pathINtB5_4PathNtNtNtB7_20implicit_cfg_product5state15MultiGraphStateNtNtNtB7_3cfg6update16CFGCounterUpdateE9take_edgeNtB17_18ImplicitCFGProductE0Cs3ATG82DPHTL_3lgs
FN:85,_RNvMNtNtCs2hUxDLYgi0n_14vass_reach_lib9automaton4pathINtB2_4PathNtNtNtB4_20implicit_cfg_product5state15MultiGraphStateNtNtNtB4_3cfg6update16CFGCounterUpdateE8is_emptyCs3ATG82DPHTL_3lgs
FN:200,_RINvMNtNtCs2hUxDLYgi0n_14vass_reach_lib9automaton4pathINtB3_4PathNtNtCsijRReng013a_8petgraph10graph_impl9NodeIndexcE8split_atNCNvCs9XXF3XtrrPR_4paths_16test_path_splits0EB23_
FN:23,_RINvMNtNtCs2hUxDLYgi0n_14vass_reach_lib9automaton4pathINtB3_4PathNtNtCsijRReng013a_8petgraph10graph_impl9NodeIndexcE9from_wordRINtNtCs1EFbPCGXlWb_5alloc3vec3VeccEINtNtB5_3dfa3DFAucEECs9XXF3XtrrPR_4path
FN:45,_RINvMNtNtCs2hUxDLYgi0n_14vass_reach_lib9automaton4pathINtB3_4PathNtNtCsijRReng013a_8petgraph10graph_impl9NodeIndexcE9take_edgeINtNtB5_3dfa3DFAucEECs9XXF3XtrrPR_4path
FN:50,_RNCINvMNtNtCs2hUxDLYgi0n_14vass_reach_lib9automaton4pathINtB5_4PathNtNtCsijRReng013a_8petgraph10graph_impl9NodeIndexcE9take_edgeINtNtB7_3dfa3DFAucEE0Cs9XXF3XtrrPR_4path
FN:176,_RNCNvMNtNtCs2hUxDLYgi0n_14vass_reach_lib9automaton4pathINtB4_4PathNtNtCsijRReng013a_8petgraph10graph_impl9NodeIndexcE14split_at_nodes0Cs9XXF3XtrrPR_4path
FN:380,_RNCNvMs0_NtNtCs2hUxDLYgi0n_14vass_reach_lib9automaton4pathINtB7_4PathNtNtCsijRReng013a_8petgraph10graph_impl9NodeIndexNtNtNtB9_3cfg6update16CFGCounterUpdateE17max_counter_value0Cs9XXF3XtrrPR_4path
FN:401,_RNCNvMs0_NtNtCs2hUxDLYgi0n_14vass_reach_lib9automaton4pathINtB7_4PathNtNtCsijRReng013a_8petgraph10graph_impl9NodeIndexNtNtNtB9_3cfg6update16CFGCounterUpdateE27max_counter_value_from_back0Cs9XXF3XtrrPR_4path
FN:40,_RNvMNtNtCs2hUxDLYgi0n_14vass_reach_lib9automaton4pathINtB2_4PathNtNtCsijRReng013a_8petgraph10graph_impl9NodeIndexNtB12_9EdgeIndexE3addCs9XXF3XtrrPR_4path
FN:16,_RNvMNtNtCs2hUxDLYgi0n_14vass_reach_lib9automaton4pathINtB2_4PathNtNtCsijRReng013a_8petgraph10graph_impl9NodeIndexNtB12_9EdgeIndexE3newCs9XXF3XtrrPR_4path
FN:109,_RNvMNtNtCs2hUxDLYgi0n_14vass_reach_lib9automaton4pathINtB2_4PathNtNtCsijRReng013a_8petgraph10graph_impl9NodeIndexcE10get_letterCs9XXF3XtrrPR_4path
FN:117,_RNvMNtNtCs2hUxDLYgi0n_14vass_reach_lib9automaton4pathINtB2_4PathNtNtCsijRReng013a_8petgraph10graph_impl9NodeIndexcE10iter_nodesCs9XXF3XtrrPR_4path
FN:113,_RNvMNtNtCs2hUxDLYgi0n_14vass_reach_lib9automaton4pathINtB2_4PathNtNtCsijRReng013a_8petgraph10graph_impl9NodeIndexcE12iter_lettersCs9XXF3XtrrPR_4path
FN:89,_RNvMNtNtCs2hUxDLYgi0n_14vass_reach_lib9automaton4pathINtB2_4PathNtNtCsijRReng013a_8petgraph10graph_impl9NodeIndexcE13contains_nodeCs9XXF3XtrrPR_4path
FN:151,_RNvMNtNtCs2hUxDLYgi0n_14vass_reach_lib9automaton4pathINtB2_4PathNtNtCsijRReng013a_8petgraph10graph_impl9NodeIndexcE13split_at_nodeCs9XXF3XtrrPR_4path
FN:175,_RNvMNtNtCs2hUxDLYgi0n_14vass_reach_lib9automaton4pathINtB2_4PathNtNtCsijRReng013a_8petgraph10graph_impl9NodeIndexcE14split_at_nodesCs9XXF3XtrrPR_4path
FN:276,_RNvMNtNtCs2hUxDLYgi0n_14vass_reach_lib9automaton4pathINtB2_4PathNtNtCsijRReng013a_8petgraph10graph_impl9NodeIndexcE15to_fancy_stringCs9XXF3XtrrPR_4path
FN:40,_RNvMNtNtCs2hUxDLYgi0n_14vass_reach_lib9automaton4pathINtB2_4PathNtNtCsijRReng013a_8petgraph10graph_impl9NodeIndexcE3addCs9XXF3XtrrPR_4path
FN:76,_RNvMNtNtCs2hUxDLYgi0n_14vass_reach_lib9automaton4pathINtB2_4PathNtNtCsijRReng013a_8petgraph10graph_impl9NodeIndexcE3endCs9XXF3XtrrPR_4path
FN:80,_RNvMNtNtCs2hUxDLYgi0n_14vass_reach_lib9automaton4pathINtB2_4PathNtNtCsijRReng013a_8petgraph10graph_impl9NodeIndexcE3lenCs9XXF3XtrrPR_4path
FN:16,_RNvMNtNtCs2hUxDLYgi0n_14vass_reach_lib9automaton4pathINtB2_4PathNtNtCsijRReng013a_8petgraph10graph_impl9NodeIndexcE3newCs9XXF3XtrrPR_4path
FN:125,_RNvMNtNtCs2hUxDLYgi0n_14vass_reach_lib9automaton4pathINtB2_4PathNtNtCsijRReng013a_8petgraph10graph_impl9NodeIndexcE4iterCs9XXF3XtrrPR_4path
FN:137,_RNvMNtNtCs2hUxDLYgi0n_14vass_reach_lib9automaton4pathINtB2_4PathNtNtCsijRReng013a_8petgraph10graph_impl9NodeIndexcE4lastCs9XXF3XtrrPR_4path
FN:133,_RNvMNtNtCs2hUxDLYgi0n_14vass_reach_lib9automaton4pathINtB2_4PathNtNtCsijRReng013a_8petgraph10graph_impl9NodeIndexcE5firstCs9XXF3XtrrPR_4path
FN:218,_RNvMNtNtCs2hUxDLYgi0n_14vass_reach_lib9automaton4pathINtB2_4PathNtNtCsijRReng013a_8petgraph10graph_impl9NodeIndexcE5sliceCs9XXF3XtrrPR_4path
FN:72,_RNvMNtNtCs2hUxDLYgi0n_14vass_reach_lib9automaton4pathINtB2_4PathNtNtCsijRReng013a_8petgraph10graph_impl9NodeIndexcE5startCs9XXF3XtrrPR_4path
FN:141,_RNvMNtNtCs2hUxDLYgi0n_14vass_reach_lib9automaton4pathINtB2_4PathNtNtCsijRReng013a_8petgraph10graph_impl9NodeIndexcE6concatCs9XXF3XtrrPR_4path
FN:105,_RNvMNtNtCs2hUxDLYgi0n_14vass_reach_lib9automaton4pathINtB2_4PathNtNtCsijRReng013a_8petgraph10graph_impl9NodeIndexcE8get_nodeCs9XXF3XtrrPR_4path
FN:62,_RNvMNtNtCs2hUxDLYgi0n_14vass_reach_lib9automaton4pathINtB2_4PathNtNtCsijRReng013a_8petgraph10graph_impl9NodeIndexcE8has_loopCs9XXF3XtrrPR_4path
FN:85,_RNvMNtNtCs2hUxDLYgi0n_14vass_reach_lib9automaton4pathINtB2_4PathNtNtCsijRReng013a_8petgraph10graph_impl9NodeIndexcE8is_emptyCs9XXF3XtrrPR_4path
FN:229,_RNvMNtNtCs2hUxDLYgi0n_14vass_reach_lib9automaton4pathINtB2_4PathNtNtCsijRReng013a_8petgraph10graph_impl9NodeIndexcE9split_offCs9XXF3XtrrPR_4path
FN:309,_RNvMs0_NtNtCs2hUxDLYgi0n_14vass_reach_lib9automaton4pathINtB5_4PathNtNtCsijRReng013a_8petgraph10graph_impl9NodeIndexNtNtNtB7_3cfg6update16CFGCounterUpdateE13is_n_reachingCs9XXF3XtrrPR_4path
FN:372,_RNvMs0_NtNtCs2hUxDLYgi0n_14vass_reach_lib9automaton4pathINtB5_4PathNtNtCsijRReng013a_8petgraph10graph_impl9NodeIndexNtNtNtB7_3cfg6update16CFGCounterUpdateE17max_counter_valueCs9XXF3XtrrPR_4path
FN:327,_RNvMs0_NtNtCs2hUxDLYgi0n_14vass_reach_lib9automaton4pathINtB5_4PathNtNtCsijRReng013a_8petgraph10graph_impl9NodeIndexNtNtNtB7_3cfg6update16CFGCounterUpdateE24get_path_final_valuationCs9XXF3XtrrPR_4path
FN:392,_RNvMs0_NtNtCs2hUxDLYgi0n_14vass_reach_lib9automaton4pathINtB5_4PathNtNtCsijRReng013a_8petgraph10graph_impl9NodeIndexNtNtNtB7_3cfg6update16CFGCounterUpdateE27max_counter_value_from_backCs9XXF3XtrrPR_4path
FN:338,_RNvMs0_NtNtCs2hUxDLYgi0n_14vass_reach_lib9automaton4pathINtB5_4PathNtNtCsijRReng013a_8petgraph10graph_impl9NodeIndexNtNtNtB7_3cfg6update16CFGCounterUpdateE29find_negative_counter_forwardCs9XXF3XtrrPR_4path
FN:355,_RNvMs0_NtNtCs2hUxDLYgi0n_14vass_reach_lib9automaton4pathINtB5_4PathNtNtCsijRReng013a_8petgraph10graph_impl9NodeIndexNtNtNtB7_3cfg6update16CFGCounterUpdateE30find_negative_counter_backwardCs9XXF3XtrrPR_4path
FN:529,_RNvXs2_NtNtCs2hUxDLYgi0n_14vass_reach_lib9automaton4pathINtB5_4PathNtNtCsijRReng013a_8petgraph10graph_impl9NodeIndexcENtNtCs7xuAoyMVi4A_4core3fmt7Display3fmtCs9XXF3XtrrPR_4path
FN:552,_RNvXs4_NtNtCs2hUxDLYgi0n_14vass_reach_lib9automaton4pathINtB5_4PathNtNtCsijRReng013a_8petgraph10graph_impl9NodeIndexcENtNtNtNtCs7xuAoyMVi4A_4core4iter6traits7collect12IntoIterator9into_iterCs9XXF3XtrrPR_4path
FN:242,_RINvMNtNtCs8RRi2RJs6bh_14vass_reach_lib9automaton4pathINtB3_4PathppE13visited_edgesppEB7_
FN:200,_RINvMNtNtCs8RRi2RJs6bh_14vass_reach_lib9automaton4pathINtB3_4PathppE8split_atpEB7_
FN:23,_RINvMNtNtCs8RRi2RJs6bh_14vass_reach_lib9automaton4pathINtB3_4PathppE9from_wordppEB7_
FN:45,_RINvMNtNtCs8RRi2RJs6bh_14vass_reach_lib9automaton4pathINtB3_4PathppE9take_edgepEB7_
FN:50,_RNCINvMNtNtCs8RRi2RJs6bh_14vass_reach_lib9automaton4pathINtB5_4PathppE9take_edgepE0B9_
FN:176,_RNCNvMNtNtCs8RRi2RJs6bh_14vass_reach_lib9automaton4pathINtB4_4PathppE14split_at_nodes0B8_
FN:380,_RNCNvMs0_NtNtCs8RRi2RJs6bh_14vass_reach_lib9automaton4pathINtB7_4PathpNtNtNtB9_3cfg6update16CFGCounterUpdateE17max_counter_value0Bb_
FN:401,_RNCNvMs0_NtNtCs8RRi2RJs6bh_14vass_reach_lib9automaton4pathINtB7_4PathpNtNtNtB9_3cfg6update16CFGCounterUpdateE27max_counter_value_from_back0Bb_
FN:542,_RNCNvMs3_NtNtCs8RRi2RJs6bh_14vass_reach_lib9automaton4pathINtB7_4PathpNtNtNtB9_3cfg6update16CFGCounterUpdateE17to_compact_string0Bb_
FN:109,_RNvMNtNtCs8RRi2RJs6bh_14vass_reach_lib9automaton4pathINtB2_4PathppE10get_letterB6_
FN:117,_RNvMNtNtCs8RRi2RJs6bh_14vass_reach_lib9automaton4pathINtB2_4PathppE10iter_nodesB6_
FN:121,_RNvMNtNtCs8RRi2RJs6bh_14vass_reach_lib9automaton4pathINtB2_4PathppE11iter_statesB6_
FN:113,_RNvMNtNtCs8RRi2RJs6bh_14vass_reach_lib9automaton4pathINtB2_4PathppE12iter_lettersB6_
FN:89,_RNvMNtNtCs8RRi2RJs6bh_14vass_reach_lib9automaton4pathINtB2_4PathppE13contains_nodeB6_
FN:151,_RNvMNtNtCs8RRi2RJs6bh_14vass_reach_lib9automaton4pathINtB2_4PathppE13split_at_nodeB6_
FN:93,_RNvMNtNtCs8RRi2RJs6bh_14vass_reach_lib9automaton4pathINtB2_4PathppE14contains_stateB6_
FN:175,_RNvMNtNtCs8RRi2RJs6bh_14vass_reach_lib9automaton4pathINtB2_4PathppE14split_at_nodesB6_
FN:276,_RNvMNtNtCs8RRi2RJs6bh_14vass_reach_lib9automaton4pathINtB2_4PathppE15to_fancy_stringB6_
FN:40,_RNvMNtNtCs8RRi2RJs6bh_14vass_reach_lib9automaton4pathINtB2_4PathppE3addB6_
FN:76,_RNvMNtNtCs8RRi2RJs6bh_14vass_reach_lib9automaton4pathINtB2_4PathppE3endB6_
FN:80,_RNvMNtNtCs8RRi2RJs6bh_14vass_reach_lib9automaton4pathINtB2_4PathppE3lenB6_
FN:16,_RNvMNtNtCs8RRi2RJs6bh_14vass_reach_lib9automaton4pathINtB2_4PathppE3newB6_
FN:125,_RNvMNtNtCs8RRi2RJs6bh_14vass_reach_lib9automaton4pathINtB2_4PathppE4iterB6_
FN:137,_RNvMNtNtCs8RRi2RJs6bh_14vass_reach_lib9automaton4pathINtB2_4PathppE4lastB6_
FN:133,_RNvMNtNtCs8RRi2RJs6bh_14vass_reach_lib9automaton4pathINtB2_4PathppE5firstB6_
FN:218,_RNvMNtNtCs8RRi2RJs6bh_14vass_reach_lib9automaton4pathINtB2_4PathppE5sliceB6_
FN:72,_RNvMNtNtCs8RRi2RJs6bh_14vass_reach_lib9automaton4pathINtB2_4PathppE5startB6_
FN:141,_RNvMNtNtCs8RRi2RJs6bh_14vass_reach_lib9automaton4pathINtB2_4PathppE6concatB6_
FN:105,_RNvMNtNtCs8RRi2RJs6bh_14vass_reach_lib9automaton4pathINtB2_4PathppE8get_nodeB6_
FN:62,_RNvMNtNtCs8RRi2RJs6bh_14vass_reach_lib9automaton4pathINtB2_4PathppE8has_loopB6_
FN:97,_RNvMNtNtCs8RRi2RJs6bh_14vass_reach_lib9automaton4pathINtB2_4PathppE8has_nodeB6_
FN:85,_RNvMNtNtCs8RRi2RJs6bh_14vass_reach_lib9automaton4pathINtB2_4PathppE8is_emptyB6_
FN:225,_RNvMNtNtCs8RRi2RJs6bh_14vass_reach_lib9automaton4pathINtB2_4PathppE9slice_endB6_
FN:229,_RNvMNtNtCs8RRi2RJs6bh_14vass_reach_lib9automaton4pathINtB2_4PathppE9split_offB6_
FN:101,_RNvMNtNtCs8RRi2RJs6bh_14vass_reach_lib9automaton4pathINtB2_4PathppE9state_lenB6_
FN:309,_RNvMs0_NtNtCs8RRi2RJs6bh_14vass_reach_lib9automaton4pathINtB5_4PathpNtNtNtB7_3cfg6update16CFGCounterUpdateE13is_n_reachingB9_
FN:372,_RNvMs0_NtNtCs8RRi2RJs6bh_14vass_reach_lib9automaton4pathINtB5_4PathpNtNtNtB7_3cfg6update16CFGCounterUpdateE17max_counter_valueB9_
FN:327,_RNvMs0_NtNtCs8RRi2RJs6bh_14vass_reach_lib9automaton4pathINtB5_4PathpNtNtNtB7_3cfg6update16CFGCounterUpdateE24get_path_final_valuationB9_
FN:413,_RNvMs0_NtNtCs8RRi2RJs6bh_14vass_reach_lib9automaton4pathINtB5_4PathpNtNtNtB7_3cfg6update16CFGCounterUpdateE26visits_node_multiple_timesB9_
FN:392,_RNvMs0_NtNtCs8RRi2RJs6bh_14vass_reach_lib9automaton4pathINtB5_4PathpNtNtNtB7_3cfg6update16CFGCounterUpdateE27max_counter_value_from_backB9_
FN:338,_RNvMs0_NtNtCs8RRi2RJs6bh_14vass_reach_lib9automaton4pathINtB5_4PathpNtNtNtB7_3cfg6update16CFGCounterUpdateE29find_negative_counter_forwardB9_
FN:355,_RNvMs0_NtNtCs8RRi2RJs6bh_14vass_reach_lib9automaton4pathINtB5_4PathpNtNtNtB7_3cfg6update16CFGCounterUpdateE30find_negative_counter_backwardB9_
FN:432,_RNvMs1_NtNtCs8RRi2RJs6bh_14vass_reach_lib9automaton4pathINtB5_4PathNtNtNtB7_20implicit_cfg_product5state15MultiGraphStateNtNtNtB7_3cfg6update16CFGCounterUpdateE14to_path_in_cfg
FN:451,_RNvMs1_NtNtCs8RRi2RJs6bh_14vass_reach_lib9automaton4pathINtB5_4PathNtNtNtB7_20implicit_cfg_product5state15MultiGraphStateNtNtNtB7_3cfg6update16CFGCounterUpdateE26is_counter_forwards_pumped
FN:495,_RNvMs1_NtNtCs8RRi2RJs6bh_14vass_reach_lib9automaton4pathINtB5_4PathNtNtNtB7_20implicit_cfg_product5state15MultiGraphStateNtNtNtB7_3cfg6update16CFGCounterUpdateE27is_counter_backwards_pumped
FN:539,_RNvMs3_NtNtCs8RRi2RJs6bh_14vass_reach_lib9automaton4pathINtB5_4PathpNtNtNtB7_3cfg6update16CFGCounterUpdateE17to_compact_stringB9_
FN:286,_RNvMs_NtNtCs8RRi2RJs6bh_14vass_reach_lib9automaton4pathINtB4_4PathppE13is_n_reachingB8_
FN:529,_RNvXININtNtCs8RRi2RJs6bh_14vass_reach_lib9automaton4paths2_0ppEINtB5_4PathppENtNtCs7xuAoyMVi4A_4core3fmt7Display3fmtB9_
FN:552,_RNvXININtNtCs8RRi2RJs6bh_14vass_reach_lib9automaton4paths4_0ppEINtB5_4PathppENtNtNtNtCs7xuAoyMVi4A_4core4iter6traits7collect12IntoIterator9into_iterB9_
FNDA:70,_RNvMNtNtCs2hUxDLYgi0n_14vass_reach_lib9automaton4pathINtB2_4PathNtNtCsijRReng013a_8petgraph10graph_impl9NodeIndexNtB12_9EdgeIndexE13contains_nodeCs43NobSSaLSd_3dfa
FNDA:63,_RNvMNtNtCs2hUxDLYgi0n_14vass_reach_lib9automaton4pathINtB2_4PathNtNtCsijRReng013a_8petgraph10graph_impl9NodeIndexNtB12_9EdgeIndexE3addCs43NobSSaLSd_3dfa
FNDA:48,_RNvMNtNtCs2hUxDLYgi0n_14vass_reach_lib9automaton4pathINtB2_4PathNtNtCsijRReng013a_8petgraph10graph_impl9NodeIndexNtB12_9EdgeIndexE3endCs43NobSSaLSd_3dfa
FNDA:22,_RNvMNtNtCs2hUxDLYgi0n_14vass_reach_lib9automaton4pathINtB2_4PathNtNtCsijRReng013a_8petgraph10graph_impl9NodeIndexNtB12_9EdgeIndexE3lenCs43NobSSaLSd_3dfa
FNDA:13,_RNvMNtNtCs2hUxDLYgi0n_14vass_reach_lib9automaton4pathINtB2_4PathNtNtCsijRReng013a_8petgraph10graph_impl9NodeIndexNtB12_9EdgeIndexE3newCs43NobSSaLSd_3dfa
FNDA:123,_RNvMNtNtCs2hUxDLYgi0n_14vass_reach_lib9automaton4pathINtB2_4PathNtNtCsijRReng013a_8petgraph10graph_impl9NodeIndexNtB12_9EdgeIndexE5startCs43NobSSaLSd_3dfa
FNDA:0,_RINvMNtNtCs2hUxDLYgi0n_14vass_reach_lib9automaton4pathINtB3_4PathppE9from_wordppEB7_
FNDA:0,_RINvMNtNtCs2hUxDLYgi0n_14vass_reach_lib9automaton4pathINtB3_4PathppE9take_edgepEB7_
FNDA:0,_RNCINvMNtNtCs2hUxDLYgi0n_14vass_reach_lib9automaton4pathINtB5_4PathppE9take_edgepE0B9_
FNDA:0,_RNCNvMNtNtCs2hUxDLYgi0n_14vass_reach_lib9automaton4pathINtB4_4PathppE14split_at_nodes0B8_
FNDA:0,_RNCNvMs3_NtNtCs2hUxDLYgi0n_14vass_reach_lib9automaton4pathINtB7_4PathpNtNtNtB9_3cfg6update16CFGCounterUpdateE17to_compact_string0Bb_
FNDA:0,_RNvMNtNtCs2hUxDLYgi0n_14vass_reach_lib9automaton4pathINtB2_4PathppE10get_letterB6_
FNDA:0,_RNvMNtNtCs2hUxDLYgi0n_14vass_reach_lib9automaton4pathINtB2_4PathppE10iter_nodesB6_
FNDA:0,_RNvMNtNtCs2hUxDLYgi0n_14vass_reach_lib9automaton4pathINtB2_4PathppE12iter_lettersB6_
FNDA:0,_RNvMNtNtCs2hUxDLYgi0n_14vass_reach_lib9automaton4pathINtB2_4PathppE13contains_nodeB6_
FNDA:0,_RNvMNtNtCs2hUxDLYgi0n_14vass_reach_lib9automaton4pathINtB2_4PathppE13split_at_nodeB6_
FNDA:0,_RNvMNtNtCs2hUxDLYgi0n_14vass_reach_lib9automaton4pathINtB2_4PathppE14split_at_nodesB6_
FNDA:0,_RNvMNtNtCs2hUxDLYgi0n_14vass_reach_lib9automaton4pathINtB2_4PathppE4lastB6_
FNDA:0,_RNvMNtNtCs2hUxDLYgi0n_14vass_reach_lib9automaton4pathINtB2_4PathppE5firstB6_
FNDA:0,_RNvMNtNtCs2hUxDLYgi0n_14vass_reach_lib9automaton4pathINtB2_4PathppE8get_nodeB6_
FNDA:0,_RNvMNtNtCs2hUxDLYgi0n_14vass_reach_lib9automaton4pathINtB2_4PathppE8has_loopB6_
FNDA:0,_RNvMNtNtCs2hUxDLYgi0n_14vass_reach_lib9automaton4pathINtB2_4PathppE8has_nodeB6_
FNDA:0,_RNvMNtNtCs2hUxDLYgi0n_14vass_reach_lib9automaton4pathINtB2_4PathppE8is_emptyB6_
FNDA:0,_RNvMNtNtCs2hUxDLYgi0n_14vass_reach_lib9automaton4pathINtB2_4PathppE9slice_endB6_
FNDA:0,_RNvMs0_NtNtCs2hUxDLYgi0n_14vass_reach_lib9automaton4pathINtB5_4PathpNtNtNtB7_3cfg6update16CFGCounterUpdateE26visits_node_multiple_timesB9_
FNDA:0,_RNvMs3_NtNtCs2hUxDLYgi0n_14vass_reach_lib9automaton4pathINtB5_4PathpNtNtNtB7_3cfg6update16CFGCounterUpdateE17to_compact_stringB9_
FNDA:0,_RNvMs_NtNtCs2hUxDLYgi0n_14vass_reach_lib9automaton4pathINtB4_4PathppE13is_n_reachingB8_
FNDA:0,_RNvXININtNtCs2hUxDLYgi0n_14vass_reach_lib9automaton4paths4_0ppEINtB5_4PathppENtNtNtNtCs7xuAoyMVi4A_4core4iter6traits7collect12IntoIterator9into_iterB9_
FNDA:0,_RINvMNtNtCs2hUxDLYgi0n_14vass_reach_lib9automaton4pathINtB3_4PathNtNtCsijRReng013a_8petgraph10graph_impl9NodeIndexNtNtNtB5_3cfg6update16CFGCounterUpdateE13visited_edgesB1O_INtNtB5_3dfa3DFAuB1O_EEB7_
FNDA:0,_RINvMNtNtCs2hUxDLYgi0n_14vass_reach_lib9automaton4pathINtB3_4PathNtNtNtB5_20implicit_cfg_product5state15MultiGraphStateNtNtNtB5_3cfg6update16CFGCounterUpdateE8split_atNCNvMNtB5_3lsgNtB2K_14LinearSubGraph19add_scc_around_node0EB7_
FNDA:10,_RINvMNtNtCs2hUxDLYgi0n_14vass_reach_lib9automaton4pathINtB3_4PathNtNtNtB5_20implicit_cfg_product5state15MultiGraphStateNtNtNtB5_3cfg6update16CFGCounterUpdateE8split_atNCNvMNtB5_3lsgNtB2K_14LinearSubGraph8add_node0EB7_
FNDA:0,_RNCNvMs0_NtNtCs2hUxDLYgi0n_14vass_reach_lib9automaton4pathINtB7_4PathNtNtNtB9_20implicit_cfg_product5state15MultiGraphStateNtNtNtB9_3cfg6update16CFGCounterUpdateE17max_counter_value0Bb_
FNDA:0,_RNCNvMs0_NtNtCs2hUxDLYgi0n_14vass_reach_lib9automaton4pathINtB7_4PathNtNtNtB9_20implicit_cfg_product5state15MultiGraphStateNtNtNtB9_3cfg6update16CFGCounterUpdateE27max_counter_value_from_back0Bb_
FNDA:4216,_RNvMNtNtCs2hUxDLYgi0n_14vass_reach_lib9automaton4pathINtB2_4PathNtNtCsijRReng013a_8petgraph10graph_impl9NodeIndexNtNtNtB4_3cfg6update16CFGCounterUpdateE3addB6_
FNDA:4013,_RNvMNtNtCs2hUxDLYgi0n_14vass_reach_lib9automaton4pathINtB2_4PathNtNtCsijRReng013a_8petgraph10graph_impl9NodeIndexNtNtNtB4_3cfg6update16CFGCounterUpdateE3endB6_
FNDA:51,_RNvMNtNtCs2hUxDLYgi0n_14vass_reach_lib9automaton4pathINtB2_4PathNtNtCsijRReng013a_8petgraph10graph_impl9NodeIndexNtNtNtB4_3cfg6update16CFGCounterUpdateE3newB6_
FNDA:5,_RNvMNtNtCs2hUxDLYgi0n_14vass_reach_lib9automaton4pathINtB2_4PathNtNtCsijRReng013a_8petgraph10graph_impl9NodeIndexNtNtNtB4_3cfg6update16CFGCounterUpdateE4iterB6_
FNDA:5,_RNvMNtNtCs2hUxDLYgi0n_14vass_reach_lib9automaton4pathINtB2_4PathNtNtCsijRReng013a_8petgraph10graph_impl9NodeIndexNtNtNtB4_3cfg6update16CFGCounterUpdateE5startB6_
FNDA:18,_RNvMNtNtCs2hUxDLYgi0n_14vass_reach_lib9automaton4pathINtB2_4PathNtNtCsijRReng013a_8petgraph10graph_impl9NodeIndexNtNtNtB4_3cfg6update16CFGCounterUpdateE9split_offB6_
FNDA:17,_RNvMNtNtCs2hUxDLYgi0n_14vass_reach_lib9automaton4pathINtB2_4PathNtNtNtB4_20implicit_cfg_product5state15MultiGraphStateNtNtNtB4_3cfg6update16CFGCounterUpdateE11iter_statesB6_
FNDA:0,_RNvMNtNtCs2hUxDLYgi0n_14vass_reach_lib9automaton4pathINtB2_4PathNtNtNtB4_20implicit_cfg_product5state15MultiGraphStateNtNtNtB4_3cfg6update16CFGCounterUpdateE14contains_stateB6_
FNDA:0,_RNvMNtNtCs2hUxDLYgi0n_14vass_reach_lib9automaton4pathINtB2_4PathNtNtNtB4_20implicit_cfg_product5state15MultiGraphStateNtNtNtB4_3cfg6update16CFGCounterUpdateE15to_fancy_stringB6_
FNDA:124,_RNvMNtNtCs2hUxDLYgi0n_14vass_reach_lib9automaton4pathINtB2_4PathNtNtNtB4_20implicit_cfg_product5state15MultiGraphStateNtNtNtB4_3cfg6update16CFGCounterUpdateE3addB6_
FNDA:100,_RNvMNtNtCs2hUxDLYgi0n_14vass_reach_lib9automaton4pathINtB2_4PathNtNtNtB4_20implicit_cfg_product5state15MultiGraphStateNtNtNtB4_3cfg6update16CFGCounterUpdateE3endB6_
FNDA:1040,_RNvMNtNtCs2hUxDLYgi0n_14vass_reach_lib9automaton4pathINtB2_4PathNtNtNtB4_20implicit_cfg_product5state15MultiGraphStateNtNtNtB4_3cfg6update16CFGCounterUpdateE3lenB6_
FNDA:49,_RNvMNtNtCs2hUxDLYgi0n_14vass_reach_lib9automaton4pathINtB2_4PathNtNtNtB4_20implicit_cfg_product5state15MultiGraphStateNtNtNtB4_3cfg6update16CFGCounterUpdateE3newB6_
FNDA:10,_RNvMNtNtCs2hUxDLYgi0n_14vass_reach_lib9automaton4pathINtB2_4PathNtNtNtB4_20implicit_cfg_product5state15MultiGraphStateNtNtNtB4_3cfg6update16CFGCounterUpdateE4iterB6_
FNDA:0,_RNvMNtNtCs2hUxDLYgi0n_14vass_reach_lib9automaton4pathINtB2_4PathNtNtNtB4_20implicit_cfg_product5state15MultiGraphStateNtNtNtB4_3cfg6update16CFGCounterUpdateE5sliceB6_
FNDA:68,_RNvMNtNtCs2hUxDLYgi0n_14vass_reach_lib9automaton4pathINtB2_4PathNtNtNtB4_20implicit_cfg_product5state15MultiGraphStateNtNtNtB4_3cfg6update16CFGCounterUpdateE5startB6_
FNDA:11,_RNvMNtNtCs2hUxDLYgi0n_14vass_reach_lib9automaton4pathINtB2_4PathNtNtNtB4_20implicit_cfg_product5state15MultiGraphStateNtNtNtB4_3cfg6update16CFGCounterUpdateE6concatB6_
FNDA:0,_RNvMNtNtCs2hUxDLYgi0n_14vass_reach_lib9automaton4pathINtB2_4PathNtNtNtB4_20implicit_cfg_product5state15MultiGraphStateNtNtNtB4_3cfg6update16CFGCounterUpdateE9split_offB6_
FNDA:0,_RNvMNtNtCs2hUxDLYgi0n_14vass_reach_lib9automaton4pathINtB2_4PathNtNtNtB4_20implicit_cfg_product5state15MultiGraphStateNtNtNtB4_3cfg6update16CFGCounterUpdateE9state_lenB6_
FNDA:3,_RNvMs0_NtNtCs2hUxDLYgi0n_14vass_reach_lib9automaton4pathINtB5_4PathNtNtNtB7_20implicit_cfg_product5state15MultiGraphStateNtNtNtB7_3cfg6update16CFGCounterUpdateE13is_n_reachingB9_
FNDA:0,_RNvMs0_NtNtCs2hUxDLYgi0n_14vass_reach_lib9automaton4pathINtB5_4PathNtNtNtB7_20implicit_cfg_product5state15MultiGraphStateNtNtNtB7_3cfg6update16CFGCounterUpdateE17max_counter_valueB9_
FNDA:0,_RNvMs0_NtNtCs2hUxDLYgi0n_14vass_reach_lib9automaton4pathINtB5_4PathNtNtNtB7_20implicit_cfg_product5state15MultiGraphStateNtNtNtB7_3cfg6update16CFGCounterUpdateE24get_path_final_valuationB9_
FNDA:0,_RNvMs0_NtNtCs2hUxDLYgi0n_14vass_reach_lib9automaton4pathINtB5_4PathNtNtNtB7_20implicit_cfg_product5state15MultiGraphStateNtNtNtB7_3cfg6update16CFGCounterUpdateE27max_counter_value_from_backB9_
FNDA:0,_RNvMs0_NtNtCs2hUxDLYgi0n_14vass_reach_lib9automaton4pathINtB5_4PathNtNtNtB7_20implicit_cfg_product5state15MultiGraphStateNtNtNtB7_3cfg6update16CFGCounterUpdateE29find_negative_counter_forwardB9_
FNDA:0,_RNvMs0_NtNtCs2hUxDLYgi0n_14vass_reach_lib9automaton4pathINtB5_4PathNtNtNtB7_20implicit_cfg_product5state15MultiGraphStateNtNtNtB7_3cfg6update16CFGCounterUpdateE30find_negative_counter_backwardB9_
FNDA:0,_RNvXs2_NtNtCs2hUxDLYgi0n_14vass_reach_lib9automaton4pathINtB5_4PathNtNtNtB7_20implicit_cfg_product5state15MultiGraphStateNtNtNtB7_3cfg6update16CFGCounterUpdateENtNtCs7xuAoyMVi4A_4core3fmt7Display3fmtB9_
FNDA:0,_RNvMs1_NtNtCs2hUxDLYgi0n_14vass_reach_lib9automaton4pathINtB5_4PathNtNtNtB7_20implicit_cfg_product5state15MultiGraphStateNtNtNtB7_3cfg6update16CFGCounterUpdateE14to_path_in_cfg
FNDA:0,_RNvMs1_NtNtCs2hUxDLYgi0n_14vass_reach_lib9automaton4pathINtB5_4PathNtNtNtB7_20implicit_cfg_product5state15MultiGraphStateNtNtNtB7_3cfg6update16CFGCounterUpdateE26is_counter_forwards_pumped
FNDA:0,_RNvMs1_NtNtCs2hUxDLYgi0n_14vass_reach_lib9automaton4pathINtB5_4PathNtNtNtB7_20implicit_cfg_product5state15MultiGraphStateNtNtNtB7_3cfg6update16CFGCounterUpdateE27is_counter_backwards_pumped
FNDA:46,_RNvMNtNtCs2hUxDLYgi0n_14vass_reach_lib9automaton4pathINtB2_4PathNtNtCsijRReng013a_8petgraph10graph_impl9NodeIndexNtB12_9EdgeIndexE3addCsjA5qX5JEwPT_16graph_algorithms
FNDA:50,_RNvMNtNtCs2hUxDLYgi0n_14vass_reach_lib9automaton4pathINtB2_4PathNtNtCsijRReng013a_8petgraph10graph_impl9NodeIndexNtB12_9EdgeIndexE3endCsjA5qX5JEwPT_16graph_algorithms
FNDA:4,_RNvMNtNtCs2hUxDLYgi0n_14vass_reach_lib9automaton4pathINtB2_4PathNtNtCsijRReng013a_8petgraph10graph_impl9NodeIndexNtB12_9EdgeIndexE3newCsjA5qX5JEwPT_16graph_algorithms
FNDA:15,_RNvXs4_NtNtCs2hUxDLYgi0n_14vass_reach_lib9automaton4pathINtB5_4PathNtNtCsijRReng013a_8petgraph10graph_impl9NodeIndexNtB15_9EdgeIndexENtNtNtNtCs7xuAoyMVi4A_4core4iter6traits7collect12IntoIterator9into_iterCsjA5qX5JEwPT_16graph_algorithms
FNDA:4,_RINvMNtNtCs2hUxDLYgi0n_14vass_reach_lib9automaton4pathINtB3_4PathNtNtNtB5_20implicit_cfg_product5state15MultiGraphStateNtNtNtB5_3cfg6update16CFGCounterUpdateE9from_wordRAB1T_j2_NtB15_18ImplicitCFGProductECs3ATG82DPHTL_3lgs
FNDA:1,_RINvMNtNtCs2hUxDLYgi0n_14vass_reach_lib9automaton4pathINtB3_4PathNtNtNtB5_20implicit_cfg_product5state15MultiGraphStateNtNtNtB5_3cfg6update16CFGCounterUpdateE9from_wordRINtNtCs1EFbPCGXlWb_5alloc3vec3VecB1T_ENtB15_18ImplicitCFGProductECs3ATG82DPHTL_3lgs
FNDA:32,_RINvMNtNtCs2hUxDLYgi0n_14vass_reach_lib9automaton4pathINtB3_4PathNtNtNtB5_20implicit_cfg_product5state15MultiGraphStateNtNtNtB5_3cfg6update16CFGCounterUpdateE9take_edgeNtB15_18ImplicitCFGProductECs3ATG82DPHTL_3lgs
FNDA:0,_RNCINvMNtNtCs2hUxDLYgi0n_14vass_reach_lib9automaton4pathINtB5_4PathNtNtNtB7_20implicit_cfg_product5state15MultiGraphStateNtNtNtB7_3cfg6update16CFGCounterUpdateE9take_edgeNtB17_18ImplicitCFGProductE0Cs3ATG82DPHTL_3lgs
FNDA:1522,_RNvMNtNtCs2hUxDLYgi0n_14vass_reach_lib9automaton4pathINtB2_4PathNtNtNtB4_20implicit_cfg_product5state15MultiGraphStateNtNtNtB4_3cfg6update16CFGCounterUpdateE8is_emptyCs3ATG82DPHTL_3lgs
FNDA:1,_RINvMNtNtCs2hUxDLYgi0n_14vass_reach_lib9automaton4pathINtB3_4PathNtNtCsijRReng013a_8petgraph10graph_impl9NodeIndexcE8split_atNCNvCs9XXF3XtrrPR_4paths_16test_path_splits0EB23_
FNDA:1,_RINvMNtNtCs2hUxDLYgi0n_14vass_reach_lib9automaton4pathINtB3_4PathNtNtCsijRReng013a_8petgraph10graph_impl9NodeIndexcE9from_wordRINtNtCs1EFbPCGXlWb_5alloc3vec3VeccEINtNtB5_3dfa3DFAucEECs9XXF3XtrrPR_4path
FNDA:3,_RINvMNtNtCs2hUxDLYgi0n_14vass_reach_lib9automaton4pathINtB3_4PathNtNtCsijRReng013a_8petgraph10graph_impl9NodeIndexcE9take_edgeINtNtB5_3dfa3DFAucEECs9XXF3XtrrPR_4path
FNDA:1,_RNCINvMNtNtCs2hUxDLYgi0n_14vass_reach_lib9automaton4pathINtB5_4PathNtNtCsijRReng013a_8petgraph10graph_impl9NodeIndexcE9take_edgeINtNtB7_3dfa3DFAucEE0Cs9XXF3XtrrPR_4path
FNDA:1,_RNCNvMNtNtCs2hUxDLYgi0n_14vass_reach_lib9automaton4pathINtB4_4PathNtNtCsijRReng013a_8petgraph10graph_impl9NodeIndexcE14split_at_nodes0Cs9XXF3XtrrPR_4path
FNDA:3,_RNCNvMs0_NtNtCs2hUxDLYgi0n_14vass_reach_lib9automaton4pathINtB7_4PathNtNtCsijRReng013a_8petgraph10graph_impl9NodeIndexNtNtNtB9_3cfg6update16CFGCounterUpdateE17max_counter_value0Cs9XXF3XtrrPR_4path
FNDA:2,_RNCNvMs0_NtNtCs2hUxDLYgi0n_14vass_reach_lib9automaton4pathINtB7_4PathNtNtCsijRReng013a_8petgraph10graph_impl9NodeIndexNtNtNtB9_3cfg6update16CFGCounterUpdateE27max_counter_value_from_back0Cs9XXF3XtrrPR_4path
FNDA:3,_RNvMNtNtCs2hUxDLYgi0n_14vass_reach_lib9automaton4pathINtB2_4PathNtNtCsijRReng013a_8petgraph10graph_impl9NodeIndexNtB12_9EdgeIndexE3addCs9XXF3XtrrPR_4path
FNDA:1,_RNvMNtNtCs2hUxDLYgi0n_14vass_reach_lib9automaton4pathINtB2_4PathNtNtCsijRReng013a_8petgraph10graph_impl9NodeIndexNtB12_9EdgeIndexE3newCs9XXF3XtrrPR_4path
FNDA:3,_RNvMNtNtCs2hUxDLYgi0n_14vass_reach_lib9automaton4pathINtB2_4PathNtNtCsijRReng013a_8petgraph10graph_impl9NodeIndexcE10get_letterCs9XXF3XtrrPR_4path
FNDA:1,_RNvMNtNtCs2hUxDLYgi0n_14vass_reach_lib9automaton4pathINtB2_4PathNtNtCsijRReng013a_8petgraph10graph_impl9NodeIndexcE10iter_nodesCs9XXF3XtrrPR_4path
FNDA:1,_RNvMNtNtCs2hUxDLYgi0n_14vass_reach_lib9automaton4pathINtB2_4PathNtNtCsijRReng013a_8petgraph10graph_impl9NodeIndexcE12iter_lettersCs9XXF3XtrrPR_4path
FNDA:4,_RNvMNtNtCs2hUxDLYgi0n_14vass_reach_lib9automaton4pathINtB2_4PathNtNtCsijRReng013a_8petgraph10graph_impl9NodeIndexcE13contains_nodeCs9XXF3XtrrPR_4path
FNDA:1,_RNvMNtNtCs2hUxDLYgi0n_14vass_reach_lib9automaton4pathINtB2_4PathNtNtCsijRReng013a_8petgraph10graph_impl9NodeIndexcE13split_at_nodeCs9XXF3XtrrPR_4path
FNDA:1,_RNvMNtNtCs2hUxDLYgi0n_14vass_reach_lib9automaton4pathINtB2_4PathNtNtCsijRReng013a_8petgraph10graph_impl9NodeIndexcE14split_at_nodesCs9XXF3XtrrPR_4path
FNDA:1,_RNvMNtNtCs2hUxDLYgi0n_14vass_reach_lib9automaton4pathINtB2_4PathNtNtCsijRReng013a_8petgraph10graph_impl9NodeIndexcE15to_fancy_stringCs9XXF3XtrrPR_4path
FNDA:31,_RNvMNtNtCs2hUxDLYgi0n_14vass_reach_lib9automaton4pathINtB2_4PathNtNtCsijRReng013a_8petgraph10graph_impl9NodeIndexcE3addCs9XXF3XtrrPR_4path
FNDA:13,_RNvMNtNtCs2hUxDLYgi0n_14vass_reach_lib9automaton4pathINtB2_4PathNtNtCsijRReng013a_8petgraph10graph_impl9NodeIndexcE3endCs9XXF3XtrrPR_4path
FNDA:8,_RNvMNtNtCs2hUxDLYgi0n_14vass_reach_lib9automaton4pathINtB2_4PathNtNtCsijRReng013a_8petgraph10graph_impl9NodeIndexcE3lenCs9XXF3XtrrPR_4path
FNDA:20,_RNvMNtNtCs2hUxDLYgi0n_14vass_reach_lib9automaton4pathINtB2_4PathNtNtCsijRReng013a_8petgraph10graph_impl9NodeIndexcE3newCs9XXF3XtrrPR_4path
FNDA:6,_RNvMNtNtCs2hUxDLYgi0n_14vass_reach_lib9automaton4pathINtB2_4PathNtNtCsijRReng013a_8petgraph10graph_impl9NodeIndexcE4iterCs9XXF3XtrrPR_4path
FNDA:3,_RNvMNtNtCs2hUxDLYgi0n_14vass_reach_lib9automaton4pathINtB2_4PathNtNtCsijRReng013a_8petgraph10graph_impl9NodeIndexcE4lastCs9XXF3XtrrPR_4path
FNDA:3,_RNvMNtNtCs2hUxDLYgi0n_14vass_reach_lib9automaton4pathINtB2_4PathNtNtCsijRReng013a_8petgraph10graph_impl9NodeIndexcE5firstCs9XXF3XtrrPR_4path
FNDA:1,_RNvMNtNtCs2hUxDLYgi0n_14vass_reach_lib9automaton4pathINtB2_4PathNtNtCsijRReng013a_8petgraph10graph_impl9NodeIndexcE5sliceCs9XXF3XtrrPR_4path
FNDA:9,_RNvMNtNtCs2hUxDLYgi0n_14vass_reach_lib9automaton4pathINtB2_4PathNtNtCsijRReng013a_8petgraph10graph_impl9NodeIndexcE5startCs9XXF3XtrrPR_4path
FNDA:1,_RNvMNtNtCs2hUxDLYgi0n_14vass_reach_lib9automaton4pathINtB2_4PathNtNtCsijRReng013a_8petgraph10graph_impl9NodeIndexcE6concatCs9XXF3XtrrPR_4path
FNDA:2,_RNvMNtNtCs2hUxDLYgi0n_14vass_reach_lib9automaton4pathINtB2_4PathNtNtCsijRReng013a_8petgraph10graph_impl9NodeIndexcE8get_nodeCs9XXF3XtrrPR_4path
FNDA:2,_RNvMNtNtCs2hUxDLYgi0n_14vass_reach_lib9automaton4pathINtB2_4PathNtNtCsijRReng013a_8petgraph10graph_impl9NodeIndexcE8has_loopCs9XXF3XtrrPR_4path
FNDA:3,_RNvMNtNtCs2hUxDLYgi0n_14vass_reach_lib9automaton4pathINtB2_4PathNtNtCsijRReng013a_8petgraph10graph_impl9NodeIndexcE8is_emptyCs9XXF3XtrrPR_4path
FNDA:1,_RNvMNtNtCs2hUxDLYgi0n_14vass_reach_lib9automaton4pathINtB2_4PathNtNtCsijRReng013a_8petgraph10graph_impl9NodeIndexcE9split_offCs9XXF3XtrrPR_4path
FNDA:2,_RNvMs0_NtNtCs2hUxDLYgi0n_14vass_reach_lib9automaton4pathINtB5_4PathNtNtCsijRReng013a_8petgraph10graph_impl9NodeIndexNtNtNtB7_3cfg6update16CFGCounterUpdateE13is_n_reachingCs9XXF3XtrrPR_4path
FNDA:1,_RNvMs0_NtNtCs2hUxDLYgi0n_14vass_reach_lib9automaton4pathINtB5_4PathNtNtCsijRReng013a_8petgraph10graph_impl9NodeIndexNtNtNtB7_3cfg6update16CFGCounterUpdateE17max_counter_valueCs9XXF3XtrrPR_4path
FNDA:1,_RNvMs0_NtNtCs2hUxDLYgi0n_14vass_reach_lib9automaton4pathINtB5_4PathNtNtCsijRReng013a_8petgraph10graph_impl9NodeIndexNtNtNtB7_3cfg6update16CFGCounterUpdateE24get_path_final_valuationCs9XXF3XtrrPR_4path
FNDA:1,_RNvMs0_NtNtCs2hUxDLYgi0n_14vass_reach_lib9automaton4pathINtB5_4PathNtNtCsijRReng013a_8petgraph10graph_impl9NodeIndexNtNtNtB7_3cfg6update16CFGCounterUpdateE27max_counter_value_from_backCs9XXF3XtrrPR_4path
FNDA:1,_RNvMs0_NtNtCs2hUxDLYgi0n_14vass_reach_lib9automaton4pathINtB5_4PathNtNtCsijRReng013a_8petgraph10graph_impl9NodeIndexNtNtNtB7_3cfg6update16CFGCounterUpdateE29find_negative_counter_forwardCs9XXF3XtrrPR_4path
FNDA:1,_RNvMs0_NtNtCs2hUxDLYgi0n_14vass_reach_lib9automaton4pathINtB5_4PathNtNtCsijRReng013a_8petgraph10graph_impl9NodeIndexNtNtNtB7_3cfg6update16CFGCounterUpdateE30find_negative_counter_backwardCs9XXF3XtrrPR_4path
FNDA:1,_RNvXs2_NtNtCs2hUxDLYgi0n_14vass_reach_lib9automaton4pathINtB5_4PathNtNtCsijRReng013a_8petgraph10graph_impl9NodeIndexcENtNtCs7xuAoyMVi4A_4core3fmt7Display3fmtCs9XXF3XtrrPR_4path
FNDA:1,_RNvXs4_NtNtCs2hUxDLYgi0n_14vass_reach_lib9automaton4pathINtB5_4PathNtNtCsijRReng013a_8petgraph10graph_impl9NodeIndexcENtNtNtNtCs7xuAoyMVi4A_4core4iter6traits7collect12IntoIterator9into_iterCs9XXF3XtrrPR_4path
FNDA:0,_RINvMNtNtCs8RRi2RJs6bh_14vass_reach_lib9automaton4pathINtB3_4PathppE13visited_edgesppEB7_
FNDA:0,_RINvMNtNtCs8RRi2RJs6bh_14vass_reach_lib9automaton4pathINtB3_4PathppE8split_atpEB7_
FNDA:0,_RINvMNtNtCs8RRi2RJs6bh_14vass_reach_lib9automaton4pathINtB3_4PathppE9from_wordppEB7_
FNDA:0,_RINvMNtNtCs8RRi2RJs6bh_14vass_reach_lib9automaton4pathINtB3_4PathppE9take_edgepEB7_
FNDA:0,_RNCINvMNtNtCs8RRi2RJs6bh_14vass_reach_lib9automaton4pathINtB5_4PathppE9take_edgepE0B9_
FNDA:0,_RNCNvMNtNtCs8RRi2RJs6bh_14vass_reach_lib9automaton4pathINtB4_4PathppE14split_at_nodes0B8_
FNDA:0,_RNCNvMs0_NtNtCs8RRi2RJs6bh_14vass_reach_lib9automaton4pathINtB7_4PathpNtNtNtB9_3cfg6update16CFGCounterUpdateE17max_counter_value0Bb_
FNDA:0,_RNCNvMs0_NtNtCs8RRi2RJs6bh_14vass_reach_lib9automaton4pathINtB7_4PathpNtNtNtB9_3cfg6update16CFGCounterUpdateE27max_counter_value_from_back0Bb_
FNDA:0,_RNCNvMs3_NtNtCs8RRi2RJs6bh_14vass_reach_lib9automaton4pathINtB7_4PathpNtNtNtB9_3cfg6update16CFGCounterUpdateE17to_compact_string0Bb_
FNDA:0,_RNvMNtNtCs8RRi2RJs6bh_14vass_reach_lib9automaton4pathINtB2_4PathppE10get_letterB6_
FNDA:0,_RNvMNtNtCs8RRi2RJs6bh_14vass_reach_lib9automaton4pathINtB2_4PathppE10iter_nodesB6_
FNDA:0,_RNvMNtNtCs8RRi2RJs6bh_14vass_reach_lib9automaton4pathINtB2_4PathppE11iter_statesB6_
FNDA:0,_RNvMNtNtCs8RRi2RJs6bh_14vass_reach_lib9automaton4pathINtB2_4PathppE12iter_lettersB6_
FNDA:0,_RNvMNtNtCs8RRi2RJs6bh_14vass_reach_lib9automaton4pathINtB2_4PathppE13contains_nodeB6_
FNDA:0,_RNvMNtNtCs8RRi2RJs6bh_14vass_reach_lib9automaton4pathINtB2_4PathppE13split_at_nodeB6_
FNDA:0,_RNvMNtNtCs8RRi2RJs6bh_14vass_reach_lib9automaton4pathINtB2_4PathppE14contains_stateB6_
FNDA:0,_RNvMNtNtCs8RRi2RJs6bh_14vass_reach_lib9automaton4pathINtB2_4PathppE14split_at_nodesB6_
FNDA:0,_RNvMNtNtCs8RRi2RJs6bh_14vass_reach_lib9automaton4pathINtB2_4PathppE15to_fancy_stringB6_
FNDA:0,_RNvMNtNtCs8RRi2RJs6bh_14vass_reach_lib9automaton4pathINtB2_4PathppE3addB6_
FNDA:0,_RNvMNtNtCs8RRi2RJs6bh_14vass_reach_lib9automaton4pathINtB2_4PathppE3endB6_
FNDA:0,_RNvMNtNtCs8RRi2RJs6bh_14vass_reach_lib9automaton4pathINtB2_4PathppE3lenB6_
FNDA:0,_RNvMNtNtCs8RRi2RJs6bh_14vass_reach_lib9automaton4pathINtB2_4PathppE3newB6_
FNDA:0,_RNvMNtNtCs8RRi2RJs6bh_14vass_reach_lib9automaton4pathINtB2_4PathppE4iterB6_
FNDA:0,_RNvMNtNtCs8RRi2RJs6bh_14vass_reach_lib9automaton4pathINtB2_4PathppE4lastB6_
FNDA:0,_RNvMNtNtCs8RRi2RJs6bh_14vass_reach_lib9automaton4pathINtB2_4PathppE5firstB6_
FNDA:0,_RNvMNtNtCs8RRi2RJs6bh_14vass_reach_lib9automaton4pathINtB2_4PathppE5sliceB6_
FNDA:0,_RNvMNtNtCs8RRi2RJs6bh_14vass_reach_lib9automaton4pathINtB2_4PathppE5startB6_
FNDA:0,_RNvMNtNtCs8RRi2RJs6bh_14vass_reach_lib9automaton4pathINtB2_4PathppE6concatB6_
FNDA:0,_RNvMNtNtCs8RRi2RJs6bh_14vass_reach_lib9automaton4pathINtB2_4PathppE8get_nodeB6_
FNDA:0,_RNvMNtNtCs8RRi2RJs6bh_14vass_reach_lib9automaton4pathINtB2_4PathppE8has_loopB6_
FNDA:0,_RNvMNtNtCs8RRi2RJs6bh_14vass_reach_lib9automaton4pathINtB2_4PathppE8has_nodeB6_
FNDA:0,_RNvMNtNtCs8RRi2RJs6bh_14vass_reach_lib9automaton4pathINtB2_4PathppE8is_emptyB6_
FNDA:0,_RNvMNtNtCs8RRi2RJs6bh_14vass_reach_lib9automaton4pathINtB2_4PathppE9slice_endB6_
FNDA:0,_RNvMNtNtCs8RRi2RJs6bh_14vass_reach_lib9automaton4pathINtB2_4PathppE9split_offB6_
FNDA:0,_RNvMNtNtCs8RRi2RJs6bh_14vass_reach_lib9automaton4pathINtB2_4PathppE9state_lenB6_
FNDA:0,_RNvMs0_NtNtCs8RRi2RJs6bh_14vass_reach_lib9automaton4pathINtB5_4PathpNtNtNtB7_3cfg6update16CFGCounterUpdateE13is_n_reachingB9_
FNDA:0,_RNvMs0_NtNtCs8RRi2RJs6bh_14vass_reach_lib9automaton4pathINtB5_4PathpNtNtNtB7_3cfg6update16CFGCounterUpdateE17max_counter_valueB9_
FNDA:0,_RNvMs0_NtNtCs8RRi2RJs6bh_14vass_reach_lib9automaton4pathINtB5_4PathpNtNtNtB7_3cfg6update16CFGCounterUpdateE24get_path_final_valuationB9_
FNDA:0,_RNvMs0_NtNtCs8RRi2RJs6bh_14vass_reach_lib9automaton4pathINtB5_4PathpNtNtNtB7_3cfg6update16CFGCounterUpdateE26visits_node_multiple_timesB9_
FNDA:0,_RNvMs0_NtNtCs8RRi2RJs6bh_14vass_reach_lib9automaton4pathINtB5_4PathpNtNtNtB7_3cfg6update16CFGCounterUpdateE27max_counter_value_from_backB9_
FNDA:0,_RNvMs0_NtNtCs8RRi2RJs6bh_14vass_reach_lib9automaton4pathINtB5_4PathpNtNtNtB7_3cfg6update16CFGCounterUpdateE29find_negative_counter_forwardB9_
FNDA:0,_RNvMs0_NtNtCs8RRi2RJs6bh_14vass_reach_lib9automaton4pathINtB5_4PathpNtNtNtB7_3cfg6update16CFGCounterUpdateE30find_negative_counter_backwardB9_
FNDA:0,_RNvMs1_NtNtCs8RRi2RJs6bh_14vass_reach_lib9automaton4pathINtB5_4PathNtNtNtB7_20implicit_cfg_product5state15MultiGraphStateNtNtNtB7_3cfg6update16CFGCounterUpdateE14to_path_in_cfg
FNDA:0,_RNvMs1_NtNtCs8RRi2RJs6bh_14vass_reach_lib9automaton4pathINtB5_4PathNtNtNtB7_20implicit_cfg_product5state15MultiGraphStateNtNtNtB7_3cfg6update16CFGCounterUpdateE26is_counter_forwards_pumped
FNDA:0,_RNvMs1_NtNtCs8RRi2RJs6bh_14vass_reach_lib9automaton4pathINtB5_4PathNtNtNtB7_20implicit_cfg_product5state15MultiGraphStateNtNtNtB7_3cfg6update16CFGCounterUpdateE27is_counter_backwards_pumped
FNDA:0,_RNvMs3_NtNtCs8RRi2RJs6bh_14vass_reach_lib9automaton4pathINtB5_4PathpNtNtNtB7_3cfg6update16CFGCounterUpdateE17to_compact_stringB9_
FNDA:0,_RNvMs_NtNtCs8RRi2RJs6bh_14vass_reach_lib9automaton4pathINtB4_4PathppE13is_n_reachingB8_
FNDA:0,_RNvXININtNtCs8RRi2RJs6bh_14vass_reach_lib9automaton4paths2_0ppEINtB5_4PathppENtNtCs7xuAoyMVi4A_4core3fmt7Display3fmtB9_
FNDA:0,_RNvXININtNtCs8RRi2RJs6bh_14vass_reach_lib9automaton4paths4_0ppEINtB5_4PathppENtNtNtNtCs7xuAoyMVi4A_4core4iter6traits7collect12IntoIterator9into_iterB9_
FNF:49
FNH:37
DA:16,138
DA:17,138
DA:18,138
DA:19,138
DA:20,138
DA:21,138
DA:23,6
DA:24,6
DA:25,6
DA:26,6
DA:27,6
DA:28,6
DA:29,6
DA:31,6
DA:33,33
DA:34,33
DA:37,6
DA:38,6
DA:40,4483
DA:41,4483
DA:42,4483
DA:43,4483
DA:45,35
DA:46,35
DA:47,35
DA:48,35
DA:49,35
DA:50,35
DA:51,1
DA:54,1
DA:56,1
DA:57,34
DA:58,34
DA:59,35
DA:62,2
DA:63,2
DA:64,7
DA:65,7
DA:66,1
DA:67,6
DA:69,1
DA:70,2
DA:72,205
DA:73,205
DA:74,205
DA:76,4224
DA:77,4224
DA:78,4224
DA:80,1070
DA:81,1070
DA:82,1070
DA:83,1070
DA:85,1525
DA:86,1525
DA:87,1525
DA:89,74
DA:90,74
DA:91,74
DA:93,0
DA:94,0
DA:95,0
DA:97,0
DA:98,0
DA:99,0
DA:101,0
DA:102,0
DA:103,0
DA:105,2
DA:106,2
DA:107,2
DA:109,3
DA:110,3
DA:111,3
DA:113,1
DA:114,1
DA:115,1
DA:117,1
DA:118,1
DA:119,1
DA:121,17
DA:122,17
DA:123,17
DA:125,21
DA:126,21
DA:127,21
DA:128,21
DA:130,21
DA:131,21
DA:133,3
DA:134,3
DA:135,3
DA:137,3
DA:138,3
DA:139,3
DA:141,12
DA:142,12
DA:143,12
DA:144,12
DA:147,12
DA:148,12
DA:149,12
DA:151,1
DA:152,1
DA:153,0
DA:154,1
DA:156,1
DA:157,1
DA:159,4
DA:160,4
DA:162,4
DA:163,2
DA:164,2
DA:165,2
DA:168,1
DA:169,1
DA:170,1
DA:172,1
DA:173,1
DA:175,1
DA:176,1
DA:177,0
DA:178,1
DA:180,1
DA:181,1
DA:183,4
DA:184,4
DA:186,6
DA:187,6
DA:188,3
DA:189,3
DA:190,3
DA:191,3
DA:195,1
DA:197,1
DA:198,1
DA:200,11
DA:201,11
DA:202,11
DA:204,64
DA:205,64
DA:207,64
DA:208,19
DA:209,19
DA:210,45
DA:213,11
DA:215,11
DA:216,11
DA:218,1
DA:219,1
DA:220,1
DA:221,1
DA:222,1
DA:223,1
DA:225,0
DA:226,0
DA:227,0
DA:229,19
DA:230,19
DA:232,19
DA:233,19
DA:234,19
DA:236,19
DA:237,19
DA:239,19
DA:240,19
DA:242,0
DA:243,0
DA:244,0
DA:245,0
DA:246,0
DA:247,0
DA:248,0
DA:249,0
DA:250,0
DA:252,0
DA:253,0
DA:254,0
DA:255,0
DA:256,0
DA:257,0
DA:261,0
DA:262,0
DA:263,0
DA:267,0
DA:268,0
DA:270,0
DA:273,0
DA:274,0
DA:276,1
DA:277,1
DA:278,1
DA:286,0
DA:287,0
DA:288,0
DA:289,0
DA:290,0
DA:291,0
DA:293,0
DA:294,0
DA:295,0
DA:297,0
DA:298,0
DA:299,0
DA:303,0
DA:304,0
DA:309,5
DA:310,5
DA:311,5
DA:312,5
DA:313,5
DA:314,5
DA:316,33
DA:317,33
DA:319,33
DA:320,1
DA:321,32
DA:324,4
DA:325,5
DA:327,1
DA:328,1
DA:329,1
DA:330,1
DA:331,1
DA:332,2
DA:333,2
DA:334,2
DA:335,1
DA:336,1
DA:338,1
DA:339,1
DA:340,1
DA:341,1
DA:342,1
DA:344,2
DA:345,2
DA:347,2
DA:348,1
DA:349,1
DA:352,0
DA:353,1
DA:355,1
DA:356,1
DA:357,1
DA:358,1
DA:359,1
DA:361,1
DA:362,1
DA:364,1
DA:365,1
DA:366,0
DA:369,0
DA:370,1
DA:372,1
DA:373,1
DA:374,1
DA:375,1
DA:376,1
DA:377,1
DA:378,1
DA:379,1
DA:380,3
DA:382,1
DA:383,1
DA:384,3
DA:385,3
DA:386,3
DA:387,3
DA:389,1
DA:390,1
DA:392,1
DA:393,1
DA:394,1
DA:395,1
DA:396,1
DA:397,1
DA:398,1
DA:399,1
DA:400,1
DA:401,2
DA:403,1
DA:404,1
DA:405,2
DA:406,2
DA:407,2
DA:408,2
DA:410,1
DA:411,1
DA:413,0
DA:414,0
DA:415,0
DA:417,0
DA:418,0
DA:419,0
DA:420,0
DA:421,0
DA:422,0
DA:425,0
DA:426,0
DA:432,0
DA:433,0
DA:434,0
DA:435,0
DA:436,0
DA:438,0
DA:439,0
DA:440,0
DA:442,0
DA:443,0
DA:445,0
DA:446,0
DA:451,0
DA:452,0
DA:453,0
DA:454,0
DA:455,0
DA:456,0
DA:457,0
DA:458,0
DA:459,0
DA:463,0
DA:465,0
DA:467,0
DA:468,0
DA:472,0
DA:473,0
DA:475,0
DA:476,0
DA:477,0
DA:480,0
DA:481,0
DA:482,0
DA:483,0
DA:484,0
DA:485,0
DA:486,0
DA:489,0
DA:490,0
DA:495,0
DA:496,0
DA:497,0
DA:498,0
DA:499,0
DA:500,0
DA:501,0
DA:502,0
DA:503,0
DA:506,0
DA:508,0
DA:510,0
DA:511,0
DA:512,0
DA:515,0
DA:516,0
DA:517,0
DA:518,0
DA:519,0
DA:520,0
DA:521,0
DA:524,0
DA:525,0
DA:529,1
DA:530,1
DA:531,3
DA:532,3
DA:534,1
DA:535,1
DA:539,0
DA:540,0
DA:541,0
DA:542,0
DA:543,0
DA:544,0
DA:545,0
DA:552,16
DA:553,16
DA:554,16
DA:555,16
DA:556,16
DA:557,16
DA:558,16
BRF:0
BRH:0
LF:386
LH:251
end_of_record
SF:/home/lemon/src/rust-automata/packages/vass-reach-lib/src/automaton/path/parikh_image.rs
FN:178,_RINvMs_NtNtNtCs2hUxDLYgi0n_14vass_reach_lib9automaton4path12parikh_imageINtB5_11ParikhImageNtNtCsijRReng013a_8petgraph10graph_impl9EdgeIndexE18get_incoming_edgesNtNtNtB9_3lsg4part8LSGGraphEBb_
FN:196,_RINvMs_NtNtNtCs2hUxDLYgi0n_14vass_reach_lib9automaton4path12parikh_imageINtB5_11ParikhImageNtNtCsijRReng013a_8petgraph10graph_impl9EdgeIndexE19get_connected_nodesNtNtNtB9_3lsg4part8LSGGraphEBb_
FN:244,_RINvMs_NtNtNtCs2hUxDLYgi0n_14vass_reach_lib9automaton4path12parikh_imageINtB5_11ParikhImageNtNtCsijRReng013a_8petgraph10graph_impl9EdgeIndexE24get_total_counter_effectNtNtNtB9_3lsg4part8LSGGraphEBb_
FN:122,_RINvMs_NtNtNtCs2hUxDLYgi0n_14vass_reach_lib9automaton4path12parikh_imageINtB5_11ParikhImageNtNtCsijRReng013a_8petgraph10graph_impl9EdgeIndexE25split_connected_componentNtNtNtB9_3lsg4part8LSGGraphEBb_
FN:93,_RINvMs_NtNtNtCs2hUxDLYgi0n_14vass_reach_lib9automaton4path12parikh_imageINtB5_11ParikhImageNtNtCsijRReng013a_8petgraph10graph_impl9EdgeIndexE31split_into_connected_componentsNtNtNtB9_3lsg4part8LSGGraphEBb_
FN:213,_RINvMs_NtNtNtCs2hUxDLYgi0n_14vass_reach_lib9automaton4path12parikh_imageINtB5_11ParikhImageNtNtCsijRReng013a_8petgraph10graph_impl9EdgeIndexE9build_runNtNtNtB9_3lsg4part8LSGGraphEBb_
FN:261,_RINvNtNtNtCs2hUxDLYgi0n_14vass_reach_lib9automaton4path12parikh_image13rec_build_runNtNtNtB6_3lsg4part8LSGGraphEB8_
FN:271,_RNCINvNtNtNtCs2hUxDLYgi0n_14vass_reach_lib9automaton4path12parikh_image13rec_build_runNtNtNtB8_3lsg4part8LSGGraphE0Ba_
FN:73,_RNCNvMNtNtNtCs2hUxDLYgi0n_14vass_reach_lib9automaton4path12parikh_imageINtB4_11ParikhImageNtNtCsijRReng013a_8petgraph10graph_impl9EdgeIndexE10iter_edges0Ba_
FN:60,_RNCNvMNtNtNtCs2hUxDLYgi0n_14vass_reach_lib9automaton4path12parikh_imageINtB4_11ParikhImageNtNtCsijRReng013a_8petgraph10graph_impl9EdgeIndexE8is_empty0Ba_
FN:70,_RNvMNtNtNtCs2hUxDLYgi0n_14vass_reach_lib9automaton4path12parikh_imageINtB2_11ParikhImageNtNtCsijRReng013a_8petgraph10graph_impl9EdgeIndexE10iter_edgesB8_
FN:31,_RNvMNtNtNtCs2hUxDLYgi0n_14vass_reach_lib9automaton4path12parikh_imageINtB2_11ParikhImageNtNtCsijRReng013a_8petgraph10graph_impl9EdgeIndexE3getB8_
FN:21,_RNvMNtNtNtCs2hUxDLYgi0n_14vass_reach_lib9automaton4path12parikh_imageINtB2_11ParikhImageNtNtCsijRReng013a_8petgraph10graph_impl9EdgeIndexE3newB8_
FN:35,_RNvMNtNtNtCs2hUxDLYgi0n_14vass_reach_lib9automaton4path12parikh_imageINtB2_11ParikhImageNtNtCsijRReng013a_8petgraph10graph_impl9EdgeIndexE3setB8_
FN:25,_RNvMNtNtNtCs2hUxDLYgi0n_14vass_reach_lib9automaton4path12parikh_imageINtB2_11ParikhImageNtNtCsijRReng013a_8petgraph10graph_impl9EdgeIndexE5emptyB8_
FN:54,_RNvMNtNtNtCs2hUxDLYgi0n_14vass_reach_lib9automaton4path12parikh_imageINtB2_11ParikhImageNtNtCsijRReng013a_8petgraph10graph_impl9EdgeIndexE7set_maxB8_
FN:59,_RNvMNtNtNtCs2hUxDLYgi0n_14vass_reach_lib9automaton4path12parikh_imageINtB2_11ParikhImageNtNtCsijRReng013a_8petgraph10graph_impl9EdgeIndexE8is_emptyB8_
FN:77,_RINvMNtNtNtCs2hUxDLYgi0n_14vass_reach_lib9automaton4path12parikh_imageINtB3_11ParikhImagepE9from_pathpEB9_
FN:160,_RINvMs_NtNtNtCs2hUxDLYgi0n_14vass_reach_lib9automaton4path12parikh_imageINtB5_11ParikhImageNtNtCsijRReng013a_8petgraph10graph_impl9EdgeIndexE18get_outgoing_edgespEBb_
FN:66,_RNCNvMNtNtNtCs2hUxDLYgi0n_14vass_reach_lib9automaton4path12parikh_imageINtB4_11ParikhImagepE4iter0Ba_
FN:67,_RNCNvMNtNtNtCs2hUxDLYgi0n_14vass_reach_lib9automaton4path12parikh_imageINtB4_11ParikhImagepE4iters_0Ba_
FN:63,_RNvMNtNtNtCs2hUxDLYgi0n_14vass_reach_lib9automaton4path12parikh_imageINtB2_11ParikhImagepE4iterB8_
FN:39,_RNvMNtNtNtCs2hUxDLYgi0n_14vass_reach_lib9automaton4path12parikh_imageINtB2_11ParikhImagepE6add_toB8_
FN:44,_RNvMNtNtNtCs2hUxDLYgi0n_14vass_reach_lib9automaton4path12parikh_imageINtB2_11ParikhImagepE8sub_fromB8_
FN:77,_RINvMNtNtNtCs2hUxDLYgi0n_14vass_reach_lib9automaton4path12parikh_imageINtB3_11ParikhImageNtNtCsijRReng013a_8petgraph10graph_impl9EdgeIndexE9from_pathNtB1r_9NodeIndexECs9XXF3XtrrPR_4path
FN:73,_RNCNvMNtNtNtCs2hUxDLYgi0n_14vass_reach_lib9automaton4path12parikh_imageINtB4_11ParikhImagejE10iter_edges0Cs9XXF3XtrrPR_4path
FN:66,_RNCNvMNtNtNtCs2hUxDLYgi0n_14vass_reach_lib9automaton4path12parikh_imageINtB4_11ParikhImagejE4iter0Cs9XXF3XtrrPR_4path
FN:67,_RNCNvMNtNtNtCs2hUxDLYgi0n_14vass_reach_lib9automaton4path12parikh_imageINtB4_11ParikhImagejE4iters_0Cs9XXF3XtrrPR_4path
FN:60,_RNCNvMNtNtNtCs2hUxDLYgi0n_14vass_reach_lib9automaton4path12parikh_imageINtB4_11ParikhImagejE8is_empty0Cs9XXF3XtrrPR_4path
FN:70,_RNvMNtNtNtCs2hUxDLYgi0n_14vass_reach_lib9automaton4path12parikh_imageINtB2_11ParikhImagejE10iter_edgesCs9XXF3XtrrPR_4path
FN:31,_RNvMNtNtNtCs2hUxDLYgi0n_14vass_reach_lib9automaton4path12parikh_imageINtB2_11ParikhImagejE3getCs9XXF3XtrrPR_4path
FN:35,_RNvMNtNtNtCs2hUxDLYgi0n_14vass_reach_lib9automaton4path12parikh_imageINtB2_11ParikhImagejE3setCs9XXF3XtrrPR_4path
FN:63,_RNvMNtNtNtCs2hUxDLYgi0n_14vass_reach_lib9automaton4path12parikh_imageINtB2_11ParikhImagejE4iterCs9XXF3XtrrPR_4path
FN:25,_RNvMNtNtNtCs2hUxDLYgi0n_14vass_reach_lib9automaton4path12parikh_imageINtB2_11ParikhImagejE5emptyCs9XXF3XtrrPR_4path
FN:39,_RNvMNtNtNtCs2hUxDLYgi0n_14vass_reach_lib9automaton4path12parikh_imageINtB2_11ParikhImagejE6add_toCs9XXF3XtrrPR_4path
FN:54,_RNvMNtNtNtCs2hUxDLYgi0n_14vass_reach_lib9automaton4path12parikh_imageINtB2_11ParikhImagejE7set_maxCs9XXF3XtrrPR_4path
FN:59,_RNvMNtNtNtCs2hUxDLYgi0n_14vass_reach_lib9automaton4path12parikh_imageINtB2_11ParikhImagejE8is_emptyCs9XXF3XtrrPR_4path
FN:44,_RNvMNtNtNtCs2hUxDLYgi0n_14vass_reach_lib9automaton4path12parikh_imageINtB2_11ParikhImagejE8sub_fromCs9XXF3XtrrPR_4path
FN:77,_RINvMNtNtNtCs8RRi2RJs6bh_14vass_reach_lib9automaton4path12parikh_imageINtB3_11ParikhImagepE9from_pathpEB9_
FN:178,_RINvMs_NtNtNtCs8RRi2RJs6bh_14vass_reach_lib9automaton4path12parikh_imageINtB5_11ParikhImageNtNtCsijRReng013a_8petgraph10graph_impl9EdgeIndexE18get_incoming_edgespEBb_
FN:160,_RINvMs_NtNtNtCs8RRi2RJs6bh_14vass_reach_lib9automaton4path12parikh_imageINtB5_11ParikhImageNtNtCsijRReng013a_8petgraph10graph_impl9EdgeIndexE18get_outgoing_edgespEBb_
FN:196,_RINvMs_NtNtNtCs8RRi2RJs6bh_14vass_reach_lib9automaton4path12parikh_imageINtB5_11ParikhImageNtNtCsijRReng013a_8petgraph10graph_impl9EdgeIndexE19get_connected_nodespEBb_
FN:244,_RINvMs_NtNtNtCs8RRi2RJs6bh_14vass_reach_lib9automaton4path12parikh_imageINtB5_11ParikhImageNtNtCsijRReng013a_8petgraph10graph_impl9EdgeIndexE24get_total_counter_effectpEBb_
FN:122,_RINvMs_NtNtNtCs8RRi2RJs6bh_14vass_reach_lib9automaton4path12parikh_imageINtB5_11ParikhImageNtNtCsijRReng013a_8petgraph10graph_impl9EdgeIndexE25split_connected_componentpEBb_
FN:93,_RINvMs_NtNtNtCs8RRi2RJs6bh_14vass_reach_lib9automaton4path12parikh_imageINtB5_11ParikhImageNtNtCsijRReng013a_8petgraph10graph_impl9EdgeIndexE31split_into_connected_componentspEBb_
FN:213,_RINvMs_NtNtNtCs8RRi2RJs6bh_14vass_reach_lib9automaton4path12parikh_imageINtB5_11ParikhImageNtNtCsijRReng013a_8petgraph10graph_impl9EdgeIndexE9build_runpEBb_
FN:261,_RINvNtNtNtCs8RRi2RJs6bh_14vass_reach_lib9automaton4path12parikh_image13rec_build_runpEB8_
FN:271,_RNCINvNtNtNtCs8RRi2RJs6bh_14vass_reach_lib9automaton4path12parikh_image13rec_build_runpE0Ba_
FN:73,_RNCNvMNtNtNtCs8RRi2RJs6bh_14vass_reach_lib9automaton4path12parikh_imageINtB4_11ParikhImagepE10iter_edges0Ba_
FN:66,_RNCNvMNtNtNtCs8RRi2RJs6bh_14vass_reach_lib9automaton4path12parikh_imageINtB4_11ParikhImagepE4iter0Ba_
FN:67,_RNCNvMNtNtNtCs8RRi2RJs6bh_14vass_reach_lib9automaton4path12parikh_imageINtB4_11ParikhImagepE4iters_0Ba_
FN:60,_RNCNvMNtNtNtCs8RRi2RJs6bh_14vass_reach_lib9automaton4path12parikh_imageINtB4_11ParikhImagepE8is_empty0Ba_
FN:70,_RNvMNtNtNtCs8RRi2RJs6bh_14vass_reach_lib9automaton4path12parikh_imageINtB2_11ParikhImagepE10iter_edgesB8_
FN:31,_RNvMNtNtNtCs8RRi2RJs6bh_14vass_reach_lib9automaton4path12parikh_imageINtB2_11ParikhImagepE3getB8_
FN:21,_RNvMNtNtNtCs8RRi2RJs6bh_14vass_reach_lib9automaton4path12parikh_imageINtB2_11ParikhImagepE3newB8_
FN:35,_RNvMNtNtNtCs8RRi2RJs6bh_14vass_reach_lib9automaton4path12parikh_imageINtB2_11ParikhImagepE3setB8_
FN:63,_RNvMNtNtNtCs8RRi2RJs6bh_14vass_reach_lib9automaton4path12parikh_imageINtB2_11ParikhImagepE4iterB8_
FN:25,_RNvMNtNtNtCs8RRi2RJs6bh_14vass_reach_lib9automaton4path12parikh_imageINtB2_11ParikhImagepE5emptyB8_
FN:39,_RNvMNtNtNtCs8RRi2RJs6bh_14vass_reach_lib9automaton4path12parikh_imageINtB2_11ParikhImagepE6add_toB8_
FN:54,_RNvMNtNtNtCs8RRi2RJs6bh_14vass_reach_lib9automaton4path12parikh_imageINtB2_11ParikhImagepE7set_maxB8_
FN:59,_RNvMNtNtNtCs8RRi2RJs6bh_14vass_reach_lib9automaton4path12parikh_imageINtB2_11ParikhImagepE8is_emptyB8_
FN:44,_RNvMNtNtNtCs8RRi2RJs6bh_14vass_reach_lib9automaton4path12parikh_imageINtB2_11ParikhImagepE8sub_fromB8_
FN:178,_RINvMs_NtNtNtCs2hUxDLYgi0n_14vass_reach_lib9automaton4path12parikh_imageINtB5_11ParikhImageNtNtCsijRReng013a_8petgraph10graph_impl9EdgeIndexE18get_incoming_edgesINtNtB9_3dfa3DFAuNtNtNtB9_3cfg6update16CFGCounterUpdateEECseoIxkIhB6T8_12vass_z_reach
FN:196,_RINvMs_NtNtNtCs2hUxDLYgi0n_14vass_reach_lib9automaton4path12parikh_imageINtB5_11ParikhImageNtNtCsijRReng013a_8petgraph10graph_impl9EdgeIndexE19get_connected_nodesINtNtB9_3dfa3DFAuNtNtNtB9_3cfg6update16CFGCounterUpdateEECseoIxkIhB6T8_12vass_z_reach
FN:244,_RINvMs_NtNtNtCs2hUxDLYgi0n_14vass_reach_lib9automaton4path12parikh_imageINtB5_11ParikhImageNtNtCsijRReng013a_8petgraph10graph_impl9EdgeIndexE24get_total_counter_effectINtNtB9_3dfa3DFAuNtNtNtB9_3cfg6update16CFGCounterUpdateEECseoIxkIhB6T8_12vass_z_reach
FN:122,_RINvMs_NtNtNtCs2hUxDLYgi0n_14vass_reach_lib9automaton4path12parikh_imageINtB5_11ParikhImageNtNtCsijRReng013a_8petgraph10graph_impl9EdgeIndexE25split_connected_componentINtNtB9_3dfa3DFAuNtNtNtB9_3cfg6update16CFGCounterUpdateEECseoIxkIhB6T8_12vass_z_reach
FN:93,_RINvMs_NtNtNtCs2hUxDLYgi0n_14vass_reach_lib9automaton4path12parikh_imageINtB5_11ParikhImageNtNtCsijRReng013a_8petgraph10graph_impl9EdgeIndexE31split_into_connected_componentsINtNtB9_3dfa3DFAuNtNtNtB9_3cfg6update16CFGCounterUpdateEECseoIxkIhB6T8_12vass_z_reach
FN:213,_RINvMs_NtNtNtCs2hUxDLYgi0n_14vass_reach_lib9automaton4path12parikh_imageINtB5_11ParikhImageNtNtCsijRReng013a_8petgraph10graph_impl9EdgeIndexE9build_runINtNtB9_3dfa3DFAuNtNtNtB9_3cfg6update16CFGCounterUpdateEECseoIxkIhB6T8_12vass_z_reach
FN:261,_RINvNtNtNtCs2hUxDLYgi0n_14vass_reach_lib9automaton4path12parikh_image13rec_build_runINtNtB6_3dfa3DFAuNtNtNtB6_3cfg6update16CFGCounterUpdateEECseoIxkIhB6T8_12vass_z_reach
FN:271,_RNCINvNtNtNtCs2hUxDLYgi0n_14vass_reach_lib9automaton4path12parikh_image13rec_build_runINtNtB8_3dfa3DFAuNtNtNtB8_3cfg6update16CFGCounterUpdateEE0CseoIxkIhB6T8_12vass_z_reach
FNDA:0,_RINvMs_NtNtNtCs2hUxDLYgi0n_14vass_reach_lib9automaton4path12parikh_imageINtB5_11ParikhImageNtNtCsijRReng013a_8petgraph10graph_impl9EdgeIndexE18get_incoming_edgesNtNtNtB9_3lsg4part8LSGGraphEBb_
FNDA:0,_RINvMs_NtNtNtCs2hUxDLYgi0n_14vass_reach_lib9automaton4path12parikh_imageINtB5_11ParikhImageNtNtCsijRReng013a_8petgraph10graph_impl9EdgeIndexE19get_connected_nodesNtNtNtB9_3lsg4part8LSGGraphEBb_
FNDA:3,_RINvMs_NtNtNtCs2hUxDLYgi0n_14vass_reach_lib9automaton4path12parikh_imageINtB5_11ParikhImageNtNtCsijRReng013a_8petgraph10graph_impl9EdgeIndexE24get_total_counter_effectNtNtNtB9_3lsg4part8LSGGraphEBb_
FNDA:6,_RINvMs_NtNtNtCs2hUxDLYgi0n_14vass_reach_lib9automaton4path12parikh_imageINtB5_11ParikhImageNtNtCsijRReng013a_8petgraph10graph_impl9EdgeIndexE25split_connected_componentNtNtNtB9_3lsg4part8LSGGraphEBb_
FNDA:3,_RINvMs_NtNtNtCs2hUxDLYgi0n_14vass_reach_lib9automaton4path12parikh_imageINtB5_11ParikhImageNtNtCsijRReng013a_8petgraph10graph_impl9EdgeIndexE31split_into_connected_componentsNtNtNtB9_3lsg4part8LSGGraphEBb_
FNDA:3,_RINvMs_NtNtNtCs2hUxDLYgi0n_14vass_reach_lib9automaton4path12parikh_imageINtB5_11ParikhImageNtNtCsijRReng013a_8petgraph10graph_impl9EdgeIndexE9build_runNtNtNtB9_3lsg4part8LSGGraphEBb_
FNDA:6,_RINvNtNtNtCs2hUxDLYgi0n_14vass_reach_lib9automaton4path12parikh_image13rec_build_runNtNtNtB6_3lsg4part8LSGGraphEB8_
FNDA:11,_RNCINvNtNtNtCs2hUxDLYgi0n_14vass_reach_lib9automaton4path12parikh_image13rec_build_runNtNtNtB8_3lsg4part8LSGGraphE0Ba_
FNDA:298,_RNCNvMNtNtNtCs2hUxDLYgi0n_14vass_reach_lib9automaton4path12parikh_imageINtB4_11ParikhImageNtNtCsijRReng013a_8petgraph10graph_impl9EdgeIndexE10iter_edges0Ba_
FNDA:1392,_RNCNvMNtNtNtCs2hUxDLYgi0n_14vass_reach_lib9automaton4path12parikh_imageINtB4_11ParikhImageNtNtCsijRReng013a_8petgraph10graph_impl9EdgeIndexE8is_empty0Ba_
FNDA:8,_RNvMNtNtNtCs2hUxDLYgi0n_14vass_reach_lib9automaton4path12parikh_imageINtB2_11ParikhImageNtNtCsijRReng013a_8petgraph10graph_impl9EdgeIndexE10iter_edgesB8_
FNDA:729,_RNvMNtNtNtCs2hUxDLYgi0n_14vass_reach_lib9automaton4path12parikh_imageINtB2_11ParikhImageNtNtCsijRReng013a_8petgraph10graph_impl9EdgeIndexE3getB8_
FNDA:15,_RNvMNtNtNtCs2hUxDLYgi0n_14vass_reach_lib9automaton4path12parikh_imageINtB2_11ParikhImageNtNtCsijRReng013a_8petgraph10graph_impl9EdgeIndexE3newB8_
FNDA:46,_RNvMNtNtNtCs2hUxDLYgi0n_14vass_reach_lib9automaton4path12parikh_imageINtB2_11ParikhImageNtNtCsijRReng013a_8petgraph10graph_impl9EdgeIndexE3setB8_
FNDA:48,_RNvMNtNtNtCs2hUxDLYgi0n_14vass_reach_lib9automaton4path12parikh_imageINtB2_11ParikhImageNtNtCsijRReng013a_8petgraph10graph_impl9EdgeIndexE5emptyB8_
FNDA:46,_RNvMNtNtNtCs2hUxDLYgi0n_14vass_reach_lib9automaton4path12parikh_imageINtB2_11ParikhImageNtNtCsijRReng013a_8petgraph10graph_impl9EdgeIndexE7set_maxB8_
FNDA:34,_RNvMNtNtNtCs2hUxDLYgi0n_14vass_reach_lib9automaton4path12parikh_imageINtB2_11ParikhImageNtNtCsijRReng013a_8petgraph10graph_impl9EdgeIndexE8is_emptyB8_
FNDA:0,_RINvMNtNtNtCs2hUxDLYgi0n_14vass_reach_lib9automaton4path12parikh_imageINtB3_11ParikhImagepE9from_pathpEB9_
FNDA:0,_RINvMs_NtNtNtCs2hUxDLYgi0n_14vass_reach_lib9automaton4path12parikh_imageINtB5_11ParikhImageNtNtCsijRReng013a_8petgraph10graph_impl9EdgeIndexE18get_outgoing_edgespEBb_
FNDA:0,_RNCNvMNtNtNtCs2hUxDLYgi0n_14vass_reach_lib9automaton4path12parikh_imageINtB4_11ParikhImagepE4iter0Ba_
FNDA:0,_RNCNvMNtNtNtCs2hUxDLYgi0n_14vass_reach_lib9automaton4path12parikh_imageINtB4_11ParikhImagepE4iters_0Ba_
FNDA:0,_RNvMNtNtNtCs2hUxDLYgi0n_14vass_reach_lib9automaton4path12parikh_imageINtB2_11ParikhImagepE4iterB8_
FNDA:0,_RNvMNtNtNtCs2hUxDLYgi0n_14vass_reach_lib9automaton4path12parikh_imageINtB2_11ParikhImagepE6add_toB8_
FNDA:0,_RNvMNtNtNtCs2hUxDLYgi0n_14vass_reach_lib9automaton4path12parikh_imageINtB2_11ParikhImagepE8sub_fromB8_
FNDA:1,_RINvMNtNtNtCs2hUxDLYgi0n_14vass_reach_lib9automaton4path12parikh_imageINtB3_11ParikhImageNtNtCsijRReng013a_8petgraph10graph_impl9EdgeIndexE9from_pathNtB1r_9NodeIndexECs9XXF3XtrrPR_4path
FNDA:3,_RNCNvMNtNtNtCs2hUxDLYgi0n_14vass_reach_lib9automaton4path12parikh_imageINtB4_11ParikhImagejE10iter_edges0Cs9XXF3XtrrPR_4path
FNDA:3,_RNCNvMNtNtNtCs2hUxDLYgi0n_14vass_reach_lib9automaton4path12parikh_imageINtB4_11ParikhImagejE4iter0Cs9XXF3XtrrPR_4path
FNDA:2,_RNCNvMNtNtNtCs2hUxDLYgi0n_14vass_reach_lib9automaton4path12parikh_imageINtB4_11ParikhImagejE4iters_0Cs9XXF3XtrrPR_4path
FNDA:12,_RNCNvMNtNtNtCs2hUxDLYgi0n_14vass_reach_lib9automaton4path12parikh_imageINtB4_11ParikhImagejE8is_empty0Cs9XXF3XtrrPR_4path
FNDA:1,_RNvMNtNtNtCs2hUxDLYgi0n_14vass_reach_lib9automaton4path12parikh_imageINtB2_11ParikhImagejE10iter_edgesCs9XXF3XtrrPR_4path
FNDA:6,_RNvMNtNtNtCs2hUxDLYgi0n_14vass_reach_lib9automaton4path12parikh_imageINtB2_11ParikhImagejE3getCs9XXF3XtrrPR_4path
FNDA:3,_RNvMNtNtNtCs2hUxDLYgi0n_14vass_reach_lib9automaton4path12parikh_imageINtB2_11ParikhImagejE3setCs9XXF3XtrrPR_4path
FNDA:1,_RNvMNtNtNtCs2hUxDLYgi0n_14vass_reach_lib9automaton4path12parikh_imageINtB2_11ParikhImagejE4iterCs9XXF3XtrrPR_4path
FNDA:2,_RNvMNtNtNtCs2hUxDLYgi0n_14vass_reach_lib9automaton4path12parikh_imageINtB2_11ParikhImagejE5emptyCs9XXF3XtrrPR_4path
FNDA:1,_RNvMNtNtNtCs2hUxDLYgi0n_14vass_reach_lib9automaton4path12parikh_imageINtB2_11ParikhImagejE6add_toCs9XXF3XtrrPR_4path
FNDA:2,_RNvMNtNtNtCs2hUxDLYgi0n_14vass_reach_lib9automaton4path12parikh_imageINtB2_11ParikhImagejE7set_maxCs9XXF3XtrrPR_4path
FNDA:3,_RNvMNtNtNtCs2hUxDLYgi0n_14vass_reach_lib9automaton4path12parikh_imageINtB2_11ParikhImagejE8is_emptyCs9XXF3XtrrPR_4path
FNDA:2,_RNvMNtNtNtCs2hUxDLYgi0n_14vass_reach_lib9automaton4path12parikh_imageINtB2_11ParikhImagejE8sub_fromCs9XXF3XtrrPR_4path
FNDA:0,_RINvMNtNtNtCs8RRi2RJs6bh_14vass_reach_lib9automaton4path12parikh_imageINtB3_11ParikhImagepE9from_pathpEB9_
FNDA:0,_RINvMs_NtNtNtCs8RRi2RJs6bh_14vass_reach_lib9automaton4path12parikh_imageINtB5_11ParikhImageNtNtCsijRReng013a_8petgraph10graph_impl9EdgeIndexE18get_incoming_edgespEBb_
FNDA:0,_RINvMs_NtNtNtCs8RRi2RJs6bh_14vass_reach_lib9automaton4path12parikh_imageINtB5_11ParikhImageNtNtCsijRReng013a_8petgraph10graph_impl9EdgeIndexE18get_outgoing_edgespEBb_
FNDA:0,_RINvMs_NtNtNtCs8RRi2RJs6bh_14vass_reach_lib9automaton4path12parikh_imageINtB5_11ParikhImageNtNtCsijRReng013a_8petgraph10graph_impl9EdgeIndexE19get_connected_nodespEBb_
FNDA:0,_RINvMs_NtNtNtCs8RRi2RJs6bh_14vass_reach_lib9automaton4path12parikh_imageINtB5_11ParikhImageNtNtCsijRReng013a_8petgraph10graph_impl9EdgeIndexE24get_total_counter_effectpEBb_
FNDA:0,_RINvMs_NtNtNtCs8RRi2RJs6bh_14vass_reach_lib9automaton4path12parikh_imageINtB5_11ParikhImageNtNtCsijRReng013a_8petgraph10graph_impl9EdgeIndexE25split_connected_componentpEBb_
FNDA:0,_RINvMs_NtNtNtCs8RRi2RJs6bh_14vass_reach_lib9automaton4path12parikh_imageINtB5_11ParikhImageNtNtCsijRReng013a_8petgraph10graph_impl9EdgeIndexE31split_into_connected_componentspEBb_
FNDA:0,_RINvMs_NtNtNtCs8RRi2RJs6bh_14vass_reach_lib9automaton4path12parikh_imageINtB5_11ParikhImageNtNtCsijRReng013a_8petgraph10graph_impl9EdgeIndexE9build_runpEBb_
FNDA:0,_RINvNtNtNtCs8RRi2RJs6bh_14vass_reach_lib9automaton4path12parikh_image13rec_build_runpEB8_
FNDA:0,_RNCINvNtNtNtCs8RRi2RJs6bh_14vass_reach_lib9automaton4path12parikh_image13rec_build_runpE0Ba_
FNDA:0,_RNCNvMNtNtNtCs8RRi2RJs6bh_14vass_reach_lib9automaton4path12parikh_imageINtB4_11ParikhImagepE10iter_edges0Ba_
FNDA:0,_RNCNvMNtNtNtCs8RRi2RJs6bh_14vass_reach_lib9automaton4path12parikh_imageINtB4_11ParikhImagepE4iter0Ba_
FNDA:0,_RNCNvMNtNtNtCs8RRi2RJs6bh_14vass_reach_lib9automaton4path12parikh_imageINtB4_11ParikhImagepE4iters_0Ba_
FNDA:0,_RNCNvMNtNtNtCs8RRi2RJs6bh_14vass_reach_lib9automaton4path12parikh_imageINtB4_11ParikhImagepE8is_empty0Ba_
FNDA:0,_RNvMNtNtNtCs8RRi2RJs6bh_14vass_reach_lib9automaton4path12parikh_imageINtB2_11ParikhImagepE10iter_edgesB8_
FNDA:0,_RNvMNtNtNtCs8RRi2RJs6bh_14vass_reach_lib9automaton4path12parikh_imageINtB2_11ParikhImagepE3getB8_
FNDA:0,_RNvMNtNtNtCs8RRi2RJs6bh_14vass_reach_lib9automaton4path12parikh_imageINtB2_11ParikhImagepE3newB8_
FNDA:0,_RNvMNtNtNtCs8RRi2RJs6bh_14vass_reach_lib9automaton4path12parikh_imageINtB2_11ParikhImagepE3setB8_
FNDA:0,_RNvMNtNtNtCs8RRi2RJs6bh_14vass_reach_lib9automaton4path12parikh_imageINtB2_11ParikhImagepE4iterB8_
FNDA:0,_RNvMNtNtNtCs8RRi2RJs6bh_14vass_reach_lib9automaton4path12parikh_imageINtB2_11ParikhImagepE5emptyB8_
FNDA:0,_RNvMNtNtNtCs8RRi2RJs6bh_14vass_reach_lib9automaton4path12parikh_imageINtB2_11ParikhImagepE6add_toB8_
FNDA:0,_RNvMNtNtNtCs8RRi2RJs6bh_14vass_reach_lib9automaton4path12parikh_imageINtB2_11ParikhImagepE7set_maxB8_
FNDA:0,_RNvMNtNtNtCs8RRi2RJs6bh_14vass_reach_lib9automaton4path12parikh_imageINtB2_11ParikhImagepE8is_emptyB8_
FNDA:0,_RNvMNtNtNtCs8RRi2RJs6bh_14vass_reach_lib9automaton4path12parikh_imageINtB2_11ParikhImagepE8sub_fromB8_
FNDA:8,_RINvMs_NtNtNtCs2hUxDLYgi0n_14vass_reach_lib9automaton4path12parikh_imageINtB5_11ParikhImageNtNtCsijRReng013a_8petgraph10graph_impl9EdgeIndexE18get_incoming_edgesINtNtB9_3dfa3DFAuNtNtNtB9_3cfg6update16CFGCounterUpdateEECseoIxkIhB6T8_12vass_z_reach
FNDA:8,_RINvMs_NtNtNtCs2hUxDLYgi0n_14vass_reach_lib9automaton4path12parikh_imageINtB5_11ParikhImageNtNtCsijRReng013a_8petgraph10graph_impl9EdgeIndexE19get_connected_nodesINtNtB9_3dfa3DFAuNtNtNtB9_3cfg6update16CFGCounterUpdateEECseoIxkIhB6T8_12vass_z_reach
FNDA:3,_RINvMs_NtNtNtCs2hUxDLYgi0n_14vass_reach_lib9automaton4path12parikh_imageINtB5_11ParikhImageNtNtCsijRReng013a_8petgraph10graph_impl9EdgeIndexE24get_total_counter_effectINtNtB9_3dfa3DFAuNtNtNtB9_3cfg6update16CFGCounterUpdateEECseoIxkIhB6T8_12vass_z_reach
FNDA:42,_RINvMs_NtNtNtCs2hUxDLYgi0n_14vass_reach_lib9automaton4path12parikh_imageINtB5_11ParikhImageNtNtCsijRReng013a_8petgraph10graph_impl9EdgeIndexE25split_connected_componentINtNtB9_3dfa3DFAuNtNtNtB9_3cfg6update16CFGCounterUpdateEECseoIxkIhB6T8_12vass_z_reach
FNDA:11,_RINvMs_NtNtNtCs2hUxDLYgi0n_14vass_reach_lib9automaton4path12parikh_imageINtB5_11ParikhImageNtNtCsijRReng013a_8petgraph10graph_impl9EdgeIndexE31split_into_connected_componentsINtNtB9_3dfa3DFAuNtNtNtB9_3cfg6update16CFGCounterUpdateEECseoIxkIhB6T8_12vass_z_reach
FNDA:3,_RINvMs_NtNtNtCs2hUxDLYgi0n_14vass_reach_lib9automaton4path12parikh_imageINtB5_11ParikhImageNtNtCsijRReng013a_8petgraph10graph_impl9EdgeIndexE9build_runINtNtB9_3dfa3DFAuNtNtNtB9_3cfg6update16CFGCounterUpdateEECseoIxkIhB6T8_12vass_z_reach
FNDA:30,_RINvNtNtNtCs2hUxDLYgi0n_14vass_reach_lib9automaton4path12parikh_image13rec_build_runINtNtB6_3dfa3DFAuNtNtNtB6_3cfg6update16CFGCounterUpdateEECseoIxkIhB6T8_12vass_z_reach
FNDA:390,_RNCINvNtNtNtCs2hUxDLYgi0n_14vass_reach_lib9automaton4path12parikh_image13rec_build_runINtNtB8_3dfa3DFAuNtNtNtB8_3cfg6update16CFGCounterUpdateEE0CseoIxkIhB6T8_12vass_z_reach
FNF:24
FNH:23
DA:21,15
DA:22,15
DA:23,15
DA:25,50
DA:26,50
DA:27,50
DA:28,50
DA:29,50
DA:31,735
DA:32,735
DA:33,735
DA:35,49
DA:36,49
DA:37,49
DA:39,1
DA:40,1
DA:41,1
DA:42,1
DA:44,2
DA:45,2
DA:46,2
DA:47,1
DA:48,1
DA:49,1
DA:50,1
DA:51,2
DA:54,48
DA:55,48
DA:56,48
DA:57,48
DA:59,37
DA:60,1404
DA:61,37
DA:63,1
DA:64,1
DA:65,1
DA:66,3
DA:67,2
DA:68,1
DA:70,9
DA:71,9
DA:72,9
DA:73,301
DA:74,9
DA:75,9
DA:77,1
DA:78,1
DA:80,3
DA:81,3
DA:82,3
DA:83,3
DA:85,1
DA:86,1
DA:93,14
DA:94,14
DA:95,14
DA:96,14
DA:97,14
DA:98,14
DA:100,14
DA:102,71
DA:103,71
DA:104,37
DA:105,34
DA:107,34
DA:108,34
DA:109,8
DA:110,26
DA:113,14
DA:114,14
DA:122,48
DA:123,48
DA:124,48
DA:125,48
DA:126,48
DA:127,48
DA:128,48
DA:129,48
DA:131,119
DA:132,71
DA:133,0
DA:134,71
DA:136,71
DA:138,382
DA:139,382
DA:140,336
DA:141,46
DA:143,46
DA:144,46
DA:145,46
DA:147,46
DA:148,46
DA:149,23
DA:150,23
DA:154,48
DA:155,48
DA:160,0
DA:161,0
DA:163,0
DA:167,0
DA:168,0
DA:169,0
DA:170,0
DA:171,0
DA:175,0
DA:176,0
DA:178,8
DA:179,8
DA:181,8
DA:185,8
DA:186,245
DA:187,245
DA:188,199
DA:189,199
DA:193,8
DA:194,8
DA:196,8
DA:197,8
DA:199,298
DA:200,298
DA:201,286
DA:202,12
DA:204,12
DA:206,12
DA:207,12
DA:210,8
DA:211,8
DA:213,6
DA:214,6
DA:215,6
DA:216,6
DA:217,6
DA:218,6
DA:219,6
DA:220,6
DA:222,6
DA:223,6
DA:224,6
DA:225,6
DA:226,6
DA:227,6
DA:228,6
DA:231,6
DA:232,6
DA:233,6
DA:234,6
DA:235,26
DA:236,26
DA:237,26
DA:238,6
DA:240,0
DA:242,6
DA:244,6
DA:245,6
DA:246,6
DA:247,6
DA:248,6
DA:249,6
DA:251,84
DA:252,84
DA:253,84
DA:254,84
DA:255,84
DA:257,6
DA:258,6
DA:261,36
DA:262,36
DA:263,36
DA:264,36
DA:265,36
DA:266,36
DA:267,36
DA:268,36
DA:271,401
DA:272,6
DA:274,6
DA:275,6
DA:277,0
DA:279,30
DA:281,117
DA:283,117
DA:284,117
DA:285,87
DA:286,30
DA:290,30
DA:291,30
DA:292,0
DA:293,30
DA:296,30
DA:297,30
DA:299,30
DA:300,30
DA:302,30
DA:304,30
DA:306,30
DA:307,26
DA:308,26
DA:309,26
DA:310,26
DA:312,4
DA:313,4
DA:314,4
DA:318,4
DA:319,36
BRF:0
BRH:0
LF:209
LH:195
end_of_record
SF:/home/lemon/src/rust-automata/packages/vass-reach-lib/src/automaton/petri_net/initialized.rs
FN:64,_RNvMNtNtNtCs2hUxDLYgi0n_14vass_reach_lib9automaton9petri_net11initializedNtB2_19InitializedPetriNet12to_json_file
FN:68,_RNvMNtNtNtCs2hUxDLYgi0n_14vass_reach_lib9automaton9petri_net11initializedNtB2_19InitializedPetriNet12to_spec_file
FN:91,_RNvMNtNtNtCs2hUxDLYgi0n_14vass_reach_lib9automaton9petri_net11initializedNtB2_19InitializedPetriNet15parse_from_spec
FN:20,_RNvMNtNtNtCs2hUxDLYgi0n_14vass_reach_lib9automaton9petri_net11initializedNtB2_19InitializedPetriNet3new
FN:56,_RNvMNtNtNtCs2hUxDLYgi0n_14vass_reach_lib9automaton9petri_net11initializedNtB2_19InitializedPetriNet7to_json
FN:32,_RNvMNtNtNtCs2hUxDLYgi0n_14vass_reach_lib9automaton9petri_net11initializedNtB2_19InitializedPetriNet7to_vass
FN:72,_RNvMNtNtNtCs2hUxDLYgi0n_14vass_reach_lib9automaton9petri_net11initializedNtB2_19InitializedPetriNet9from_file
FN:60,_RNvMNtNtNtCs2hUxDLYgi0n_14vass_reach_lib9automaton9petri_net11initializedNtB2_19InitializedPetriNet9from_json
FN:100,_RNvXs_NtNtNtCs2hUxDLYgi0n_14vass_reach_lib9automaton9petri_net11initializedNtB4_19InitializedPetriNetINtNtCs7xuAoyMVi4A_4core7convert7TryFromNtNtB6_4spec12PetriNetSpecE8try_from
FN:64,_RNvMNtNtNtCs8RRi2RJs6bh_14vass_reach_lib9automaton9petri_net11initializedNtB2_19InitializedPetriNet12to_json_file
FN:68,_RNvMNtNtNtCs8RRi2RJs6bh_14vass_reach_lib9automaton9petri_net11initializedNtB2_19InitializedPetriNet12to_spec_file
FN:91,_RNvMNtNtNtCs8RRi2RJs6bh_14vass_reach_lib9automaton9petri_net11initializedNtB2_19InitializedPetriNet15parse_from_spec
FN:20,_RNvMNtNtNtCs8RRi2RJs6bh_14vass_reach_lib9automaton9petri_net11initializedNtB2_19InitializedPetriNet3new
FN:56,_RNvMNtNtNtCs8RRi2RJs6bh_14vass_reach_lib9automaton9petri_net11initializedNtB2_19InitializedPetriNet7to_json
FN:32,_RNvMNtNtNtCs8RRi2RJs6bh_14vass_reach_lib9automaton9petri_net11initializedNtB2_19InitializedPetriNet7to_vass
FN:72,_RNvMNtNtNtCs8RRi2RJs6bh_14vass_reach_lib9automaton9petri_net11initializedNtB2_19InitializedPetriNet9from_file
FN:60,_RNvMNtNtNtCs8RRi2RJs6bh_14vass_reach_lib9automaton9petri_net11initializedNtB2_19InitializedPetriNet9from_json
FN:100,_RNvXs_NtNtNtCs8RRi2RJs6bh_14vass_reach_lib9automaton9petri_net11initializedNtB4_19InitializedPetriNetINtNtCs7xuAoyMVi4A_4core7convert7TryFromNtNtB6_4spec12PetriNetSpecE8try_from
FNDA:0,_RNvMNtNtNtCs2hUxDLYgi0n_14vass_reach_lib9automaton9petri_net11initializedNtB2_19InitializedPetriNet12to_json_file
FNDA:0,_RNvMNtNtNtCs2hUxDLYgi0n_14vass_reach_lib9automaton9petri_net11initializedNtB2_19InitializedPetriNet12to_spec_file
FNDA:1,_RNvMNtNtNtCs2hUxDLYgi0n_14vass_reach_lib9automaton9petri_net11initializedNtB2_19InitializedPetriNet15parse_from_spec
FNDA:8,_RNvMNtNtNtCs2hUxDLYgi0n_14vass_reach_lib9automaton9petri_net11initializedNtB2_19InitializedPetriNet3new
FNDA:0,_RNvMNtNtNtCs2hUxDLYgi0n_14vass_reach_lib9automaton9petri_net11initializedNtB2_19InitializedPetriNet7to_json
FNDA:8,_RNvMNtNtNtCs2hUxDLYgi0n_14vass_reach_lib9automaton9petri_net11initializedNtB2_19InitializedPetriNet7to_vass
FNDA:3,_RNvMNtNtNtCs2hUxDLYgi0n_14vass_reach_lib9automaton9petri_net11initializedNtB2_19InitializedPetriNet9from_file
FNDA:3,_RNvMNtNtNtCs2hUxDLYgi0n_14vass_reach_lib9automaton9petri_net11initializedNtB2_19InitializedPetriNet9from_json
FNDA:7,_RNvXs_NtNtNtCs2hUxDLYgi0n_14vass_reach_lib9automaton9petri_net11initializedNtB4_19InitializedPetriNetINtNtCs7xuAoyMVi4A_4core7convert7TryFromNtNtB6_4spec12PetriNetSpecE8try_from
FNDA:0,_RNvMNtNtNtCs8RRi2RJs6bh_14vass_reach_lib9automaton9petri_net11initializedNtB2_19InitializedPetriNet12to_json_file
FNDA:0,_RNvMNtNtNtCs8RRi2RJs6bh_14vass_reach_lib9automaton9petri_net11initializedNtB2_19InitializedPetriNet12to_spec_file
FNDA:0,_RNvMNtNtNtCs8RRi2RJs6bh_14vass_reach_lib9automaton9petri_net11initializedNtB2_19InitializedPetriNet15parse_from_spec
FNDA:0,_RNvMNtNtNtCs8RRi2RJs6bh_14vass_reach_lib9automaton9petri_net11initializedNtB2_19InitializedPetriNet3new
FNDA:0,_RNvMNtNtNtCs8RRi2RJs6bh_14vass_reach_lib9automaton9petri_net11initializedNtB2_19InitializedPetriNet7to_json
FNDA:0,_RNvMNtNtNtCs8RRi2RJs6bh_14vass_reach_lib9automaton9petri_net11initializedNtB2_19InitializedPetriNet7to_vass
FNDA:0,_RNvMNtNtNtCs8RRi2RJs6bh_14vass_reach_lib9automaton9petri_net11initializedNtB2_19InitializedPetriNet9from_file
FNDA:0,_RNvMNtNtNtCs8RRi2RJs6bh_14vass_reach_lib9automaton9petri_net11initializedNtB2_19InitializedPetriNet9from_json
FNDA:0,_RNvXs_NtNtNtCs8RRi2RJs6bh_14vass_reach_lib9automaton9petri_net11initializedNtB4_19InitializedPetriNetINtNtCs7xuAoyMVi4A_4core7convert7TryFromNtNtB6_4spec12PetriNetSpecE8try_from
FNF:9
FNH:6
DA:20,8
DA:21,8
DA:22,8
DA:23,8
DA:24,8
DA:25,8
DA:26,8
DA:27,8
DA:28,8
DA:29,8
DA:30,8
DA:32,8
DA:33,8
DA:34,8
DA:35,8
DA:37,8
DA:39,24
DA:40,24
DA:41,24
DA:42,24
DA:43,24
DA:44,24
DA:45,24
DA:46,24
DA:48,8
DA:49,8
DA:50,8
DA:51,8
DA:52,8
DA:54,8
DA:56,0
DA:57,0
DA:58,0
DA:60,3
DA:61,3
DA:62,3
DA:64,0
DA:65,0
DA:66,0
DA:68,0
DA:69,0
DA:70,0
DA:72,3
DA:73,3
DA:74,3
DA:75,3
DA:76,3
DA:77,3
DA:79,0
DA:80,0
DA:81,0
DA:82,0
DA:84,0
DA:85,0
DA:86,0
DA:87,0
DA:89,3
DA:91,1
DA:92,1
DA:93,1
DA:94,1
DA:100,7
DA:101,7
DA:102,12
DA:103,12
DA:106,3
DA:107,5
DA:108,5
DA:109,4
DA:111,7
BRF:0
BRH:0
LF:70
LH:53
end_of_record
SF:/home/lemon/src/rust-automata/packages/vass-reach-lib/src/automaton/petri_net/mod.rs
FN:29,_RNvMNtNtCs2hUxDLYgi0n_14vass_reach_lib9automaton9petri_netNtB2_8PetriNet14add_transition
FN:34,_RNvMNtNtCs2hUxDLYgi0n_14vass_reach_lib9automaton9petri_netNtB2_8PetriNet21add_transition_struct
FN:20,_RNvMNtNtCs2hUxDLYgi0n_14vass_reach_lib9automaton9petri_netNtB2_8PetriNet3new
FN:38,_RNvMNtNtCs2hUxDLYgi0n_14vass_reach_lib9automaton9petri_netNtB2_8PetriNet4init
FN:29,_RNvMNtNtCs8RRi2RJs6bh_14vass_reach_lib9automaton9petri_netNtB2_8PetriNet14add_transition
FN:34,_RNvMNtNtCs8RRi2RJs6bh_14vass_reach_lib9automaton9petri_netNtB2_8PetriNet21add_transition_struct
FN:20,_RNvMNtNtCs8RRi2RJs6bh_14vass_reach_lib9automaton9petri_netNtB2_8PetriNet3new
FN:38,_RNvMNtNtCs8RRi2RJs6bh_14vass_reach_lib9automaton9petri_netNtB2_8PetriNet4init
FNDA:15,_RNvMNtNtCs2hUxDLYgi0n_14vass_reach_lib9automaton9petri_netNtB2_8PetriNet14add_transition
FNDA:10,_RNvMNtNtCs2hUxDLYgi0n_14vass_reach_lib9automaton9petri_netNtB2_8PetriNet21add_transition_struct
FNDA:12,_RNvMNtNtCs2hUxDLYgi0n_14vass_reach_lib9automaton9petri_netNtB2_8PetriNet3new
FNDA:4,_RNvMNtNtCs2hUxDLYgi0n_14vass_reach_lib9automaton9petri_netNtB2_8PetriNet4init
FNDA:0,_RNvMNtNtCs8RRi2RJs6bh_14vass_reach_lib9automaton9petri_netNtB2_8PetriNet14add_transition
FNDA:0,_RNvMNtNtCs8RRi2RJs6bh_14vass_reach_lib9automaton9petri_netNtB2_8PetriNet21add_transition_struct
FNDA:0,_RNvMNtNtCs8RRi2RJs6bh_14vass_reach_lib9automaton9petri_netNtB2_8PetriNet3new
FNDA:0,_RNvMNtNtCs8RRi2RJs6bh_14vass_reach_lib9automaton9petri_netNtB2_8PetriNet4init
FNF:4
FNH:4
DA:20,12
DA:21,12
DA:22,12
DA:23,12
DA:24,12
DA:25,12
DA:29,15
DA:30,15
DA:31,15
DA:32,15
DA:34,10
DA:35,10
DA:36,10
DA:38,4
DA:39,4
DA:40,4
DA:41,4
DA:42,4
DA:43,4
DA:44,4
BRF:0
BRH:0
LF:20
LH:20
end_of_record
SF:/home/lemon/src/rust-automata/packages/vass-reach-lib/src/automaton/petri_net/spec.rs
FN:80,_RINvNtNtNtCs2hUxDLYgi0n_14vass_reach_lib9automaton9petri_net4spec10guard_atomINtNtCs4xmtTQeXANx_3nom5error5ErrorReEEB8_
FN:269,_RINvNtNtNtCs2hUxDLYgi0n_14vass_reach_lib9automaton9petri_net4spec10transitionINtNtCs4xmtTQeXANx_3nom5error5ErrorReEEB8_
FN:46,_RINvNtNtNtCs2hUxDLYgi0n_14vass_reach_lib9automaton9petri_net4spec10whitespaceINtNtCs4xmtTQeXANx_3nom5error5ErrorReEEB8_
FN:68,_RINvNtNtNtCs2hUxDLYgi0n_14vass_reach_lib9automaton9petri_net4spec11set_of_varsINtNtCs4xmtTQeXANx_3nom5error5ErrorReEEB8_
FN:293,_RINvNtNtNtCs2hUxDLYgi0n_14vass_reach_lib9automaton9petri_net4spec13eq_guard_atomINtNtCs4xmtTQeXANx_3nom5error5ErrorReEEB8_
FN:42,_RINvNtNtNtCs2hUxDLYgi0n_14vass_reach_lib9automaton9petri_net4spec14opt_whitespaceINtNtCs4xmtTQeXANx_3nom5error5ErrorReEEB8_
FN:369,_RINvNtNtNtCs2hUxDLYgi0n_14vass_reach_lib9automaton9petri_net4spec4initINtNtCs4xmtTQeXANx_3nom5error5ErrorReEEB8_
FN:311,_RINvNtNtNtCs2hUxDLYgi0n_14vass_reach_lib9automaton9petri_net4spec4varsINtNtCs4xmtTQeXANx_3nom5error5ErrorReEEB8_
FN:135,_RINvNtNtNtCs2hUxDLYgi0n_14vass_reach_lib9automaton9petri_net4spec5guardINtNtCs4xmtTQeXANx_3nom5error5ErrorReEEB8_
FN:330,_RINvNtNtNtCs2hUxDLYgi0n_14vass_reach_lib9automaton9petri_net4spec5rulesINtNtCs4xmtTQeXANx_3nom5error5ErrorReEEB8_
FN:393,_RINvNtNtNtCs2hUxDLYgi0n_14vass_reach_lib9automaton9petri_net4spec6targetINtNtCs4xmtTQeXANx_3nom5error5ErrorReEEB8_
FN:161,_RINvNtNtNtCs2hUxDLYgi0n_14vass_reach_lib9automaton9petri_net4spec6updateINtNtCs4xmtTQeXANx_3nom5error5ErrorReEEB8_
FN:36,_RINvNtNtNtCs2hUxDLYgi0n_14vass_reach_lib9automaton9petri_net4spec7integerINtNtCs4xmtTQeXANx_3nom5error5ErrorReEEB8_
FN:305,_RINvNtNtNtCs2hUxDLYgi0n_14vass_reach_lib9automaton9petri_net4spec8eq_guardINtNtCs4xmtTQeXANx_3nom5error5ErrorReEEB8_
FN:57,_RINvNtNtNtCs2hUxDLYgi0n_14vass_reach_lib9automaton9petri_net4spec8variableINtNtCs4xmtTQeXANx_3nom5error5ErrorReEEB8_
FN:50,_RINvNtNtNtCs2hUxDLYgi0n_14vass_reach_lib9automaton9petri_net4spec9separatorINtNtCs4xmtTQeXANx_3nom5error5ErrorReEEB8_
FN:121,_RNCNvMNtNtNtCs2hUxDLYgi0n_14vass_reach_lib9automaton9petri_net4specNtB4_5Guard20to_counter_valuation0Ba_
FN:223,_RNCNvMs_NtNtNtCs2hUxDLYgi0n_14vass_reach_lib9automaton9petri_net4specNtB6_14TransitionSpec13to_transition0Bc_
FN:242,_RNCNvMs_NtNtNtCs2hUxDLYgi0n_14vass_reach_lib9automaton9petri_net4specNtB6_14TransitionSpec13to_transitions_0Bc_
FN:486,_RNCNvXs1_NtNtNtCs2hUxDLYgi0n_14vass_reach_lib9automaton9petri_net4specNtNtB9_11initialized19InitializedPetriNetNtB7_12ToSpecFormat14to_spec_format0Bd_
FN:480,_RNvXs1_NtNtNtCs2hUxDLYgi0n_14vass_reach_lib9automaton9petri_net4specNtNtB7_11initialized19InitializedPetriNetNtB5_12ToSpecFormat14to_spec_format
FN:114,_RNvMNtNtNtCs2hUxDLYgi0n_14vass_reach_lib9automaton9petri_net4specNtB2_5Guard20to_counter_valuation
FN:426,_RNvMs0_NtNtNtCs2hUxDLYgi0n_14vass_reach_lib9automaton9petri_net4specNtB5_12PetriNetSpec1p
FN:444,_RNvMs0_NtNtNtCs2hUxDLYgi0n_14vass_reach_lib9automaton9petri_net4specNtB5_12PetriNetSpec5parse
FN:210,_RNvMs_NtNtNtCs2hUxDLYgi0n_14vass_reach_lib9automaton9petri_net4specNtB4_14TransitionSpec13to_transition
FN:121,_RNCNvMNtNtNtCs8RRi2RJs6bh_14vass_reach_lib9automaton9petri_net4specNtB4_5Guard20to_counter_valuation0Ba_
FN:223,_RNCNvMs_NtNtNtCs8RRi2RJs6bh_14vass_reach_lib9automaton9petri_net4specNtB6_14TransitionSpec13to_transition0Bc_
FN:242,_RNCNvMs_NtNtNtCs8RRi2RJs6bh_14vass_reach_lib9automaton9petri_net4specNtB6_14TransitionSpec13to_transitions_0Bc_
FN:486,_RNCNvXs1_NtNtNtCs8RRi2RJs6bh_14vass_reach_lib9automaton9petri_net4specNtNtB9_11initialized19InitializedPetriNetNtB7_12ToSpecFormat14to_spec_format0Bd_
FN:114,_RNvMNtNtNtCs8RRi2RJs6bh_14vass_reach_lib9automaton9petri_net4specNtB2_5Guard20to_counter_valuation
FN:444,_RNvMs0_NtNtNtCs8RRi2RJs6bh_14vass_reach_lib9automaton9petri_net4specNtB5_12PetriNetSpec5parse
FN:210,_RNvMs_NtNtNtCs8RRi2RJs6bh_14vass_reach_lib9automaton9petri_net4specNtB4_14TransitionSpec13to_transition
FN:480,_RNvXs1_NtNtNtCs8RRi2RJs6bh_14vass_reach_lib9automaton9petri_net4specNtNtB7_11initialized19InitializedPetriNetNtB5_12ToSpecFormat14to_spec_format
FN:80,_RINvNtNtNtCs8RRi2RJs6bh_14vass_reach_lib9automaton9petri_net4spec10guard_atomINtNtCs4xmtTQeXANx_3nom5error5ErrorReEEB8_
FN:269,_RINvNtNtNtCs8RRi2RJs6bh_14vass_reach_lib9automaton9petri_net4spec10transitionINtNtCs4xmtTQeXANx_3nom5error5ErrorReEEB8_
FN:46,_RINvNtNtNtCs8RRi2RJs6bh_14vass_reach_lib9automaton9petri_net4spec10whitespaceINtNtCs4xmtTQeXANx_3nom5error5ErrorReEEB8_
FN:68,_RINvNtNtNtCs8RRi2RJs6bh_14vass_reach_lib9automaton9petri_net4spec11set_of_varsINtNtCs4xmtTQeXANx_3nom5error5ErrorReEEB8_
FN:293,_RINvNtNtNtCs8RRi2RJs6bh_14vass_reach_lib9automaton9petri_net4spec13eq_guard_atomINtNtCs4xmtTQeXANx_3nom5error5ErrorReEEB8_
FN:42,_RINvNtNtNtCs8RRi2RJs6bh_14vass_reach_lib9automaton9petri_net4spec14opt_whitespaceINtNtCs4xmtTQeXANx_3nom5error5ErrorReEEB8_
FN:369,_RINvNtNtNtCs8RRi2RJs6bh_14vass_reach_lib9automaton9petri_net4spec4initINtNtCs4xmtTQeXANx_3nom5error5ErrorReEEB8_
FN:311,_RINvNtNtNtCs8RRi2RJs6bh_14vass_reach_lib9automaton9petri_net4spec4varsINtNtCs4xmtTQeXANx_3nom5error5ErrorReEEB8_
FN:135,_RINvNtNtNtCs8RRi2RJs6bh_14vass_reach_lib9automaton9petri_net4spec5guardINtNtCs4xmtTQeXANx_3nom5error5ErrorReEEB8_
FN:330,_RINvNtNtNtCs8RRi2RJs6bh_14vass_reach_lib9automaton9petri_net4spec5rulesINtNtCs4xmtTQeXANx_3nom5error5ErrorReEEB8_
FN:393,_RINvNtNtNtCs8RRi2RJs6bh_14vass_reach_lib9automaton9petri_net4spec6targetINtNtCs4xmtTQeXANx_3nom5error5ErrorReEEB8_
FN:161,_RINvNtNtNtCs8RRi2RJs6bh_14vass_reach_lib9automaton9petri_net4spec6updateINtNtCs4xmtTQeXANx_3nom5error5ErrorReEEB8_
FN:36,_RINvNtNtNtCs8RRi2RJs6bh_14vass_reach_lib9automaton9petri_net4spec7integerINtNtCs4xmtTQeXANx_3nom5error5ErrorReEEB8_
FN:305,_RINvNtNtNtCs8RRi2RJs6bh_14vass_reach_lib9automaton9petri_net4spec8eq_guardINtNtCs4xmtTQeXANx_3nom5error5ErrorReEEB8_
FN:57,_RINvNtNtNtCs8RRi2RJs6bh_14vass_reach_lib9automaton9petri_net4spec8variableINtNtCs4xmtTQeXANx_3nom5error5ErrorReEEB8_
FN:50,_RINvNtNtNtCs8RRi2RJs6bh_14vass_reach_lib9automaton9petri_net4spec9separatorINtNtCs4xmtTQeXANx_3nom5error5ErrorReEEB8_
FN:426,_RNvMs0_NtNtNtCs8RRi2RJs6bh_14vass_reach_lib9automaton9petri_net4specNtB5_12PetriNetSpec1p
FN:378,_RNvNtNtNtCs8RRi2RJs6bh_14vass_reach_lib9automaton9petri_net4specs_11test_init_1
FN:453,_RNvNtNtNtCs8RRi2RJs6bh_14vass_reach_lib9automaton9petri_net4specs_11test_spec_1
FN:320,_RNvNtNtNtCs8RRi2RJs6bh_14vass_reach_lib9automaton9petri_net4specs_11test_vars_1
FN:142,_RNvNtNtNtCs8RRi2RJs6bh_14vass_reach_lib9automaton9petri_net4specs_12test_guard_1
FN:341,_RNvNtNtNtCs8RRi2RJs6bh_14vass_reach_lib9automaton9petri_net4specs_12test_rules_1
FN:354,_RNvNtNtNtCs8RRi2RJs6bh_14vass_reach_lib9automaton9petri_net4specs_12test_rules_2
FN:402,_RNvNtNtNtCs8RRi2RJs6bh_14vass_reach_lib9automaton9petri_net4specs_13test_target_1
FN:186,_RNvNtNtNtCs8RRi2RJs6bh_14vass_reach_lib9automaton9petri_net4specs_13test_update_1
FN:195,_RNvNtNtNtCs8RRi2RJs6bh_14vass_reach_lib9automaton9petri_net4specs_13test_update_2
FN:93,_RNvNtNtNtCs8RRi2RJs6bh_14vass_reach_lib9automaton9petri_net4specs_17test_guard_atom_1
FN:101,_RNvNtNtNtCs8RRi2RJs6bh_14vass_reach_lib9automaton9petri_net4specs_17test_guard_atom_2
